
4-5. i-Bus Fail-safe FS-i6X.elf:     file format elf32-littlearm

Sections:
Idx Name          Size      VMA       LMA       File off  Algn
  0 .isr_vector   00000188  08000000  08000000  00010000  2**0
                  CONTENTS, ALLOC, LOAD, READONLY, DATA
  1 .text         00007874  08000190  08000190  00010190  2**4
                  CONTENTS, ALLOC, LOAD, READONLY, CODE
  2 .rodata       000004d0  08007a08  08007a08  00017a08  2**3
                  CONTENTS, ALLOC, LOAD, READONLY, DATA
  3 .ARM.extab    00000000  08007ed8  08007ed8  000201dc  2**0
                  CONTENTS
  4 .ARM          00000008  08007ed8  08007ed8  00017ed8  2**2
                  CONTENTS, ALLOC, LOAD, READONLY, DATA
  5 .preinit_array 00000000  08007ee0  08007ee0  000201dc  2**0
                  CONTENTS, ALLOC, LOAD, DATA
  6 .init_array   00000004  08007ee0  08007ee0  00017ee0  2**2
                  CONTENTS, ALLOC, LOAD, DATA
  7 .fini_array   00000004  08007ee4  08007ee4  00017ee4  2**2
                  CONTENTS, ALLOC, LOAD, DATA
  8 .data         000001dc  20000000  08007ee8  00020000  2**2
                  CONTENTS, ALLOC, LOAD, DATA
  9 .bss          00000184  200001dc  080080c4  000201dc  2**2
                  ALLOC
 10 ._user_heap_stack 00000600  20000360  080080c4  00020360  2**0
                  ALLOC
 11 .ARM.attributes 00000030  00000000  00000000  000201dc  2**0
                  CONTENTS, READONLY
 12 .debug_info   0001071f  00000000  00000000  0002020c  2**0
                  CONTENTS, READONLY, DEBUGGING
 13 .debug_abbrev 00002f67  00000000  00000000  0003092b  2**0
                  CONTENTS, READONLY, DEBUGGING
 14 .debug_aranges 00000f08  00000000  00000000  00033898  2**3
                  CONTENTS, READONLY, DEBUGGING
 15 .debug_ranges 00000da8  00000000  00000000  000347a0  2**3
                  CONTENTS, READONLY, DEBUGGING
 16 .debug_macro  00024444  00000000  00000000  00035548  2**0
                  CONTENTS, READONLY, DEBUGGING
 17 .debug_line   0000d019  00000000  00000000  0005998c  2**0
                  CONTENTS, READONLY, DEBUGGING
 18 .debug_str    000c95a9  00000000  00000000  000669a5  2**0
                  CONTENTS, READONLY, DEBUGGING
 19 .comment      0000007b  00000000  00000000  0012ff4e  2**0
                  CONTENTS, READONLY
 20 .debug_frame  000049c4  00000000  00000000  0012ffcc  2**2
                  CONTENTS, READONLY, DEBUGGING

Disassembly of section .text:

08000190 <__do_global_dtors_aux>:
 8000190:	b510      	push	{r4, lr}
 8000192:	4c05      	ldr	r4, [pc, #20]	; (80001a8 <__do_global_dtors_aux+0x18>)
 8000194:	7823      	ldrb	r3, [r4, #0]
 8000196:	b933      	cbnz	r3, 80001a6 <__do_global_dtors_aux+0x16>
 8000198:	4b04      	ldr	r3, [pc, #16]	; (80001ac <__do_global_dtors_aux+0x1c>)
 800019a:	b113      	cbz	r3, 80001a2 <__do_global_dtors_aux+0x12>
 800019c:	4804      	ldr	r0, [pc, #16]	; (80001b0 <__do_global_dtors_aux+0x20>)
 800019e:	f3af 8000 	nop.w
 80001a2:	2301      	movs	r3, #1
 80001a4:	7023      	strb	r3, [r4, #0]
 80001a6:	bd10      	pop	{r4, pc}
 80001a8:	200001dc 	.word	0x200001dc
 80001ac:	00000000 	.word	0x00000000
 80001b0:	080079ec 	.word	0x080079ec

080001b4 <frame_dummy>:
 80001b4:	b508      	push	{r3, lr}
 80001b6:	4b03      	ldr	r3, [pc, #12]	; (80001c4 <frame_dummy+0x10>)
 80001b8:	b11b      	cbz	r3, 80001c2 <frame_dummy+0xe>
 80001ba:	4903      	ldr	r1, [pc, #12]	; (80001c8 <frame_dummy+0x14>)
 80001bc:	4803      	ldr	r0, [pc, #12]	; (80001cc <frame_dummy+0x18>)
 80001be:	f3af 8000 	nop.w
 80001c2:	bd08      	pop	{r3, pc}
 80001c4:	00000000 	.word	0x00000000
 80001c8:	200001e0 	.word	0x200001e0
 80001cc:	080079ec 	.word	0x080079ec

080001d0 <strlen>:
 80001d0:	4603      	mov	r3, r0
 80001d2:	f813 2b01 	ldrb.w	r2, [r3], #1
 80001d6:	2a00      	cmp	r2, #0
 80001d8:	d1fb      	bne.n	80001d2 <strlen+0x2>
 80001da:	1a18      	subs	r0, r3, r0
 80001dc:	3801      	subs	r0, #1
 80001de:	4770      	bx	lr

080001e0 <memchr>:
 80001e0:	f001 01ff 	and.w	r1, r1, #255	; 0xff
 80001e4:	2a10      	cmp	r2, #16
 80001e6:	db2b      	blt.n	8000240 <memchr+0x60>
 80001e8:	f010 0f07 	tst.w	r0, #7
 80001ec:	d008      	beq.n	8000200 <memchr+0x20>
 80001ee:	f810 3b01 	ldrb.w	r3, [r0], #1
 80001f2:	3a01      	subs	r2, #1
 80001f4:	428b      	cmp	r3, r1
 80001f6:	d02d      	beq.n	8000254 <memchr+0x74>
 80001f8:	f010 0f07 	tst.w	r0, #7
 80001fc:	b342      	cbz	r2, 8000250 <memchr+0x70>
 80001fe:	d1f6      	bne.n	80001ee <memchr+0xe>
 8000200:	b4f0      	push	{r4, r5, r6, r7}
 8000202:	ea41 2101 	orr.w	r1, r1, r1, lsl #8
 8000206:	ea41 4101 	orr.w	r1, r1, r1, lsl #16
 800020a:	f022 0407 	bic.w	r4, r2, #7
 800020e:	f07f 0700 	mvns.w	r7, #0
 8000212:	2300      	movs	r3, #0
 8000214:	e8f0 5602 	ldrd	r5, r6, [r0], #8
 8000218:	3c08      	subs	r4, #8
 800021a:	ea85 0501 	eor.w	r5, r5, r1
 800021e:	ea86 0601 	eor.w	r6, r6, r1
 8000222:	fa85 f547 	uadd8	r5, r5, r7
 8000226:	faa3 f587 	sel	r5, r3, r7
 800022a:	fa86 f647 	uadd8	r6, r6, r7
 800022e:	faa5 f687 	sel	r6, r5, r7
 8000232:	b98e      	cbnz	r6, 8000258 <memchr+0x78>
 8000234:	d1ee      	bne.n	8000214 <memchr+0x34>
 8000236:	bcf0      	pop	{r4, r5, r6, r7}
 8000238:	f001 01ff 	and.w	r1, r1, #255	; 0xff
 800023c:	f002 0207 	and.w	r2, r2, #7
 8000240:	b132      	cbz	r2, 8000250 <memchr+0x70>
 8000242:	f810 3b01 	ldrb.w	r3, [r0], #1
 8000246:	3a01      	subs	r2, #1
 8000248:	ea83 0301 	eor.w	r3, r3, r1
 800024c:	b113      	cbz	r3, 8000254 <memchr+0x74>
 800024e:	d1f8      	bne.n	8000242 <memchr+0x62>
 8000250:	2000      	movs	r0, #0
 8000252:	4770      	bx	lr
 8000254:	3801      	subs	r0, #1
 8000256:	4770      	bx	lr
 8000258:	2d00      	cmp	r5, #0
 800025a:	bf06      	itte	eq
 800025c:	4635      	moveq	r5, r6
 800025e:	3803      	subeq	r0, #3
 8000260:	3807      	subne	r0, #7
 8000262:	f015 0f01 	tst.w	r5, #1
 8000266:	d107      	bne.n	8000278 <memchr+0x98>
 8000268:	3001      	adds	r0, #1
 800026a:	f415 7f80 	tst.w	r5, #256	; 0x100
 800026e:	bf02      	ittt	eq
 8000270:	3001      	addeq	r0, #1
 8000272:	f415 3fc0 	tsteq.w	r5, #98304	; 0x18000
 8000276:	3001      	addeq	r0, #1
 8000278:	bcf0      	pop	{r4, r5, r6, r7}
 800027a:	3801      	subs	r0, #1
 800027c:	4770      	bx	lr
 800027e:	bf00      	nop

08000280 <__aeabi_drsub>:
 8000280:	f081 4100 	eor.w	r1, r1, #2147483648	; 0x80000000
 8000284:	e002      	b.n	800028c <__adddf3>
 8000286:	bf00      	nop

08000288 <__aeabi_dsub>:
 8000288:	f083 4300 	eor.w	r3, r3, #2147483648	; 0x80000000

0800028c <__adddf3>:
 800028c:	b530      	push	{r4, r5, lr}
 800028e:	ea4f 0441 	mov.w	r4, r1, lsl #1
 8000292:	ea4f 0543 	mov.w	r5, r3, lsl #1
 8000296:	ea94 0f05 	teq	r4, r5
 800029a:	bf08      	it	eq
 800029c:	ea90 0f02 	teqeq	r0, r2
 80002a0:	bf1f      	itttt	ne
 80002a2:	ea54 0c00 	orrsne.w	ip, r4, r0
 80002a6:	ea55 0c02 	orrsne.w	ip, r5, r2
 80002aa:	ea7f 5c64 	mvnsne.w	ip, r4, asr #21
 80002ae:	ea7f 5c65 	mvnsne.w	ip, r5, asr #21
 80002b2:	f000 80e2 	beq.w	800047a <__adddf3+0x1ee>
 80002b6:	ea4f 5454 	mov.w	r4, r4, lsr #21
 80002ba:	ebd4 5555 	rsbs	r5, r4, r5, lsr #21
 80002be:	bfb8      	it	lt
 80002c0:	426d      	neglt	r5, r5
 80002c2:	dd0c      	ble.n	80002de <__adddf3+0x52>
 80002c4:	442c      	add	r4, r5
 80002c6:	ea80 0202 	eor.w	r2, r0, r2
 80002ca:	ea81 0303 	eor.w	r3, r1, r3
 80002ce:	ea82 0000 	eor.w	r0, r2, r0
 80002d2:	ea83 0101 	eor.w	r1, r3, r1
 80002d6:	ea80 0202 	eor.w	r2, r0, r2
 80002da:	ea81 0303 	eor.w	r3, r1, r3
 80002de:	2d36      	cmp	r5, #54	; 0x36
 80002e0:	bf88      	it	hi
 80002e2:	bd30      	pophi	{r4, r5, pc}
 80002e4:	f011 4f00 	tst.w	r1, #2147483648	; 0x80000000
 80002e8:	ea4f 3101 	mov.w	r1, r1, lsl #12
 80002ec:	f44f 1c80 	mov.w	ip, #1048576	; 0x100000
 80002f0:	ea4c 3111 	orr.w	r1, ip, r1, lsr #12
 80002f4:	d002      	beq.n	80002fc <__adddf3+0x70>
 80002f6:	4240      	negs	r0, r0
 80002f8:	eb61 0141 	sbc.w	r1, r1, r1, lsl #1
 80002fc:	f013 4f00 	tst.w	r3, #2147483648	; 0x80000000
 8000300:	ea4f 3303 	mov.w	r3, r3, lsl #12
 8000304:	ea4c 3313 	orr.w	r3, ip, r3, lsr #12
 8000308:	d002      	beq.n	8000310 <__adddf3+0x84>
 800030a:	4252      	negs	r2, r2
 800030c:	eb63 0343 	sbc.w	r3, r3, r3, lsl #1
 8000310:	ea94 0f05 	teq	r4, r5
 8000314:	f000 80a7 	beq.w	8000466 <__adddf3+0x1da>
 8000318:	f1a4 0401 	sub.w	r4, r4, #1
 800031c:	f1d5 0e20 	rsbs	lr, r5, #32
 8000320:	db0d      	blt.n	800033e <__adddf3+0xb2>
 8000322:	fa02 fc0e 	lsl.w	ip, r2, lr
 8000326:	fa22 f205 	lsr.w	r2, r2, r5
 800032a:	1880      	adds	r0, r0, r2
 800032c:	f141 0100 	adc.w	r1, r1, #0
 8000330:	fa03 f20e 	lsl.w	r2, r3, lr
 8000334:	1880      	adds	r0, r0, r2
 8000336:	fa43 f305 	asr.w	r3, r3, r5
 800033a:	4159      	adcs	r1, r3
 800033c:	e00e      	b.n	800035c <__adddf3+0xd0>
 800033e:	f1a5 0520 	sub.w	r5, r5, #32
 8000342:	f10e 0e20 	add.w	lr, lr, #32
 8000346:	2a01      	cmp	r2, #1
 8000348:	fa03 fc0e 	lsl.w	ip, r3, lr
 800034c:	bf28      	it	cs
 800034e:	f04c 0c02 	orrcs.w	ip, ip, #2
 8000352:	fa43 f305 	asr.w	r3, r3, r5
 8000356:	18c0      	adds	r0, r0, r3
 8000358:	eb51 71e3 	adcs.w	r1, r1, r3, asr #31
 800035c:	f001 4500 	and.w	r5, r1, #2147483648	; 0x80000000
 8000360:	d507      	bpl.n	8000372 <__adddf3+0xe6>
 8000362:	f04f 0e00 	mov.w	lr, #0
 8000366:	f1dc 0c00 	rsbs	ip, ip, #0
 800036a:	eb7e 0000 	sbcs.w	r0, lr, r0
 800036e:	eb6e 0101 	sbc.w	r1, lr, r1
 8000372:	f5b1 1f80 	cmp.w	r1, #1048576	; 0x100000
 8000376:	d31b      	bcc.n	80003b0 <__adddf3+0x124>
 8000378:	f5b1 1f00 	cmp.w	r1, #2097152	; 0x200000
 800037c:	d30c      	bcc.n	8000398 <__adddf3+0x10c>
 800037e:	0849      	lsrs	r1, r1, #1
 8000380:	ea5f 0030 	movs.w	r0, r0, rrx
 8000384:	ea4f 0c3c 	mov.w	ip, ip, rrx
 8000388:	f104 0401 	add.w	r4, r4, #1
 800038c:	ea4f 5244 	mov.w	r2, r4, lsl #21
 8000390:	f512 0f80 	cmn.w	r2, #4194304	; 0x400000
 8000394:	f080 809a 	bcs.w	80004cc <__adddf3+0x240>
 8000398:	f1bc 4f00 	cmp.w	ip, #2147483648	; 0x80000000
 800039c:	bf08      	it	eq
 800039e:	ea5f 0c50 	movseq.w	ip, r0, lsr #1
 80003a2:	f150 0000 	adcs.w	r0, r0, #0
 80003a6:	eb41 5104 	adc.w	r1, r1, r4, lsl #20
 80003aa:	ea41 0105 	orr.w	r1, r1, r5
 80003ae:	bd30      	pop	{r4, r5, pc}
 80003b0:	ea5f 0c4c 	movs.w	ip, ip, lsl #1
 80003b4:	4140      	adcs	r0, r0
 80003b6:	eb41 0101 	adc.w	r1, r1, r1
 80003ba:	f411 1f80 	tst.w	r1, #1048576	; 0x100000
 80003be:	f1a4 0401 	sub.w	r4, r4, #1
 80003c2:	d1e9      	bne.n	8000398 <__adddf3+0x10c>
 80003c4:	f091 0f00 	teq	r1, #0
 80003c8:	bf04      	itt	eq
 80003ca:	4601      	moveq	r1, r0
 80003cc:	2000      	moveq	r0, #0
 80003ce:	fab1 f381 	clz	r3, r1
 80003d2:	bf08      	it	eq
 80003d4:	3320      	addeq	r3, #32
 80003d6:	f1a3 030b 	sub.w	r3, r3, #11
 80003da:	f1b3 0220 	subs.w	r2, r3, #32
 80003de:	da0c      	bge.n	80003fa <__adddf3+0x16e>
 80003e0:	320c      	adds	r2, #12
 80003e2:	dd08      	ble.n	80003f6 <__adddf3+0x16a>
 80003e4:	f102 0c14 	add.w	ip, r2, #20
 80003e8:	f1c2 020c 	rsb	r2, r2, #12
 80003ec:	fa01 f00c 	lsl.w	r0, r1, ip
 80003f0:	fa21 f102 	lsr.w	r1, r1, r2
 80003f4:	e00c      	b.n	8000410 <__adddf3+0x184>
 80003f6:	f102 0214 	add.w	r2, r2, #20
 80003fa:	bfd8      	it	le
 80003fc:	f1c2 0c20 	rsble	ip, r2, #32
 8000400:	fa01 f102 	lsl.w	r1, r1, r2
 8000404:	fa20 fc0c 	lsr.w	ip, r0, ip
 8000408:	bfdc      	itt	le
 800040a:	ea41 010c 	orrle.w	r1, r1, ip
 800040e:	4090      	lslle	r0, r2
 8000410:	1ae4      	subs	r4, r4, r3
 8000412:	bfa2      	ittt	ge
 8000414:	eb01 5104 	addge.w	r1, r1, r4, lsl #20
 8000418:	4329      	orrge	r1, r5
 800041a:	bd30      	popge	{r4, r5, pc}
 800041c:	ea6f 0404 	mvn.w	r4, r4
 8000420:	3c1f      	subs	r4, #31
 8000422:	da1c      	bge.n	800045e <__adddf3+0x1d2>
 8000424:	340c      	adds	r4, #12
 8000426:	dc0e      	bgt.n	8000446 <__adddf3+0x1ba>
 8000428:	f104 0414 	add.w	r4, r4, #20
 800042c:	f1c4 0220 	rsb	r2, r4, #32
 8000430:	fa20 f004 	lsr.w	r0, r0, r4
 8000434:	fa01 f302 	lsl.w	r3, r1, r2
 8000438:	ea40 0003 	orr.w	r0, r0, r3
 800043c:	fa21 f304 	lsr.w	r3, r1, r4
 8000440:	ea45 0103 	orr.w	r1, r5, r3
 8000444:	bd30      	pop	{r4, r5, pc}
 8000446:	f1c4 040c 	rsb	r4, r4, #12
 800044a:	f1c4 0220 	rsb	r2, r4, #32
 800044e:	fa20 f002 	lsr.w	r0, r0, r2
 8000452:	fa01 f304 	lsl.w	r3, r1, r4
 8000456:	ea40 0003 	orr.w	r0, r0, r3
 800045a:	4629      	mov	r1, r5
 800045c:	bd30      	pop	{r4, r5, pc}
 800045e:	fa21 f004 	lsr.w	r0, r1, r4
 8000462:	4629      	mov	r1, r5
 8000464:	bd30      	pop	{r4, r5, pc}
 8000466:	f094 0f00 	teq	r4, #0
 800046a:	f483 1380 	eor.w	r3, r3, #1048576	; 0x100000
 800046e:	bf06      	itte	eq
 8000470:	f481 1180 	eoreq.w	r1, r1, #1048576	; 0x100000
 8000474:	3401      	addeq	r4, #1
 8000476:	3d01      	subne	r5, #1
 8000478:	e74e      	b.n	8000318 <__adddf3+0x8c>
 800047a:	ea7f 5c64 	mvns.w	ip, r4, asr #21
 800047e:	bf18      	it	ne
 8000480:	ea7f 5c65 	mvnsne.w	ip, r5, asr #21
 8000484:	d029      	beq.n	80004da <__adddf3+0x24e>
 8000486:	ea94 0f05 	teq	r4, r5
 800048a:	bf08      	it	eq
 800048c:	ea90 0f02 	teqeq	r0, r2
 8000490:	d005      	beq.n	800049e <__adddf3+0x212>
 8000492:	ea54 0c00 	orrs.w	ip, r4, r0
 8000496:	bf04      	itt	eq
 8000498:	4619      	moveq	r1, r3
 800049a:	4610      	moveq	r0, r2
 800049c:	bd30      	pop	{r4, r5, pc}
 800049e:	ea91 0f03 	teq	r1, r3
 80004a2:	bf1e      	ittt	ne
 80004a4:	2100      	movne	r1, #0
 80004a6:	2000      	movne	r0, #0
 80004a8:	bd30      	popne	{r4, r5, pc}
 80004aa:	ea5f 5c54 	movs.w	ip, r4, lsr #21
 80004ae:	d105      	bne.n	80004bc <__adddf3+0x230>
 80004b0:	0040      	lsls	r0, r0, #1
 80004b2:	4149      	adcs	r1, r1
 80004b4:	bf28      	it	cs
 80004b6:	f041 4100 	orrcs.w	r1, r1, #2147483648	; 0x80000000
 80004ba:	bd30      	pop	{r4, r5, pc}
 80004bc:	f514 0480 	adds.w	r4, r4, #4194304	; 0x400000
 80004c0:	bf3c      	itt	cc
 80004c2:	f501 1180 	addcc.w	r1, r1, #1048576	; 0x100000
 80004c6:	bd30      	popcc	{r4, r5, pc}
 80004c8:	f001 4500 	and.w	r5, r1, #2147483648	; 0x80000000
 80004cc:	f045 41fe 	orr.w	r1, r5, #2130706432	; 0x7f000000
 80004d0:	f441 0170 	orr.w	r1, r1, #15728640	; 0xf00000
 80004d4:	f04f 0000 	mov.w	r0, #0
 80004d8:	bd30      	pop	{r4, r5, pc}
 80004da:	ea7f 5c64 	mvns.w	ip, r4, asr #21
 80004de:	bf1a      	itte	ne
 80004e0:	4619      	movne	r1, r3
 80004e2:	4610      	movne	r0, r2
 80004e4:	ea7f 5c65 	mvnseq.w	ip, r5, asr #21
 80004e8:	bf1c      	itt	ne
 80004ea:	460b      	movne	r3, r1
 80004ec:	4602      	movne	r2, r0
 80004ee:	ea50 3401 	orrs.w	r4, r0, r1, lsl #12
 80004f2:	bf06      	itte	eq
 80004f4:	ea52 3503 	orrseq.w	r5, r2, r3, lsl #12
 80004f8:	ea91 0f03 	teqeq	r1, r3
 80004fc:	f441 2100 	orrne.w	r1, r1, #524288	; 0x80000
 8000500:	bd30      	pop	{r4, r5, pc}
 8000502:	bf00      	nop

08000504 <__aeabi_ui2d>:
 8000504:	f090 0f00 	teq	r0, #0
 8000508:	bf04      	itt	eq
 800050a:	2100      	moveq	r1, #0
 800050c:	4770      	bxeq	lr
 800050e:	b530      	push	{r4, r5, lr}
 8000510:	f44f 6480 	mov.w	r4, #1024	; 0x400
 8000514:	f104 0432 	add.w	r4, r4, #50	; 0x32
 8000518:	f04f 0500 	mov.w	r5, #0
 800051c:	f04f 0100 	mov.w	r1, #0
 8000520:	e750      	b.n	80003c4 <__adddf3+0x138>
 8000522:	bf00      	nop

08000524 <__aeabi_i2d>:
 8000524:	f090 0f00 	teq	r0, #0
 8000528:	bf04      	itt	eq
 800052a:	2100      	moveq	r1, #0
 800052c:	4770      	bxeq	lr
 800052e:	b530      	push	{r4, r5, lr}
 8000530:	f44f 6480 	mov.w	r4, #1024	; 0x400
 8000534:	f104 0432 	add.w	r4, r4, #50	; 0x32
 8000538:	f010 4500 	ands.w	r5, r0, #2147483648	; 0x80000000
 800053c:	bf48      	it	mi
 800053e:	4240      	negmi	r0, r0
 8000540:	f04f 0100 	mov.w	r1, #0
 8000544:	e73e      	b.n	80003c4 <__adddf3+0x138>
 8000546:	bf00      	nop

08000548 <__aeabi_f2d>:
 8000548:	0042      	lsls	r2, r0, #1
 800054a:	ea4f 01e2 	mov.w	r1, r2, asr #3
 800054e:	ea4f 0131 	mov.w	r1, r1, rrx
 8000552:	ea4f 7002 	mov.w	r0, r2, lsl #28
 8000556:	bf1f      	itttt	ne
 8000558:	f012 437f 	andsne.w	r3, r2, #4278190080	; 0xff000000
 800055c:	f093 4f7f 	teqne	r3, #4278190080	; 0xff000000
 8000560:	f081 5160 	eorne.w	r1, r1, #939524096	; 0x38000000
 8000564:	4770      	bxne	lr
 8000566:	f032 427f 	bics.w	r2, r2, #4278190080	; 0xff000000
 800056a:	bf08      	it	eq
 800056c:	4770      	bxeq	lr
 800056e:	f093 4f7f 	teq	r3, #4278190080	; 0xff000000
 8000572:	bf04      	itt	eq
 8000574:	f441 2100 	orreq.w	r1, r1, #524288	; 0x80000
 8000578:	4770      	bxeq	lr
 800057a:	b530      	push	{r4, r5, lr}
 800057c:	f44f 7460 	mov.w	r4, #896	; 0x380
 8000580:	f001 4500 	and.w	r5, r1, #2147483648	; 0x80000000
 8000584:	f021 4100 	bic.w	r1, r1, #2147483648	; 0x80000000
 8000588:	e71c      	b.n	80003c4 <__adddf3+0x138>
 800058a:	bf00      	nop

0800058c <__aeabi_ul2d>:
 800058c:	ea50 0201 	orrs.w	r2, r0, r1
 8000590:	bf08      	it	eq
 8000592:	4770      	bxeq	lr
 8000594:	b530      	push	{r4, r5, lr}
 8000596:	f04f 0500 	mov.w	r5, #0
 800059a:	e00a      	b.n	80005b2 <__aeabi_l2d+0x16>

0800059c <__aeabi_l2d>:
 800059c:	ea50 0201 	orrs.w	r2, r0, r1
 80005a0:	bf08      	it	eq
 80005a2:	4770      	bxeq	lr
 80005a4:	b530      	push	{r4, r5, lr}
 80005a6:	f011 4500 	ands.w	r5, r1, #2147483648	; 0x80000000
 80005aa:	d502      	bpl.n	80005b2 <__aeabi_l2d+0x16>
 80005ac:	4240      	negs	r0, r0
 80005ae:	eb61 0141 	sbc.w	r1, r1, r1, lsl #1
 80005b2:	f44f 6480 	mov.w	r4, #1024	; 0x400
 80005b6:	f104 0432 	add.w	r4, r4, #50	; 0x32
 80005ba:	ea5f 5c91 	movs.w	ip, r1, lsr #22
 80005be:	f43f aed8 	beq.w	8000372 <__adddf3+0xe6>
 80005c2:	f04f 0203 	mov.w	r2, #3
 80005c6:	ea5f 0cdc 	movs.w	ip, ip, lsr #3
 80005ca:	bf18      	it	ne
 80005cc:	3203      	addne	r2, #3
 80005ce:	ea5f 0cdc 	movs.w	ip, ip, lsr #3
 80005d2:	bf18      	it	ne
 80005d4:	3203      	addne	r2, #3
 80005d6:	eb02 02dc 	add.w	r2, r2, ip, lsr #3
 80005da:	f1c2 0320 	rsb	r3, r2, #32
 80005de:	fa00 fc03 	lsl.w	ip, r0, r3
 80005e2:	fa20 f002 	lsr.w	r0, r0, r2
 80005e6:	fa01 fe03 	lsl.w	lr, r1, r3
 80005ea:	ea40 000e 	orr.w	r0, r0, lr
 80005ee:	fa21 f102 	lsr.w	r1, r1, r2
 80005f2:	4414      	add	r4, r2
 80005f4:	e6bd      	b.n	8000372 <__adddf3+0xe6>
 80005f6:	bf00      	nop

080005f8 <__aeabi_dmul>:
 80005f8:	b570      	push	{r4, r5, r6, lr}
 80005fa:	f04f 0cff 	mov.w	ip, #255	; 0xff
 80005fe:	f44c 6ce0 	orr.w	ip, ip, #1792	; 0x700
 8000602:	ea1c 5411 	ands.w	r4, ip, r1, lsr #20
 8000606:	bf1d      	ittte	ne
 8000608:	ea1c 5513 	andsne.w	r5, ip, r3, lsr #20
 800060c:	ea94 0f0c 	teqne	r4, ip
 8000610:	ea95 0f0c 	teqne	r5, ip
 8000614:	f000 f8de 	bleq	80007d4 <__aeabi_dmul+0x1dc>
 8000618:	442c      	add	r4, r5
 800061a:	ea81 0603 	eor.w	r6, r1, r3
 800061e:	ea21 514c 	bic.w	r1, r1, ip, lsl #21
 8000622:	ea23 534c 	bic.w	r3, r3, ip, lsl #21
 8000626:	ea50 3501 	orrs.w	r5, r0, r1, lsl #12
 800062a:	bf18      	it	ne
 800062c:	ea52 3503 	orrsne.w	r5, r2, r3, lsl #12
 8000630:	f441 1180 	orr.w	r1, r1, #1048576	; 0x100000
 8000634:	f443 1380 	orr.w	r3, r3, #1048576	; 0x100000
 8000638:	d038      	beq.n	80006ac <__aeabi_dmul+0xb4>
 800063a:	fba0 ce02 	umull	ip, lr, r0, r2
 800063e:	f04f 0500 	mov.w	r5, #0
 8000642:	fbe1 e502 	umlal	lr, r5, r1, r2
 8000646:	f006 4200 	and.w	r2, r6, #2147483648	; 0x80000000
 800064a:	fbe0 e503 	umlal	lr, r5, r0, r3
 800064e:	f04f 0600 	mov.w	r6, #0
 8000652:	fbe1 5603 	umlal	r5, r6, r1, r3
 8000656:	f09c 0f00 	teq	ip, #0
 800065a:	bf18      	it	ne
 800065c:	f04e 0e01 	orrne.w	lr, lr, #1
 8000660:	f1a4 04ff 	sub.w	r4, r4, #255	; 0xff
 8000664:	f5b6 7f00 	cmp.w	r6, #512	; 0x200
 8000668:	f564 7440 	sbc.w	r4, r4, #768	; 0x300
 800066c:	d204      	bcs.n	8000678 <__aeabi_dmul+0x80>
 800066e:	ea5f 0e4e 	movs.w	lr, lr, lsl #1
 8000672:	416d      	adcs	r5, r5
 8000674:	eb46 0606 	adc.w	r6, r6, r6
 8000678:	ea42 21c6 	orr.w	r1, r2, r6, lsl #11
 800067c:	ea41 5155 	orr.w	r1, r1, r5, lsr #21
 8000680:	ea4f 20c5 	mov.w	r0, r5, lsl #11
 8000684:	ea40 505e 	orr.w	r0, r0, lr, lsr #21
 8000688:	ea4f 2ece 	mov.w	lr, lr, lsl #11
 800068c:	f1b4 0cfd 	subs.w	ip, r4, #253	; 0xfd
 8000690:	bf88      	it	hi
 8000692:	f5bc 6fe0 	cmphi.w	ip, #1792	; 0x700
 8000696:	d81e      	bhi.n	80006d6 <__aeabi_dmul+0xde>
 8000698:	f1be 4f00 	cmp.w	lr, #2147483648	; 0x80000000
 800069c:	bf08      	it	eq
 800069e:	ea5f 0e50 	movseq.w	lr, r0, lsr #1
 80006a2:	f150 0000 	adcs.w	r0, r0, #0
 80006a6:	eb41 5104 	adc.w	r1, r1, r4, lsl #20
 80006aa:	bd70      	pop	{r4, r5, r6, pc}
 80006ac:	f006 4600 	and.w	r6, r6, #2147483648	; 0x80000000
 80006b0:	ea46 0101 	orr.w	r1, r6, r1
 80006b4:	ea40 0002 	orr.w	r0, r0, r2
 80006b8:	ea81 0103 	eor.w	r1, r1, r3
 80006bc:	ebb4 045c 	subs.w	r4, r4, ip, lsr #1
 80006c0:	bfc2      	ittt	gt
 80006c2:	ebd4 050c 	rsbsgt	r5, r4, ip
 80006c6:	ea41 5104 	orrgt.w	r1, r1, r4, lsl #20
 80006ca:	bd70      	popgt	{r4, r5, r6, pc}
 80006cc:	f441 1180 	orr.w	r1, r1, #1048576	; 0x100000
 80006d0:	f04f 0e00 	mov.w	lr, #0
 80006d4:	3c01      	subs	r4, #1
 80006d6:	f300 80ab 	bgt.w	8000830 <__aeabi_dmul+0x238>
 80006da:	f114 0f36 	cmn.w	r4, #54	; 0x36
 80006de:	bfde      	ittt	le
 80006e0:	2000      	movle	r0, #0
 80006e2:	f001 4100 	andle.w	r1, r1, #2147483648	; 0x80000000
 80006e6:	bd70      	pople	{r4, r5, r6, pc}
 80006e8:	f1c4 0400 	rsb	r4, r4, #0
 80006ec:	3c20      	subs	r4, #32
 80006ee:	da35      	bge.n	800075c <__aeabi_dmul+0x164>
 80006f0:	340c      	adds	r4, #12
 80006f2:	dc1b      	bgt.n	800072c <__aeabi_dmul+0x134>
 80006f4:	f104 0414 	add.w	r4, r4, #20
 80006f8:	f1c4 0520 	rsb	r5, r4, #32
 80006fc:	fa00 f305 	lsl.w	r3, r0, r5
 8000700:	fa20 f004 	lsr.w	r0, r0, r4
 8000704:	fa01 f205 	lsl.w	r2, r1, r5
 8000708:	ea40 0002 	orr.w	r0, r0, r2
 800070c:	f001 4200 	and.w	r2, r1, #2147483648	; 0x80000000
 8000710:	f021 4100 	bic.w	r1, r1, #2147483648	; 0x80000000
 8000714:	eb10 70d3 	adds.w	r0, r0, r3, lsr #31
 8000718:	fa21 f604 	lsr.w	r6, r1, r4
 800071c:	eb42 0106 	adc.w	r1, r2, r6
 8000720:	ea5e 0e43 	orrs.w	lr, lr, r3, lsl #1
 8000724:	bf08      	it	eq
 8000726:	ea20 70d3 	biceq.w	r0, r0, r3, lsr #31
 800072a:	bd70      	pop	{r4, r5, r6, pc}
 800072c:	f1c4 040c 	rsb	r4, r4, #12
 8000730:	f1c4 0520 	rsb	r5, r4, #32
 8000734:	fa00 f304 	lsl.w	r3, r0, r4
 8000738:	fa20 f005 	lsr.w	r0, r0, r5
 800073c:	fa01 f204 	lsl.w	r2, r1, r4
 8000740:	ea40 0002 	orr.w	r0, r0, r2
 8000744:	f001 4100 	and.w	r1, r1, #2147483648	; 0x80000000
 8000748:	eb10 70d3 	adds.w	r0, r0, r3, lsr #31
 800074c:	f141 0100 	adc.w	r1, r1, #0
 8000750:	ea5e 0e43 	orrs.w	lr, lr, r3, lsl #1
 8000754:	bf08      	it	eq
 8000756:	ea20 70d3 	biceq.w	r0, r0, r3, lsr #31
 800075a:	bd70      	pop	{r4, r5, r6, pc}
 800075c:	f1c4 0520 	rsb	r5, r4, #32
 8000760:	fa00 f205 	lsl.w	r2, r0, r5
 8000764:	ea4e 0e02 	orr.w	lr, lr, r2
 8000768:	fa20 f304 	lsr.w	r3, r0, r4
 800076c:	fa01 f205 	lsl.w	r2, r1, r5
 8000770:	ea43 0302 	orr.w	r3, r3, r2
 8000774:	fa21 f004 	lsr.w	r0, r1, r4
 8000778:	f001 4100 	and.w	r1, r1, #2147483648	; 0x80000000
 800077c:	fa21 f204 	lsr.w	r2, r1, r4
 8000780:	ea20 0002 	bic.w	r0, r0, r2
 8000784:	eb00 70d3 	add.w	r0, r0, r3, lsr #31
 8000788:	ea5e 0e43 	orrs.w	lr, lr, r3, lsl #1
 800078c:	bf08      	it	eq
 800078e:	ea20 70d3 	biceq.w	r0, r0, r3, lsr #31
 8000792:	bd70      	pop	{r4, r5, r6, pc}
 8000794:	f094 0f00 	teq	r4, #0
 8000798:	d10f      	bne.n	80007ba <__aeabi_dmul+0x1c2>
 800079a:	f001 4600 	and.w	r6, r1, #2147483648	; 0x80000000
 800079e:	0040      	lsls	r0, r0, #1
 80007a0:	eb41 0101 	adc.w	r1, r1, r1
 80007a4:	f411 1f80 	tst.w	r1, #1048576	; 0x100000
 80007a8:	bf08      	it	eq
 80007aa:	3c01      	subeq	r4, #1
 80007ac:	d0f7      	beq.n	800079e <__aeabi_dmul+0x1a6>
 80007ae:	ea41 0106 	orr.w	r1, r1, r6
 80007b2:	f095 0f00 	teq	r5, #0
 80007b6:	bf18      	it	ne
 80007b8:	4770      	bxne	lr
 80007ba:	f003 4600 	and.w	r6, r3, #2147483648	; 0x80000000
 80007be:	0052      	lsls	r2, r2, #1
 80007c0:	eb43 0303 	adc.w	r3, r3, r3
 80007c4:	f413 1f80 	tst.w	r3, #1048576	; 0x100000
 80007c8:	bf08      	it	eq
 80007ca:	3d01      	subeq	r5, #1
 80007cc:	d0f7      	beq.n	80007be <__aeabi_dmul+0x1c6>
 80007ce:	ea43 0306 	orr.w	r3, r3, r6
 80007d2:	4770      	bx	lr
 80007d4:	ea94 0f0c 	teq	r4, ip
 80007d8:	ea0c 5513 	and.w	r5, ip, r3, lsr #20
 80007dc:	bf18      	it	ne
 80007de:	ea95 0f0c 	teqne	r5, ip
 80007e2:	d00c      	beq.n	80007fe <__aeabi_dmul+0x206>
 80007e4:	ea50 0641 	orrs.w	r6, r0, r1, lsl #1
 80007e8:	bf18      	it	ne
 80007ea:	ea52 0643 	orrsne.w	r6, r2, r3, lsl #1
 80007ee:	d1d1      	bne.n	8000794 <__aeabi_dmul+0x19c>
 80007f0:	ea81 0103 	eor.w	r1, r1, r3
 80007f4:	f001 4100 	and.w	r1, r1, #2147483648	; 0x80000000
 80007f8:	f04f 0000 	mov.w	r0, #0
 80007fc:	bd70      	pop	{r4, r5, r6, pc}
 80007fe:	ea50 0641 	orrs.w	r6, r0, r1, lsl #1
 8000802:	bf06      	itte	eq
 8000804:	4610      	moveq	r0, r2
 8000806:	4619      	moveq	r1, r3
 8000808:	ea52 0643 	orrsne.w	r6, r2, r3, lsl #1
 800080c:	d019      	beq.n	8000842 <__aeabi_dmul+0x24a>
 800080e:	ea94 0f0c 	teq	r4, ip
 8000812:	d102      	bne.n	800081a <__aeabi_dmul+0x222>
 8000814:	ea50 3601 	orrs.w	r6, r0, r1, lsl #12
 8000818:	d113      	bne.n	8000842 <__aeabi_dmul+0x24a>
 800081a:	ea95 0f0c 	teq	r5, ip
 800081e:	d105      	bne.n	800082c <__aeabi_dmul+0x234>
 8000820:	ea52 3603 	orrs.w	r6, r2, r3, lsl #12
 8000824:	bf1c      	itt	ne
 8000826:	4610      	movne	r0, r2
 8000828:	4619      	movne	r1, r3
 800082a:	d10a      	bne.n	8000842 <__aeabi_dmul+0x24a>
 800082c:	ea81 0103 	eor.w	r1, r1, r3
 8000830:	f001 4100 	and.w	r1, r1, #2147483648	; 0x80000000
 8000834:	f041 41fe 	orr.w	r1, r1, #2130706432	; 0x7f000000
 8000838:	f441 0170 	orr.w	r1, r1, #15728640	; 0xf00000
 800083c:	f04f 0000 	mov.w	r0, #0
 8000840:	bd70      	pop	{r4, r5, r6, pc}
 8000842:	f041 41fe 	orr.w	r1, r1, #2130706432	; 0x7f000000
 8000846:	f441 0178 	orr.w	r1, r1, #16252928	; 0xf80000
 800084a:	bd70      	pop	{r4, r5, r6, pc}

0800084c <__aeabi_ddiv>:
 800084c:	b570      	push	{r4, r5, r6, lr}
 800084e:	f04f 0cff 	mov.w	ip, #255	; 0xff
 8000852:	f44c 6ce0 	orr.w	ip, ip, #1792	; 0x700
 8000856:	ea1c 5411 	ands.w	r4, ip, r1, lsr #20
 800085a:	bf1d      	ittte	ne
 800085c:	ea1c 5513 	andsne.w	r5, ip, r3, lsr #20
 8000860:	ea94 0f0c 	teqne	r4, ip
 8000864:	ea95 0f0c 	teqne	r5, ip
 8000868:	f000 f8a7 	bleq	80009ba <__aeabi_ddiv+0x16e>
 800086c:	eba4 0405 	sub.w	r4, r4, r5
 8000870:	ea81 0e03 	eor.w	lr, r1, r3
 8000874:	ea52 3503 	orrs.w	r5, r2, r3, lsl #12
 8000878:	ea4f 3101 	mov.w	r1, r1, lsl #12
 800087c:	f000 8088 	beq.w	8000990 <__aeabi_ddiv+0x144>
 8000880:	ea4f 3303 	mov.w	r3, r3, lsl #12
 8000884:	f04f 5580 	mov.w	r5, #268435456	; 0x10000000
 8000888:	ea45 1313 	orr.w	r3, r5, r3, lsr #4
 800088c:	ea43 6312 	orr.w	r3, r3, r2, lsr #24
 8000890:	ea4f 2202 	mov.w	r2, r2, lsl #8
 8000894:	ea45 1511 	orr.w	r5, r5, r1, lsr #4
 8000898:	ea45 6510 	orr.w	r5, r5, r0, lsr #24
 800089c:	ea4f 2600 	mov.w	r6, r0, lsl #8
 80008a0:	f00e 4100 	and.w	r1, lr, #2147483648	; 0x80000000
 80008a4:	429d      	cmp	r5, r3
 80008a6:	bf08      	it	eq
 80008a8:	4296      	cmpeq	r6, r2
 80008aa:	f144 04fd 	adc.w	r4, r4, #253	; 0xfd
 80008ae:	f504 7440 	add.w	r4, r4, #768	; 0x300
 80008b2:	d202      	bcs.n	80008ba <__aeabi_ddiv+0x6e>
 80008b4:	085b      	lsrs	r3, r3, #1
 80008b6:	ea4f 0232 	mov.w	r2, r2, rrx
 80008ba:	1ab6      	subs	r6, r6, r2
 80008bc:	eb65 0503 	sbc.w	r5, r5, r3
 80008c0:	085b      	lsrs	r3, r3, #1
 80008c2:	ea4f 0232 	mov.w	r2, r2, rrx
 80008c6:	f44f 1080 	mov.w	r0, #1048576	; 0x100000
 80008ca:	f44f 2c00 	mov.w	ip, #524288	; 0x80000
 80008ce:	ebb6 0e02 	subs.w	lr, r6, r2
 80008d2:	eb75 0e03 	sbcs.w	lr, r5, r3
 80008d6:	bf22      	ittt	cs
 80008d8:	1ab6      	subcs	r6, r6, r2
 80008da:	4675      	movcs	r5, lr
 80008dc:	ea40 000c 	orrcs.w	r0, r0, ip
 80008e0:	085b      	lsrs	r3, r3, #1
 80008e2:	ea4f 0232 	mov.w	r2, r2, rrx
 80008e6:	ebb6 0e02 	subs.w	lr, r6, r2
 80008ea:	eb75 0e03 	sbcs.w	lr, r5, r3
 80008ee:	bf22      	ittt	cs
 80008f0:	1ab6      	subcs	r6, r6, r2
 80008f2:	4675      	movcs	r5, lr
 80008f4:	ea40 005c 	orrcs.w	r0, r0, ip, lsr #1
 80008f8:	085b      	lsrs	r3, r3, #1
 80008fa:	ea4f 0232 	mov.w	r2, r2, rrx
 80008fe:	ebb6 0e02 	subs.w	lr, r6, r2
 8000902:	eb75 0e03 	sbcs.w	lr, r5, r3
 8000906:	bf22      	ittt	cs
 8000908:	1ab6      	subcs	r6, r6, r2
 800090a:	4675      	movcs	r5, lr
 800090c:	ea40 009c 	orrcs.w	r0, r0, ip, lsr #2
 8000910:	085b      	lsrs	r3, r3, #1
 8000912:	ea4f 0232 	mov.w	r2, r2, rrx
 8000916:	ebb6 0e02 	subs.w	lr, r6, r2
 800091a:	eb75 0e03 	sbcs.w	lr, r5, r3
 800091e:	bf22      	ittt	cs
 8000920:	1ab6      	subcs	r6, r6, r2
 8000922:	4675      	movcs	r5, lr
 8000924:	ea40 00dc 	orrcs.w	r0, r0, ip, lsr #3
 8000928:	ea55 0e06 	orrs.w	lr, r5, r6
 800092c:	d018      	beq.n	8000960 <__aeabi_ddiv+0x114>
 800092e:	ea4f 1505 	mov.w	r5, r5, lsl #4
 8000932:	ea45 7516 	orr.w	r5, r5, r6, lsr #28
 8000936:	ea4f 1606 	mov.w	r6, r6, lsl #4
 800093a:	ea4f 03c3 	mov.w	r3, r3, lsl #3
 800093e:	ea43 7352 	orr.w	r3, r3, r2, lsr #29
 8000942:	ea4f 02c2 	mov.w	r2, r2, lsl #3
 8000946:	ea5f 1c1c 	movs.w	ip, ip, lsr #4
 800094a:	d1c0      	bne.n	80008ce <__aeabi_ddiv+0x82>
 800094c:	f411 1f80 	tst.w	r1, #1048576	; 0x100000
 8000950:	d10b      	bne.n	800096a <__aeabi_ddiv+0x11e>
 8000952:	ea41 0100 	orr.w	r1, r1, r0
 8000956:	f04f 0000 	mov.w	r0, #0
 800095a:	f04f 4c00 	mov.w	ip, #2147483648	; 0x80000000
 800095e:	e7b6      	b.n	80008ce <__aeabi_ddiv+0x82>
 8000960:	f411 1f80 	tst.w	r1, #1048576	; 0x100000
 8000964:	bf04      	itt	eq
 8000966:	4301      	orreq	r1, r0
 8000968:	2000      	moveq	r0, #0
 800096a:	f1b4 0cfd 	subs.w	ip, r4, #253	; 0xfd
 800096e:	bf88      	it	hi
 8000970:	f5bc 6fe0 	cmphi.w	ip, #1792	; 0x700
 8000974:	f63f aeaf 	bhi.w	80006d6 <__aeabi_dmul+0xde>
 8000978:	ebb5 0c03 	subs.w	ip, r5, r3
 800097c:	bf04      	itt	eq
 800097e:	ebb6 0c02 	subseq.w	ip, r6, r2
 8000982:	ea5f 0c50 	movseq.w	ip, r0, lsr #1
 8000986:	f150 0000 	adcs.w	r0, r0, #0
 800098a:	eb41 5104 	adc.w	r1, r1, r4, lsl #20
 800098e:	bd70      	pop	{r4, r5, r6, pc}
 8000990:	f00e 4e00 	and.w	lr, lr, #2147483648	; 0x80000000
 8000994:	ea4e 3111 	orr.w	r1, lr, r1, lsr #12
 8000998:	eb14 045c 	adds.w	r4, r4, ip, lsr #1
 800099c:	bfc2      	ittt	gt
 800099e:	ebd4 050c 	rsbsgt	r5, r4, ip
 80009a2:	ea41 5104 	orrgt.w	r1, r1, r4, lsl #20
 80009a6:	bd70      	popgt	{r4, r5, r6, pc}
 80009a8:	f441 1180 	orr.w	r1, r1, #1048576	; 0x100000
 80009ac:	f04f 0e00 	mov.w	lr, #0
 80009b0:	3c01      	subs	r4, #1
 80009b2:	e690      	b.n	80006d6 <__aeabi_dmul+0xde>
 80009b4:	ea45 0e06 	orr.w	lr, r5, r6
 80009b8:	e68d      	b.n	80006d6 <__aeabi_dmul+0xde>
 80009ba:	ea0c 5513 	and.w	r5, ip, r3, lsr #20
 80009be:	ea94 0f0c 	teq	r4, ip
 80009c2:	bf08      	it	eq
 80009c4:	ea95 0f0c 	teqeq	r5, ip
 80009c8:	f43f af3b 	beq.w	8000842 <__aeabi_dmul+0x24a>
 80009cc:	ea94 0f0c 	teq	r4, ip
 80009d0:	d10a      	bne.n	80009e8 <__aeabi_ddiv+0x19c>
 80009d2:	ea50 3401 	orrs.w	r4, r0, r1, lsl #12
 80009d6:	f47f af34 	bne.w	8000842 <__aeabi_dmul+0x24a>
 80009da:	ea95 0f0c 	teq	r5, ip
 80009de:	f47f af25 	bne.w	800082c <__aeabi_dmul+0x234>
 80009e2:	4610      	mov	r0, r2
 80009e4:	4619      	mov	r1, r3
 80009e6:	e72c      	b.n	8000842 <__aeabi_dmul+0x24a>
 80009e8:	ea95 0f0c 	teq	r5, ip
 80009ec:	d106      	bne.n	80009fc <__aeabi_ddiv+0x1b0>
 80009ee:	ea52 3503 	orrs.w	r5, r2, r3, lsl #12
 80009f2:	f43f aefd 	beq.w	80007f0 <__aeabi_dmul+0x1f8>
 80009f6:	4610      	mov	r0, r2
 80009f8:	4619      	mov	r1, r3
 80009fa:	e722      	b.n	8000842 <__aeabi_dmul+0x24a>
 80009fc:	ea50 0641 	orrs.w	r6, r0, r1, lsl #1
 8000a00:	bf18      	it	ne
 8000a02:	ea52 0643 	orrsne.w	r6, r2, r3, lsl #1
 8000a06:	f47f aec5 	bne.w	8000794 <__aeabi_dmul+0x19c>
 8000a0a:	ea50 0441 	orrs.w	r4, r0, r1, lsl #1
 8000a0e:	f47f af0d 	bne.w	800082c <__aeabi_dmul+0x234>
 8000a12:	ea52 0543 	orrs.w	r5, r2, r3, lsl #1
 8000a16:	f47f aeeb 	bne.w	80007f0 <__aeabi_dmul+0x1f8>
 8000a1a:	e712      	b.n	8000842 <__aeabi_dmul+0x24a>

08000a1c <__gedf2>:
 8000a1c:	f04f 3cff 	mov.w	ip, #4294967295
 8000a20:	e006      	b.n	8000a30 <__cmpdf2+0x4>
 8000a22:	bf00      	nop

08000a24 <__ledf2>:
 8000a24:	f04f 0c01 	mov.w	ip, #1
 8000a28:	e002      	b.n	8000a30 <__cmpdf2+0x4>
 8000a2a:	bf00      	nop

08000a2c <__cmpdf2>:
 8000a2c:	f04f 0c01 	mov.w	ip, #1
 8000a30:	f84d cd04 	str.w	ip, [sp, #-4]!
 8000a34:	ea4f 0c41 	mov.w	ip, r1, lsl #1
 8000a38:	ea7f 5c6c 	mvns.w	ip, ip, asr #21
 8000a3c:	ea4f 0c43 	mov.w	ip, r3, lsl #1
 8000a40:	bf18      	it	ne
 8000a42:	ea7f 5c6c 	mvnsne.w	ip, ip, asr #21
 8000a46:	d01b      	beq.n	8000a80 <__cmpdf2+0x54>
 8000a48:	b001      	add	sp, #4
 8000a4a:	ea50 0c41 	orrs.w	ip, r0, r1, lsl #1
 8000a4e:	bf0c      	ite	eq
 8000a50:	ea52 0c43 	orrseq.w	ip, r2, r3, lsl #1
 8000a54:	ea91 0f03 	teqne	r1, r3
 8000a58:	bf02      	ittt	eq
 8000a5a:	ea90 0f02 	teqeq	r0, r2
 8000a5e:	2000      	moveq	r0, #0
 8000a60:	4770      	bxeq	lr
 8000a62:	f110 0f00 	cmn.w	r0, #0
 8000a66:	ea91 0f03 	teq	r1, r3
 8000a6a:	bf58      	it	pl
 8000a6c:	4299      	cmppl	r1, r3
 8000a6e:	bf08      	it	eq
 8000a70:	4290      	cmpeq	r0, r2
 8000a72:	bf2c      	ite	cs
 8000a74:	17d8      	asrcs	r0, r3, #31
 8000a76:	ea6f 70e3 	mvncc.w	r0, r3, asr #31
 8000a7a:	f040 0001 	orr.w	r0, r0, #1
 8000a7e:	4770      	bx	lr
 8000a80:	ea4f 0c41 	mov.w	ip, r1, lsl #1
 8000a84:	ea7f 5c6c 	mvns.w	ip, ip, asr #21
 8000a88:	d102      	bne.n	8000a90 <__cmpdf2+0x64>
 8000a8a:	ea50 3c01 	orrs.w	ip, r0, r1, lsl #12
 8000a8e:	d107      	bne.n	8000aa0 <__cmpdf2+0x74>
 8000a90:	ea4f 0c43 	mov.w	ip, r3, lsl #1
 8000a94:	ea7f 5c6c 	mvns.w	ip, ip, asr #21
 8000a98:	d1d6      	bne.n	8000a48 <__cmpdf2+0x1c>
 8000a9a:	ea52 3c03 	orrs.w	ip, r2, r3, lsl #12
 8000a9e:	d0d3      	beq.n	8000a48 <__cmpdf2+0x1c>
 8000aa0:	f85d 0b04 	ldr.w	r0, [sp], #4
 8000aa4:	4770      	bx	lr
 8000aa6:	bf00      	nop

08000aa8 <__aeabi_cdrcmple>:
 8000aa8:	4684      	mov	ip, r0
 8000aaa:	4610      	mov	r0, r2
 8000aac:	4662      	mov	r2, ip
 8000aae:	468c      	mov	ip, r1
 8000ab0:	4619      	mov	r1, r3
 8000ab2:	4663      	mov	r3, ip
 8000ab4:	e000      	b.n	8000ab8 <__aeabi_cdcmpeq>
 8000ab6:	bf00      	nop

08000ab8 <__aeabi_cdcmpeq>:
 8000ab8:	b501      	push	{r0, lr}
 8000aba:	f7ff ffb7 	bl	8000a2c <__cmpdf2>
 8000abe:	2800      	cmp	r0, #0
 8000ac0:	bf48      	it	mi
 8000ac2:	f110 0f00 	cmnmi.w	r0, #0
 8000ac6:	bd01      	pop	{r0, pc}

08000ac8 <__aeabi_dcmpeq>:
 8000ac8:	f84d ed08 	str.w	lr, [sp, #-8]!
 8000acc:	f7ff fff4 	bl	8000ab8 <__aeabi_cdcmpeq>
 8000ad0:	bf0c      	ite	eq
 8000ad2:	2001      	moveq	r0, #1
 8000ad4:	2000      	movne	r0, #0
 8000ad6:	f85d fb08 	ldr.w	pc, [sp], #8
 8000ada:	bf00      	nop

08000adc <__aeabi_dcmplt>:
 8000adc:	f84d ed08 	str.w	lr, [sp, #-8]!
 8000ae0:	f7ff ffea 	bl	8000ab8 <__aeabi_cdcmpeq>
 8000ae4:	bf34      	ite	cc
 8000ae6:	2001      	movcc	r0, #1
 8000ae8:	2000      	movcs	r0, #0
 8000aea:	f85d fb08 	ldr.w	pc, [sp], #8
 8000aee:	bf00      	nop

08000af0 <__aeabi_dcmple>:
 8000af0:	f84d ed08 	str.w	lr, [sp, #-8]!
 8000af4:	f7ff ffe0 	bl	8000ab8 <__aeabi_cdcmpeq>
 8000af8:	bf94      	ite	ls
 8000afa:	2001      	movls	r0, #1
 8000afc:	2000      	movhi	r0, #0
 8000afe:	f85d fb08 	ldr.w	pc, [sp], #8
 8000b02:	bf00      	nop

08000b04 <__aeabi_dcmpge>:
 8000b04:	f84d ed08 	str.w	lr, [sp, #-8]!
 8000b08:	f7ff ffce 	bl	8000aa8 <__aeabi_cdrcmple>
 8000b0c:	bf94      	ite	ls
 8000b0e:	2001      	movls	r0, #1
 8000b10:	2000      	movhi	r0, #0
 8000b12:	f85d fb08 	ldr.w	pc, [sp], #8
 8000b16:	bf00      	nop

08000b18 <__aeabi_dcmpgt>:
 8000b18:	f84d ed08 	str.w	lr, [sp, #-8]!
 8000b1c:	f7ff ffc4 	bl	8000aa8 <__aeabi_cdrcmple>
 8000b20:	bf34      	ite	cc
 8000b22:	2001      	movcc	r0, #1
 8000b24:	2000      	movcs	r0, #0
 8000b26:	f85d fb08 	ldr.w	pc, [sp], #8
 8000b2a:	bf00      	nop

08000b2c <__aeabi_dcmpun>:
 8000b2c:	ea4f 0c41 	mov.w	ip, r1, lsl #1
 8000b30:	ea7f 5c6c 	mvns.w	ip, ip, asr #21
 8000b34:	d102      	bne.n	8000b3c <__aeabi_dcmpun+0x10>
 8000b36:	ea50 3c01 	orrs.w	ip, r0, r1, lsl #12
 8000b3a:	d10a      	bne.n	8000b52 <__aeabi_dcmpun+0x26>
 8000b3c:	ea4f 0c43 	mov.w	ip, r3, lsl #1
 8000b40:	ea7f 5c6c 	mvns.w	ip, ip, asr #21
 8000b44:	d102      	bne.n	8000b4c <__aeabi_dcmpun+0x20>
 8000b46:	ea52 3c03 	orrs.w	ip, r2, r3, lsl #12
 8000b4a:	d102      	bne.n	8000b52 <__aeabi_dcmpun+0x26>
 8000b4c:	f04f 0000 	mov.w	r0, #0
 8000b50:	4770      	bx	lr
 8000b52:	f04f 0001 	mov.w	r0, #1
 8000b56:	4770      	bx	lr

08000b58 <__aeabi_d2iz>:
 8000b58:	ea4f 0241 	mov.w	r2, r1, lsl #1
 8000b5c:	f512 1200 	adds.w	r2, r2, #2097152	; 0x200000
 8000b60:	d215      	bcs.n	8000b8e <__aeabi_d2iz+0x36>
 8000b62:	d511      	bpl.n	8000b88 <__aeabi_d2iz+0x30>
 8000b64:	f46f 7378 	mvn.w	r3, #992	; 0x3e0
 8000b68:	ebb3 5262 	subs.w	r2, r3, r2, asr #21
 8000b6c:	d912      	bls.n	8000b94 <__aeabi_d2iz+0x3c>
 8000b6e:	ea4f 23c1 	mov.w	r3, r1, lsl #11
 8000b72:	f043 4300 	orr.w	r3, r3, #2147483648	; 0x80000000
 8000b76:	ea43 5350 	orr.w	r3, r3, r0, lsr #21
 8000b7a:	f011 4f00 	tst.w	r1, #2147483648	; 0x80000000
 8000b7e:	fa23 f002 	lsr.w	r0, r3, r2
 8000b82:	bf18      	it	ne
 8000b84:	4240      	negne	r0, r0
 8000b86:	4770      	bx	lr
 8000b88:	f04f 0000 	mov.w	r0, #0
 8000b8c:	4770      	bx	lr
 8000b8e:	ea50 3001 	orrs.w	r0, r0, r1, lsl #12
 8000b92:	d105      	bne.n	8000ba0 <__aeabi_d2iz+0x48>
 8000b94:	f011 4000 	ands.w	r0, r1, #2147483648	; 0x80000000
 8000b98:	bf08      	it	eq
 8000b9a:	f06f 4000 	mvneq.w	r0, #2147483648	; 0x80000000
 8000b9e:	4770      	bx	lr
 8000ba0:	f04f 0000 	mov.w	r0, #0
 8000ba4:	4770      	bx	lr
 8000ba6:	bf00      	nop

08000ba8 <__aeabi_uldivmod>:
 8000ba8:	b953      	cbnz	r3, 8000bc0 <__aeabi_uldivmod+0x18>
 8000baa:	b94a      	cbnz	r2, 8000bc0 <__aeabi_uldivmod+0x18>
 8000bac:	2900      	cmp	r1, #0
 8000bae:	bf08      	it	eq
 8000bb0:	2800      	cmpeq	r0, #0
 8000bb2:	bf1c      	itt	ne
 8000bb4:	f04f 31ff 	movne.w	r1, #4294967295
 8000bb8:	f04f 30ff 	movne.w	r0, #4294967295
 8000bbc:	f000 b972 	b.w	8000ea4 <__aeabi_idiv0>
 8000bc0:	f1ad 0c08 	sub.w	ip, sp, #8
 8000bc4:	e96d ce04 	strd	ip, lr, [sp, #-16]!
 8000bc8:	f000 f806 	bl	8000bd8 <__udivmoddi4>
 8000bcc:	f8dd e004 	ldr.w	lr, [sp, #4]
 8000bd0:	e9dd 2302 	ldrd	r2, r3, [sp, #8]
 8000bd4:	b004      	add	sp, #16
 8000bd6:	4770      	bx	lr

08000bd8 <__udivmoddi4>:
 8000bd8:	e92d 47f0 	stmdb	sp!, {r4, r5, r6, r7, r8, r9, sl, lr}
 8000bdc:	9e08      	ldr	r6, [sp, #32]
 8000bde:	4604      	mov	r4, r0
 8000be0:	4688      	mov	r8, r1
 8000be2:	2b00      	cmp	r3, #0
 8000be4:	d14b      	bne.n	8000c7e <__udivmoddi4+0xa6>
 8000be6:	428a      	cmp	r2, r1
 8000be8:	4615      	mov	r5, r2
 8000bea:	d967      	bls.n	8000cbc <__udivmoddi4+0xe4>
 8000bec:	fab2 f282 	clz	r2, r2
 8000bf0:	b14a      	cbz	r2, 8000c06 <__udivmoddi4+0x2e>
 8000bf2:	f1c2 0720 	rsb	r7, r2, #32
 8000bf6:	fa01 f302 	lsl.w	r3, r1, r2
 8000bfa:	fa20 f707 	lsr.w	r7, r0, r7
 8000bfe:	4095      	lsls	r5, r2
 8000c00:	ea47 0803 	orr.w	r8, r7, r3
 8000c04:	4094      	lsls	r4, r2
 8000c06:	ea4f 4e15 	mov.w	lr, r5, lsr #16
 8000c0a:	0c23      	lsrs	r3, r4, #16
 8000c0c:	fbb8 f7fe 	udiv	r7, r8, lr
 8000c10:	fa1f fc85 	uxth.w	ip, r5
 8000c14:	fb0e 8817 	mls	r8, lr, r7, r8
 8000c18:	ea43 4308 	orr.w	r3, r3, r8, lsl #16
 8000c1c:	fb07 f10c 	mul.w	r1, r7, ip
 8000c20:	4299      	cmp	r1, r3
 8000c22:	d909      	bls.n	8000c38 <__udivmoddi4+0x60>
 8000c24:	18eb      	adds	r3, r5, r3
 8000c26:	f107 30ff 	add.w	r0, r7, #4294967295
 8000c2a:	f080 811b 	bcs.w	8000e64 <__udivmoddi4+0x28c>
 8000c2e:	4299      	cmp	r1, r3
 8000c30:	f240 8118 	bls.w	8000e64 <__udivmoddi4+0x28c>
 8000c34:	3f02      	subs	r7, #2
 8000c36:	442b      	add	r3, r5
 8000c38:	1a5b      	subs	r3, r3, r1
 8000c3a:	b2a4      	uxth	r4, r4
 8000c3c:	fbb3 f0fe 	udiv	r0, r3, lr
 8000c40:	fb0e 3310 	mls	r3, lr, r0, r3
 8000c44:	ea44 4403 	orr.w	r4, r4, r3, lsl #16
 8000c48:	fb00 fc0c 	mul.w	ip, r0, ip
 8000c4c:	45a4      	cmp	ip, r4
 8000c4e:	d909      	bls.n	8000c64 <__udivmoddi4+0x8c>
 8000c50:	192c      	adds	r4, r5, r4
 8000c52:	f100 33ff 	add.w	r3, r0, #4294967295
 8000c56:	f080 8107 	bcs.w	8000e68 <__udivmoddi4+0x290>
 8000c5a:	45a4      	cmp	ip, r4
 8000c5c:	f240 8104 	bls.w	8000e68 <__udivmoddi4+0x290>
 8000c60:	3802      	subs	r0, #2
 8000c62:	442c      	add	r4, r5
 8000c64:	ea40 4007 	orr.w	r0, r0, r7, lsl #16
 8000c68:	eba4 040c 	sub.w	r4, r4, ip
 8000c6c:	2700      	movs	r7, #0
 8000c6e:	b11e      	cbz	r6, 8000c78 <__udivmoddi4+0xa0>
 8000c70:	40d4      	lsrs	r4, r2
 8000c72:	2300      	movs	r3, #0
 8000c74:	e9c6 4300 	strd	r4, r3, [r6]
 8000c78:	4639      	mov	r1, r7
 8000c7a:	e8bd 87f0 	ldmia.w	sp!, {r4, r5, r6, r7, r8, r9, sl, pc}
 8000c7e:	428b      	cmp	r3, r1
 8000c80:	d909      	bls.n	8000c96 <__udivmoddi4+0xbe>
 8000c82:	2e00      	cmp	r6, #0
 8000c84:	f000 80eb 	beq.w	8000e5e <__udivmoddi4+0x286>
 8000c88:	2700      	movs	r7, #0
 8000c8a:	e9c6 0100 	strd	r0, r1, [r6]
 8000c8e:	4638      	mov	r0, r7
 8000c90:	4639      	mov	r1, r7
 8000c92:	e8bd 87f0 	ldmia.w	sp!, {r4, r5, r6, r7, r8, r9, sl, pc}
 8000c96:	fab3 f783 	clz	r7, r3
 8000c9a:	2f00      	cmp	r7, #0
 8000c9c:	d147      	bne.n	8000d2e <__udivmoddi4+0x156>
 8000c9e:	428b      	cmp	r3, r1
 8000ca0:	d302      	bcc.n	8000ca8 <__udivmoddi4+0xd0>
 8000ca2:	4282      	cmp	r2, r0
 8000ca4:	f200 80fa 	bhi.w	8000e9c <__udivmoddi4+0x2c4>
 8000ca8:	1a84      	subs	r4, r0, r2
 8000caa:	eb61 0303 	sbc.w	r3, r1, r3
 8000cae:	2001      	movs	r0, #1
 8000cb0:	4698      	mov	r8, r3
 8000cb2:	2e00      	cmp	r6, #0
 8000cb4:	d0e0      	beq.n	8000c78 <__udivmoddi4+0xa0>
 8000cb6:	e9c6 4800 	strd	r4, r8, [r6]
 8000cba:	e7dd      	b.n	8000c78 <__udivmoddi4+0xa0>
 8000cbc:	b902      	cbnz	r2, 8000cc0 <__udivmoddi4+0xe8>
 8000cbe:	deff      	udf	#255	; 0xff
 8000cc0:	fab2 f282 	clz	r2, r2
 8000cc4:	2a00      	cmp	r2, #0
 8000cc6:	f040 808f 	bne.w	8000de8 <__udivmoddi4+0x210>
 8000cca:	1b49      	subs	r1, r1, r5
 8000ccc:	ea4f 4e15 	mov.w	lr, r5, lsr #16
 8000cd0:	fa1f f885 	uxth.w	r8, r5
 8000cd4:	2701      	movs	r7, #1
 8000cd6:	fbb1 fcfe 	udiv	ip, r1, lr
 8000cda:	0c23      	lsrs	r3, r4, #16
 8000cdc:	fb0e 111c 	mls	r1, lr, ip, r1
 8000ce0:	ea43 4301 	orr.w	r3, r3, r1, lsl #16
 8000ce4:	fb08 f10c 	mul.w	r1, r8, ip
 8000ce8:	4299      	cmp	r1, r3
 8000cea:	d907      	bls.n	8000cfc <__udivmoddi4+0x124>
 8000cec:	18eb      	adds	r3, r5, r3
 8000cee:	f10c 30ff 	add.w	r0, ip, #4294967295
 8000cf2:	d202      	bcs.n	8000cfa <__udivmoddi4+0x122>
 8000cf4:	4299      	cmp	r1, r3
 8000cf6:	f200 80cd 	bhi.w	8000e94 <__udivmoddi4+0x2bc>
 8000cfa:	4684      	mov	ip, r0
 8000cfc:	1a59      	subs	r1, r3, r1
 8000cfe:	b2a3      	uxth	r3, r4
 8000d00:	fbb1 f0fe 	udiv	r0, r1, lr
 8000d04:	fb0e 1410 	mls	r4, lr, r0, r1
 8000d08:	ea43 4404 	orr.w	r4, r3, r4, lsl #16
 8000d0c:	fb08 f800 	mul.w	r8, r8, r0
 8000d10:	45a0      	cmp	r8, r4
 8000d12:	d907      	bls.n	8000d24 <__udivmoddi4+0x14c>
 8000d14:	192c      	adds	r4, r5, r4
 8000d16:	f100 33ff 	add.w	r3, r0, #4294967295
 8000d1a:	d202      	bcs.n	8000d22 <__udivmoddi4+0x14a>
 8000d1c:	45a0      	cmp	r8, r4
 8000d1e:	f200 80b6 	bhi.w	8000e8e <__udivmoddi4+0x2b6>
 8000d22:	4618      	mov	r0, r3
 8000d24:	eba4 0408 	sub.w	r4, r4, r8
 8000d28:	ea40 400c 	orr.w	r0, r0, ip, lsl #16
 8000d2c:	e79f      	b.n	8000c6e <__udivmoddi4+0x96>
 8000d2e:	f1c7 0c20 	rsb	ip, r7, #32
 8000d32:	40bb      	lsls	r3, r7
 8000d34:	fa22 fe0c 	lsr.w	lr, r2, ip
 8000d38:	ea4e 0e03 	orr.w	lr, lr, r3
 8000d3c:	fa01 f407 	lsl.w	r4, r1, r7
 8000d40:	fa20 f50c 	lsr.w	r5, r0, ip
 8000d44:	fa21 f30c 	lsr.w	r3, r1, ip
 8000d48:	ea4f 481e 	mov.w	r8, lr, lsr #16
 8000d4c:	4325      	orrs	r5, r4
 8000d4e:	fbb3 f9f8 	udiv	r9, r3, r8
 8000d52:	0c2c      	lsrs	r4, r5, #16
 8000d54:	fb08 3319 	mls	r3, r8, r9, r3
 8000d58:	fa1f fa8e 	uxth.w	sl, lr
 8000d5c:	ea44 4303 	orr.w	r3, r4, r3, lsl #16
 8000d60:	fb09 f40a 	mul.w	r4, r9, sl
 8000d64:	429c      	cmp	r4, r3
 8000d66:	fa02 f207 	lsl.w	r2, r2, r7
 8000d6a:	fa00 f107 	lsl.w	r1, r0, r7
 8000d6e:	d90b      	bls.n	8000d88 <__udivmoddi4+0x1b0>
 8000d70:	eb1e 0303 	adds.w	r3, lr, r3
 8000d74:	f109 30ff 	add.w	r0, r9, #4294967295
 8000d78:	f080 8087 	bcs.w	8000e8a <__udivmoddi4+0x2b2>
 8000d7c:	429c      	cmp	r4, r3
 8000d7e:	f240 8084 	bls.w	8000e8a <__udivmoddi4+0x2b2>
 8000d82:	f1a9 0902 	sub.w	r9, r9, #2
 8000d86:	4473      	add	r3, lr
 8000d88:	1b1b      	subs	r3, r3, r4
 8000d8a:	b2ad      	uxth	r5, r5
 8000d8c:	fbb3 f0f8 	udiv	r0, r3, r8
 8000d90:	fb08 3310 	mls	r3, r8, r0, r3
 8000d94:	ea45 4403 	orr.w	r4, r5, r3, lsl #16
 8000d98:	fb00 fa0a 	mul.w	sl, r0, sl
 8000d9c:	45a2      	cmp	sl, r4
 8000d9e:	d908      	bls.n	8000db2 <__udivmoddi4+0x1da>
 8000da0:	eb1e 0404 	adds.w	r4, lr, r4
 8000da4:	f100 33ff 	add.w	r3, r0, #4294967295
 8000da8:	d26b      	bcs.n	8000e82 <__udivmoddi4+0x2aa>
 8000daa:	45a2      	cmp	sl, r4
 8000dac:	d969      	bls.n	8000e82 <__udivmoddi4+0x2aa>
 8000dae:	3802      	subs	r0, #2
 8000db0:	4474      	add	r4, lr
 8000db2:	ea40 4009 	orr.w	r0, r0, r9, lsl #16
 8000db6:	fba0 8902 	umull	r8, r9, r0, r2
 8000dba:	eba4 040a 	sub.w	r4, r4, sl
 8000dbe:	454c      	cmp	r4, r9
 8000dc0:	46c2      	mov	sl, r8
 8000dc2:	464b      	mov	r3, r9
 8000dc4:	d354      	bcc.n	8000e70 <__udivmoddi4+0x298>
 8000dc6:	d051      	beq.n	8000e6c <__udivmoddi4+0x294>
 8000dc8:	2e00      	cmp	r6, #0
 8000dca:	d069      	beq.n	8000ea0 <__udivmoddi4+0x2c8>
 8000dcc:	ebb1 050a 	subs.w	r5, r1, sl
 8000dd0:	eb64 0403 	sbc.w	r4, r4, r3
 8000dd4:	fa04 fc0c 	lsl.w	ip, r4, ip
 8000dd8:	40fd      	lsrs	r5, r7
 8000dda:	40fc      	lsrs	r4, r7
 8000ddc:	ea4c 0505 	orr.w	r5, ip, r5
 8000de0:	e9c6 5400 	strd	r5, r4, [r6]
 8000de4:	2700      	movs	r7, #0
 8000de6:	e747      	b.n	8000c78 <__udivmoddi4+0xa0>
 8000de8:	f1c2 0320 	rsb	r3, r2, #32
 8000dec:	fa20 f703 	lsr.w	r7, r0, r3
 8000df0:	4095      	lsls	r5, r2
 8000df2:	fa01 f002 	lsl.w	r0, r1, r2
 8000df6:	fa21 f303 	lsr.w	r3, r1, r3
 8000dfa:	ea4f 4e15 	mov.w	lr, r5, lsr #16
 8000dfe:	4338      	orrs	r0, r7
 8000e00:	0c01      	lsrs	r1, r0, #16
 8000e02:	fbb3 f7fe 	udiv	r7, r3, lr
 8000e06:	fa1f f885 	uxth.w	r8, r5
 8000e0a:	fb0e 3317 	mls	r3, lr, r7, r3
 8000e0e:	ea41 4103 	orr.w	r1, r1, r3, lsl #16
 8000e12:	fb07 f308 	mul.w	r3, r7, r8
 8000e16:	428b      	cmp	r3, r1
 8000e18:	fa04 f402 	lsl.w	r4, r4, r2
 8000e1c:	d907      	bls.n	8000e2e <__udivmoddi4+0x256>
 8000e1e:	1869      	adds	r1, r5, r1
 8000e20:	f107 3cff 	add.w	ip, r7, #4294967295
 8000e24:	d22f      	bcs.n	8000e86 <__udivmoddi4+0x2ae>
 8000e26:	428b      	cmp	r3, r1
 8000e28:	d92d      	bls.n	8000e86 <__udivmoddi4+0x2ae>
 8000e2a:	3f02      	subs	r7, #2
 8000e2c:	4429      	add	r1, r5
 8000e2e:	1acb      	subs	r3, r1, r3
 8000e30:	b281      	uxth	r1, r0
 8000e32:	fbb3 f0fe 	udiv	r0, r3, lr
 8000e36:	fb0e 3310 	mls	r3, lr, r0, r3
 8000e3a:	ea41 4103 	orr.w	r1, r1, r3, lsl #16
 8000e3e:	fb00 f308 	mul.w	r3, r0, r8
 8000e42:	428b      	cmp	r3, r1
 8000e44:	d907      	bls.n	8000e56 <__udivmoddi4+0x27e>
 8000e46:	1869      	adds	r1, r5, r1
 8000e48:	f100 3cff 	add.w	ip, r0, #4294967295
 8000e4c:	d217      	bcs.n	8000e7e <__udivmoddi4+0x2a6>
 8000e4e:	428b      	cmp	r3, r1
 8000e50:	d915      	bls.n	8000e7e <__udivmoddi4+0x2a6>
 8000e52:	3802      	subs	r0, #2
 8000e54:	4429      	add	r1, r5
 8000e56:	1ac9      	subs	r1, r1, r3
 8000e58:	ea40 4707 	orr.w	r7, r0, r7, lsl #16
 8000e5c:	e73b      	b.n	8000cd6 <__udivmoddi4+0xfe>
 8000e5e:	4637      	mov	r7, r6
 8000e60:	4630      	mov	r0, r6
 8000e62:	e709      	b.n	8000c78 <__udivmoddi4+0xa0>
 8000e64:	4607      	mov	r7, r0
 8000e66:	e6e7      	b.n	8000c38 <__udivmoddi4+0x60>
 8000e68:	4618      	mov	r0, r3
 8000e6a:	e6fb      	b.n	8000c64 <__udivmoddi4+0x8c>
 8000e6c:	4541      	cmp	r1, r8
 8000e6e:	d2ab      	bcs.n	8000dc8 <__udivmoddi4+0x1f0>
 8000e70:	ebb8 0a02 	subs.w	sl, r8, r2
 8000e74:	eb69 020e 	sbc.w	r2, r9, lr
 8000e78:	3801      	subs	r0, #1
 8000e7a:	4613      	mov	r3, r2
 8000e7c:	e7a4      	b.n	8000dc8 <__udivmoddi4+0x1f0>
 8000e7e:	4660      	mov	r0, ip
 8000e80:	e7e9      	b.n	8000e56 <__udivmoddi4+0x27e>
 8000e82:	4618      	mov	r0, r3
 8000e84:	e795      	b.n	8000db2 <__udivmoddi4+0x1da>
 8000e86:	4667      	mov	r7, ip
 8000e88:	e7d1      	b.n	8000e2e <__udivmoddi4+0x256>
 8000e8a:	4681      	mov	r9, r0
 8000e8c:	e77c      	b.n	8000d88 <__udivmoddi4+0x1b0>
 8000e8e:	3802      	subs	r0, #2
 8000e90:	442c      	add	r4, r5
 8000e92:	e747      	b.n	8000d24 <__udivmoddi4+0x14c>
 8000e94:	f1ac 0c02 	sub.w	ip, ip, #2
 8000e98:	442b      	add	r3, r5
 8000e9a:	e72f      	b.n	8000cfc <__udivmoddi4+0x124>
 8000e9c:	4638      	mov	r0, r7
 8000e9e:	e708      	b.n	8000cb2 <__udivmoddi4+0xda>
 8000ea0:	4637      	mov	r7, r6
 8000ea2:	e6e9      	b.n	8000c78 <__udivmoddi4+0xa0>

08000ea4 <__aeabi_idiv0>:
 8000ea4:	4770      	bx	lr
 8000ea6:	bf00      	nop

08000ea8 <LL_SPI_Enable>:
  * @rmtoll CR1          SPE           LL_SPI_Enable
  * @param  SPIx SPI Instance
  * @retval None
  */
__STATIC_INLINE void LL_SPI_Enable(SPI_TypeDef *SPIx)
{
 8000ea8:	b480      	push	{r7}
 8000eaa:	b083      	sub	sp, #12
 8000eac:	af00      	add	r7, sp, #0
 8000eae:	6078      	str	r0, [r7, #4]
  SET_BIT(SPIx->CR1, SPI_CR1_SPE);
 8000eb0:	687b      	ldr	r3, [r7, #4]
 8000eb2:	681b      	ldr	r3, [r3, #0]
 8000eb4:	f043 0240 	orr.w	r2, r3, #64	; 0x40
 8000eb8:	687b      	ldr	r3, [r7, #4]
 8000eba:	601a      	str	r2, [r3, #0]
}
 8000ebc:	bf00      	nop
 8000ebe:	370c      	adds	r7, #12
 8000ec0:	46bd      	mov	sp, r7
 8000ec2:	f85d 7b04 	ldr.w	r7, [sp], #4
 8000ec6:	4770      	bx	lr

08000ec8 <LL_SPI_SetStandard>:
  *         @arg @ref LL_SPI_PROTOCOL_MOTOROLA
  *         @arg @ref LL_SPI_PROTOCOL_TI
  * @retval None
  */
__STATIC_INLINE void LL_SPI_SetStandard(SPI_TypeDef *SPIx, uint32_t Standard)
{
 8000ec8:	b480      	push	{r7}
 8000eca:	b083      	sub	sp, #12
 8000ecc:	af00      	add	r7, sp, #0
 8000ece:	6078      	str	r0, [r7, #4]
 8000ed0:	6039      	str	r1, [r7, #0]
  MODIFY_REG(SPIx->CR2, SPI_CR2_FRF, Standard);
 8000ed2:	687b      	ldr	r3, [r7, #4]
 8000ed4:	685b      	ldr	r3, [r3, #4]
 8000ed6:	f023 0210 	bic.w	r2, r3, #16
 8000eda:	683b      	ldr	r3, [r7, #0]
 8000edc:	431a      	orrs	r2, r3
 8000ede:	687b      	ldr	r3, [r7, #4]
 8000ee0:	605a      	str	r2, [r3, #4]
}
 8000ee2:	bf00      	nop
 8000ee4:	370c      	adds	r7, #12
 8000ee6:	46bd      	mov	sp, r7
 8000ee8:	f85d 7b04 	ldr.w	r7, [sp], #4
 8000eec:	4770      	bx	lr

08000eee <LL_SPI_IsActiveFlag_RXNE>:
  * @rmtoll SR           RXNE          LL_SPI_IsActiveFlag_RXNE
  * @param  SPIx SPI Instance
  * @retval State of bit (1 or 0).
  */
__STATIC_INLINE uint32_t LL_SPI_IsActiveFlag_RXNE(SPI_TypeDef *SPIx)
{
 8000eee:	b480      	push	{r7}
 8000ef0:	b083      	sub	sp, #12
 8000ef2:	af00      	add	r7, sp, #0
 8000ef4:	6078      	str	r0, [r7, #4]
  return ((READ_BIT(SPIx->SR, SPI_SR_RXNE) == (SPI_SR_RXNE)) ? 1UL : 0UL);
 8000ef6:	687b      	ldr	r3, [r7, #4]
 8000ef8:	689b      	ldr	r3, [r3, #8]
 8000efa:	f003 0301 	and.w	r3, r3, #1
 8000efe:	2b01      	cmp	r3, #1
 8000f00:	d101      	bne.n	8000f06 <LL_SPI_IsActiveFlag_RXNE+0x18>
 8000f02:	2301      	movs	r3, #1
 8000f04:	e000      	b.n	8000f08 <LL_SPI_IsActiveFlag_RXNE+0x1a>
 8000f06:	2300      	movs	r3, #0
}
 8000f08:	4618      	mov	r0, r3
 8000f0a:	370c      	adds	r7, #12
 8000f0c:	46bd      	mov	sp, r7
 8000f0e:	f85d 7b04 	ldr.w	r7, [sp], #4
 8000f12:	4770      	bx	lr

08000f14 <LL_SPI_IsActiveFlag_TXE>:
  * @rmtoll SR           TXE           LL_SPI_IsActiveFlag_TXE
  * @param  SPIx SPI Instance
  * @retval State of bit (1 or 0).
  */
__STATIC_INLINE uint32_t LL_SPI_IsActiveFlag_TXE(SPI_TypeDef *SPIx)
{
 8000f14:	b480      	push	{r7}
 8000f16:	b083      	sub	sp, #12
 8000f18:	af00      	add	r7, sp, #0
 8000f1a:	6078      	str	r0, [r7, #4]
  return ((READ_BIT(SPIx->SR, SPI_SR_TXE) == (SPI_SR_TXE)) ? 1UL : 0UL);
 8000f1c:	687b      	ldr	r3, [r7, #4]
 8000f1e:	689b      	ldr	r3, [r3, #8]
 8000f20:	f003 0302 	and.w	r3, r3, #2
 8000f24:	2b02      	cmp	r3, #2
 8000f26:	d101      	bne.n	8000f2c <LL_SPI_IsActiveFlag_TXE+0x18>
 8000f28:	2301      	movs	r3, #1
 8000f2a:	e000      	b.n	8000f2e <LL_SPI_IsActiveFlag_TXE+0x1a>
 8000f2c:	2300      	movs	r3, #0
}
 8000f2e:	4618      	mov	r0, r3
 8000f30:	370c      	adds	r7, #12
 8000f32:	46bd      	mov	sp, r7
 8000f34:	f85d 7b04 	ldr.w	r7, [sp], #4
 8000f38:	4770      	bx	lr

08000f3a <LL_SPI_ReceiveData8>:
  * @rmtoll DR           DR            LL_SPI_ReceiveData8
  * @param  SPIx SPI Instance
  * @retval RxData Value between Min_Data=0x00 and Max_Data=0xFF
  */
__STATIC_INLINE uint8_t LL_SPI_ReceiveData8(SPI_TypeDef *SPIx)
{
 8000f3a:	b480      	push	{r7}
 8000f3c:	b083      	sub	sp, #12
 8000f3e:	af00      	add	r7, sp, #0
 8000f40:	6078      	str	r0, [r7, #4]
  return (uint8_t)(READ_REG(SPIx->DR));
 8000f42:	687b      	ldr	r3, [r7, #4]
 8000f44:	68db      	ldr	r3, [r3, #12]
 8000f46:	b2db      	uxtb	r3, r3
}
 8000f48:	4618      	mov	r0, r3
 8000f4a:	370c      	adds	r7, #12
 8000f4c:	46bd      	mov	sp, r7
 8000f4e:	f85d 7b04 	ldr.w	r7, [sp], #4
 8000f52:	4770      	bx	lr

08000f54 <LL_SPI_TransmitData8>:
  * @param  SPIx SPI Instance
  * @param  TxData Value between Min_Data=0x00 and Max_Data=0xFF
  * @retval None
  */
__STATIC_INLINE void LL_SPI_TransmitData8(SPI_TypeDef *SPIx, uint8_t TxData)
{
 8000f54:	b480      	push	{r7}
 8000f56:	b085      	sub	sp, #20
 8000f58:	af00      	add	r7, sp, #0
 8000f5a:	6078      	str	r0, [r7, #4]
 8000f5c:	460b      	mov	r3, r1
 8000f5e:	70fb      	strb	r3, [r7, #3]
#if defined (__GNUC__)
  __IO uint8_t *spidr = ((__IO uint8_t *)&SPIx->DR);
 8000f60:	687b      	ldr	r3, [r7, #4]
 8000f62:	330c      	adds	r3, #12
 8000f64:	60fb      	str	r3, [r7, #12]
  *spidr = TxData;
 8000f66:	68fb      	ldr	r3, [r7, #12]
 8000f68:	78fa      	ldrb	r2, [r7, #3]
 8000f6a:	701a      	strb	r2, [r3, #0]
#else
  *((__IO uint8_t *)&SPIx->DR) = TxData;
#endif /* __GNUC__ */
}
 8000f6c:	bf00      	nop
 8000f6e:	3714      	adds	r7, #20
 8000f70:	46bd      	mov	sp, r7
 8000f72:	f85d 7b04 	ldr.w	r7, [sp], #4
 8000f76:	4770      	bx	lr

08000f78 <LL_GPIO_IsInputPinSet>:
  *         @arg @ref LL_GPIO_PIN_15
  *         @arg @ref LL_GPIO_PIN_ALL
  * @retval State of bit (1 or 0).
  */
__STATIC_INLINE uint32_t LL_GPIO_IsInputPinSet(GPIO_TypeDef *GPIOx, uint32_t PinMask)
{
 8000f78:	b480      	push	{r7}
 8000f7a:	b083      	sub	sp, #12
 8000f7c:	af00      	add	r7, sp, #0
 8000f7e:	6078      	str	r0, [r7, #4]
 8000f80:	6039      	str	r1, [r7, #0]
  return (READ_BIT(GPIOx->IDR, PinMask) == (PinMask));
 8000f82:	687b      	ldr	r3, [r7, #4]
 8000f84:	691a      	ldr	r2, [r3, #16]
 8000f86:	683b      	ldr	r3, [r7, #0]
 8000f88:	4013      	ands	r3, r2
 8000f8a:	683a      	ldr	r2, [r7, #0]
 8000f8c:	429a      	cmp	r2, r3
 8000f8e:	bf0c      	ite	eq
 8000f90:	2301      	moveq	r3, #1
 8000f92:	2300      	movne	r3, #0
 8000f94:	b2db      	uxtb	r3, r3
}
 8000f96:	4618      	mov	r0, r3
 8000f98:	370c      	adds	r7, #12
 8000f9a:	46bd      	mov	sp, r7
 8000f9c:	f85d 7b04 	ldr.w	r7, [sp], #4
 8000fa0:	4770      	bx	lr

08000fa2 <LL_GPIO_SetOutputPin>:
  *         @arg @ref LL_GPIO_PIN_15
  *         @arg @ref LL_GPIO_PIN_ALL
  * @retval None
  */
__STATIC_INLINE void LL_GPIO_SetOutputPin(GPIO_TypeDef *GPIOx, uint32_t PinMask)
{
 8000fa2:	b480      	push	{r7}
 8000fa4:	b083      	sub	sp, #12
 8000fa6:	af00      	add	r7, sp, #0
 8000fa8:	6078      	str	r0, [r7, #4]
 8000faa:	6039      	str	r1, [r7, #0]
  WRITE_REG(GPIOx->BSRR, PinMask);
 8000fac:	687b      	ldr	r3, [r7, #4]
 8000fae:	683a      	ldr	r2, [r7, #0]
 8000fb0:	619a      	str	r2, [r3, #24]
}
 8000fb2:	bf00      	nop
 8000fb4:	370c      	adds	r7, #12
 8000fb6:	46bd      	mov	sp, r7
 8000fb8:	f85d 7b04 	ldr.w	r7, [sp], #4
 8000fbc:	4770      	bx	lr

08000fbe <LL_GPIO_ResetOutputPin>:
  *         @arg @ref LL_GPIO_PIN_15
  *         @arg @ref LL_GPIO_PIN_ALL
  * @retval None
  */
__STATIC_INLINE void LL_GPIO_ResetOutputPin(GPIO_TypeDef *GPIOx, uint32_t PinMask)
{
 8000fbe:	b480      	push	{r7}
 8000fc0:	b083      	sub	sp, #12
 8000fc2:	af00      	add	r7, sp, #0
 8000fc4:	6078      	str	r0, [r7, #4]
 8000fc6:	6039      	str	r1, [r7, #0]
  WRITE_REG(GPIOx->BSRR, (PinMask << 16));
 8000fc8:	683b      	ldr	r3, [r7, #0]
 8000fca:	041a      	lsls	r2, r3, #16
 8000fcc:	687b      	ldr	r3, [r7, #4]
 8000fce:	619a      	str	r2, [r3, #24]
}
 8000fd0:	bf00      	nop
 8000fd2:	370c      	adds	r7, #12
 8000fd4:	46bd      	mov	sp, r7
 8000fd6:	f85d 7b04 	ldr.w	r7, [sp], #4
 8000fda:	4770      	bx	lr

08000fdc <LL_AHB1_GRP1_EnableClock>:
  *
  *         (*) value not defined in all devices.
  * @retval None
*/
__STATIC_INLINE void LL_AHB1_GRP1_EnableClock(uint32_t Periphs)
{
 8000fdc:	b480      	push	{r7}
 8000fde:	b085      	sub	sp, #20
 8000fe0:	af00      	add	r7, sp, #0
 8000fe2:	6078      	str	r0, [r7, #4]
  __IO uint32_t tmpreg;
  SET_BIT(RCC->AHB1ENR, Periphs);
 8000fe4:	4b08      	ldr	r3, [pc, #32]	; (8001008 <LL_AHB1_GRP1_EnableClock+0x2c>)
 8000fe6:	6b1a      	ldr	r2, [r3, #48]	; 0x30
 8000fe8:	4907      	ldr	r1, [pc, #28]	; (8001008 <LL_AHB1_GRP1_EnableClock+0x2c>)
 8000fea:	687b      	ldr	r3, [r7, #4]
 8000fec:	4313      	orrs	r3, r2
 8000fee:	630b      	str	r3, [r1, #48]	; 0x30
  /* Delay after an RCC peripheral clock enabling */
  tmpreg = READ_BIT(RCC->AHB1ENR, Periphs);
 8000ff0:	4b05      	ldr	r3, [pc, #20]	; (8001008 <LL_AHB1_GRP1_EnableClock+0x2c>)
 8000ff2:	6b1a      	ldr	r2, [r3, #48]	; 0x30
 8000ff4:	687b      	ldr	r3, [r7, #4]
 8000ff6:	4013      	ands	r3, r2
 8000ff8:	60fb      	str	r3, [r7, #12]
  (void)tmpreg;
 8000ffa:	68fb      	ldr	r3, [r7, #12]
}
 8000ffc:	bf00      	nop
 8000ffe:	3714      	adds	r7, #20
 8001000:	46bd      	mov	sp, r7
 8001002:	f85d 7b04 	ldr.w	r7, [sp], #4
 8001006:	4770      	bx	lr
 8001008:	40023800 	.word	0x40023800

0800100c <LL_APB1_GRP1_EnableClock>:
  *
  *         (*) value not defined in all devices.
  * @retval None
*/
__STATIC_INLINE void LL_APB1_GRP1_EnableClock(uint32_t Periphs)
{
 800100c:	b480      	push	{r7}
 800100e:	b085      	sub	sp, #20
 8001010:	af00      	add	r7, sp, #0
 8001012:	6078      	str	r0, [r7, #4]
  __IO uint32_t tmpreg;
  SET_BIT(RCC->APB1ENR, Periphs);
 8001014:	4b08      	ldr	r3, [pc, #32]	; (8001038 <LL_APB1_GRP1_EnableClock+0x2c>)
 8001016:	6c1a      	ldr	r2, [r3, #64]	; 0x40
 8001018:	4907      	ldr	r1, [pc, #28]	; (8001038 <LL_APB1_GRP1_EnableClock+0x2c>)
 800101a:	687b      	ldr	r3, [r7, #4]
 800101c:	4313      	orrs	r3, r2
 800101e:	640b      	str	r3, [r1, #64]	; 0x40
  /* Delay after an RCC peripheral clock enabling */
  tmpreg = READ_BIT(RCC->APB1ENR, Periphs);
 8001020:	4b05      	ldr	r3, [pc, #20]	; (8001038 <LL_APB1_GRP1_EnableClock+0x2c>)
 8001022:	6c1a      	ldr	r2, [r3, #64]	; 0x40
 8001024:	687b      	ldr	r3, [r7, #4]
 8001026:	4013      	ands	r3, r2
 8001028:	60fb      	str	r3, [r7, #12]
  (void)tmpreg;
 800102a:	68fb      	ldr	r3, [r7, #12]
}
 800102c:	bf00      	nop
 800102e:	3714      	adds	r7, #20
 8001030:	46bd      	mov	sp, r7
 8001032:	f85d 7b04 	ldr.w	r7, [sp], #4
 8001036:	4770      	bx	lr
 8001038:	40023800 	.word	0x40023800

0800103c <BNO080_GPIO_SPI_Initialization>:
int16_t gyro_Q1 = 9;
int16_t magnetometer_Q1 = 4;


void BNO080_GPIO_SPI_Initialization(void)
{
 800103c:	b580      	push	{r7, lr}
 800103e:	b090      	sub	sp, #64	; 0x40
 8001040:	af00      	add	r7, sp, #0
	LL_SPI_InitTypeDef SPI_InitStruct = {0};
 8001042:	f107 0318 	add.w	r3, r7, #24
 8001046:	2228      	movs	r2, #40	; 0x28
 8001048:	2100      	movs	r1, #0
 800104a:	4618      	mov	r0, r3
 800104c:	f004 f93a 	bl	80052c4 <memset>
	
	LL_GPIO_InitTypeDef GPIO_InitStruct = {0};
 8001050:	463b      	mov	r3, r7
 8001052:	2200      	movs	r2, #0
 8001054:	601a      	str	r2, [r3, #0]
 8001056:	605a      	str	r2, [r3, #4]
 8001058:	609a      	str	r2, [r3, #8]
 800105a:	60da      	str	r2, [r3, #12]
 800105c:	611a      	str	r2, [r3, #16]
 800105e:	615a      	str	r2, [r3, #20]
	/* Peripheral clock enable */
	LL_APB1_GRP1_EnableClock(LL_APB1_GRP1_PERIPH_SPI2);
 8001060:	f44f 4080 	mov.w	r0, #16384	; 0x4000
 8001064:	f7ff ffd2 	bl	800100c <LL_APB1_GRP1_EnableClock>
	
	LL_AHB1_GRP1_EnableClock(LL_AHB1_GRP1_PERIPH_GPIOB);
 8001068:	2002      	movs	r0, #2
 800106a:	f7ff ffb7 	bl	8000fdc <LL_AHB1_GRP1_EnableClock>
	LL_AHB1_GRP1_EnableClock(LL_AHB1_GRP1_PERIPH_GPIOC);
 800106e:	2004      	movs	r0, #4
 8001070:	f7ff ffb4 	bl	8000fdc <LL_AHB1_GRP1_EnableClock>
	LL_AHB1_GRP1_EnableClock(LL_AHB1_GRP1_PERIPH_GPIOA);
 8001074:	2001      	movs	r0, #1
 8001076:	f7ff ffb1 	bl	8000fdc <LL_AHB1_GRP1_EnableClock>
	/**SPI2 GPIO Configuration
	PB13   ------> SPI2_SCK
	PB14   ------> SPI2_MISO
	PB15   ------> SPI2_MOSI
	*/
	GPIO_InitStruct.Pin = LL_GPIO_PIN_13|LL_GPIO_PIN_14|LL_GPIO_PIN_15;
 800107a:	f44f 4360 	mov.w	r3, #57344	; 0xe000
 800107e:	603b      	str	r3, [r7, #0]
	GPIO_InitStruct.Mode = LL_GPIO_MODE_ALTERNATE;
 8001080:	2302      	movs	r3, #2
 8001082:	607b      	str	r3, [r7, #4]
	GPIO_InitStruct.Speed = LL_GPIO_SPEED_FREQ_VERY_HIGH;
 8001084:	2303      	movs	r3, #3
 8001086:	60bb      	str	r3, [r7, #8]
	GPIO_InitStruct.OutputType = LL_GPIO_OUTPUT_PUSHPULL;
 8001088:	2300      	movs	r3, #0
 800108a:	60fb      	str	r3, [r7, #12]
	GPIO_InitStruct.Pull = LL_GPIO_PULL_NO;
 800108c:	2300      	movs	r3, #0
 800108e:	613b      	str	r3, [r7, #16]
	GPIO_InitStruct.Alternate = LL_GPIO_AF_5;
 8001090:	2305      	movs	r3, #5
 8001092:	617b      	str	r3, [r7, #20]
	LL_GPIO_Init(GPIOB, &GPIO_InitStruct);
 8001094:	463b      	mov	r3, r7
 8001096:	4619      	mov	r1, r3
 8001098:	4841      	ldr	r0, [pc, #260]	; (80011a0 <BNO080_GPIO_SPI_Initialization+0x164>)
 800109a:	f003 f97d 	bl	8004398 <LL_GPIO_Init>
	
	SPI_InitStruct.TransferDirection = LL_SPI_FULL_DUPLEX;
 800109e:	2300      	movs	r3, #0
 80010a0:	61bb      	str	r3, [r7, #24]
	SPI_InitStruct.Mode = LL_SPI_MODE_MASTER;
 80010a2:	f44f 7382 	mov.w	r3, #260	; 0x104
 80010a6:	61fb      	str	r3, [r7, #28]
	SPI_InitStruct.DataWidth = LL_SPI_DATAWIDTH_8BIT;
 80010a8:	2300      	movs	r3, #0
 80010aa:	623b      	str	r3, [r7, #32]
	SPI_InitStruct.ClockPolarity = LL_SPI_POLARITY_HIGH;
 80010ac:	2302      	movs	r3, #2
 80010ae:	627b      	str	r3, [r7, #36]	; 0x24
	SPI_InitStruct.ClockPhase = LL_SPI_PHASE_2EDGE;
 80010b0:	2301      	movs	r3, #1
 80010b2:	62bb      	str	r3, [r7, #40]	; 0x28
	SPI_InitStruct.NSS = LL_SPI_NSS_SOFT;
 80010b4:	f44f 7300 	mov.w	r3, #512	; 0x200
 80010b8:	62fb      	str	r3, [r7, #44]	; 0x2c
	SPI_InitStruct.BaudRate = LL_SPI_BAUDRATEPRESCALER_DIV16;
 80010ba:	2318      	movs	r3, #24
 80010bc:	633b      	str	r3, [r7, #48]	; 0x30
	SPI_InitStruct.BitOrder = LL_SPI_MSB_FIRST;
 80010be:	2300      	movs	r3, #0
 80010c0:	637b      	str	r3, [r7, #52]	; 0x34
	SPI_InitStruct.CRCCalculation = LL_SPI_CRCCALCULATION_DISABLE;
 80010c2:	2300      	movs	r3, #0
 80010c4:	63bb      	str	r3, [r7, #56]	; 0x38
	SPI_InitStruct.CRCPoly = 10;
 80010c6:	230a      	movs	r3, #10
 80010c8:	63fb      	str	r3, [r7, #60]	; 0x3c
	LL_SPI_Init(BNO080_SPI_CHANNEL, &SPI_InitStruct);
 80010ca:	f107 0318 	add.w	r3, r7, #24
 80010ce:	4619      	mov	r1, r3
 80010d0:	4834      	ldr	r0, [pc, #208]	; (80011a4 <BNO080_GPIO_SPI_Initialization+0x168>)
 80010d2:	f003 fb30 	bl	8004736 <LL_SPI_Init>
	LL_SPI_SetStandard(BNO080_SPI_CHANNEL, LL_SPI_PROTOCOL_MOTOROLA);
 80010d6:	2100      	movs	r1, #0
 80010d8:	4832      	ldr	r0, [pc, #200]	; (80011a4 <BNO080_GPIO_SPI_Initialization+0x168>)
 80010da:	f7ff fef5 	bl	8000ec8 <LL_SPI_SetStandard>
	 * PA8  ------> BNO080_PS0/WAKE (output)
	 * PC9  ------> BNO080_RST (output)
	 * PC8  ------> BNO080_INT (input)
	 */
	/**/
	LL_GPIO_ResetOutputPin(BNO080_RST_PORT, BNO080_RST_PIN);
 80010de:	f44f 7100 	mov.w	r1, #512	; 0x200
 80010e2:	4831      	ldr	r0, [pc, #196]	; (80011a8 <BNO080_GPIO_SPI_Initialization+0x16c>)
 80010e4:	f7ff ff6b 	bl	8000fbe <LL_GPIO_ResetOutputPin>
	LL_GPIO_ResetOutputPin(BNO080_SPI_CS_PORT, BNO080_SPI_CS_PIN);
 80010e8:	f44f 5180 	mov.w	r1, #4096	; 0x1000
 80010ec:	482c      	ldr	r0, [pc, #176]	; (80011a0 <BNO080_GPIO_SPI_Initialization+0x164>)
 80010ee:	f7ff ff66 	bl	8000fbe <LL_GPIO_ResetOutputPin>
	LL_GPIO_ResetOutputPin(BNO080_PS0_WAKE_PORT, BNO080_PS0_WAKE_PIN);
 80010f2:	f44f 7180 	mov.w	r1, #256	; 0x100
 80010f6:	482d      	ldr	r0, [pc, #180]	; (80011ac <BNO080_GPIO_SPI_Initialization+0x170>)
 80010f8:	f7ff ff61 	bl	8000fbe <LL_GPIO_ResetOutputPin>
	
	/**/
	GPIO_InitStruct.Pin = BNO080_SPI_CS_PIN;
 80010fc:	f44f 5380 	mov.w	r3, #4096	; 0x1000
 8001100:	603b      	str	r3, [r7, #0]
	GPIO_InitStruct.Mode = LL_GPIO_MODE_OUTPUT;
 8001102:	2301      	movs	r3, #1
 8001104:	607b      	str	r3, [r7, #4]
	GPIO_InitStruct.Speed = LL_GPIO_SPEED_FREQ_VERY_HIGH;
 8001106:	2303      	movs	r3, #3
 8001108:	60bb      	str	r3, [r7, #8]
	GPIO_InitStruct.OutputType = LL_GPIO_OUTPUT_PUSHPULL;
 800110a:	2300      	movs	r3, #0
 800110c:	60fb      	str	r3, [r7, #12]
	GPIO_InitStruct.Pull = LL_GPIO_PULL_NO;
 800110e:	2300      	movs	r3, #0
 8001110:	613b      	str	r3, [r7, #16]
	LL_GPIO_Init(BNO080_SPI_CS_PORT, &GPIO_InitStruct);
 8001112:	463b      	mov	r3, r7
 8001114:	4619      	mov	r1, r3
 8001116:	4822      	ldr	r0, [pc, #136]	; (80011a0 <BNO080_GPIO_SPI_Initialization+0x164>)
 8001118:	f003 f93e 	bl	8004398 <LL_GPIO_Init>
	
	/**/
	GPIO_InitStruct.Pin = BNO080_RST_PIN;
 800111c:	f44f 7300 	mov.w	r3, #512	; 0x200
 8001120:	603b      	str	r3, [r7, #0]
	GPIO_InitStruct.Mode = LL_GPIO_MODE_OUTPUT;
 8001122:	2301      	movs	r3, #1
 8001124:	607b      	str	r3, [r7, #4]
	GPIO_InitStruct.Speed = LL_GPIO_SPEED_FREQ_VERY_HIGH;
 8001126:	2303      	movs	r3, #3
 8001128:	60bb      	str	r3, [r7, #8]
	GPIO_InitStruct.OutputType = LL_GPIO_OUTPUT_PUSHPULL;
 800112a:	2300      	movs	r3, #0
 800112c:	60fb      	str	r3, [r7, #12]
	GPIO_InitStruct.Pull = LL_GPIO_PULL_NO;
 800112e:	2300      	movs	r3, #0
 8001130:	613b      	str	r3, [r7, #16]
	LL_GPIO_Init(BNO080_RST_PORT, &GPIO_InitStruct);
 8001132:	463b      	mov	r3, r7
 8001134:	4619      	mov	r1, r3
 8001136:	481c      	ldr	r0, [pc, #112]	; (80011a8 <BNO080_GPIO_SPI_Initialization+0x16c>)
 8001138:	f003 f92e 	bl	8004398 <LL_GPIO_Init>
	
	/**/
	GPIO_InitStruct.Pin = BNO080_PS0_WAKE_PIN;
 800113c:	f44f 7380 	mov.w	r3, #256	; 0x100
 8001140:	603b      	str	r3, [r7, #0]
	GPIO_InitStruct.Mode = LL_GPIO_MODE_OUTPUT;
 8001142:	2301      	movs	r3, #1
 8001144:	607b      	str	r3, [r7, #4]
	GPIO_InitStruct.Speed = LL_GPIO_SPEED_FREQ_VERY_HIGH;
 8001146:	2303      	movs	r3, #3
 8001148:	60bb      	str	r3, [r7, #8]
	GPIO_InitStruct.OutputType = LL_GPIO_OUTPUT_PUSHPULL;
 800114a:	2300      	movs	r3, #0
 800114c:	60fb      	str	r3, [r7, #12]
	GPIO_InitStruct.Pull = LL_GPIO_PULL_NO;
 800114e:	2300      	movs	r3, #0
 8001150:	613b      	str	r3, [r7, #16]
	LL_GPIO_Init(BNO080_PS0_WAKE_PORT, &GPIO_InitStruct);
 8001152:	463b      	mov	r3, r7
 8001154:	4619      	mov	r1, r3
 8001156:	4815      	ldr	r0, [pc, #84]	; (80011ac <BNO080_GPIO_SPI_Initialization+0x170>)
 8001158:	f003 f91e 	bl	8004398 <LL_GPIO_Init>
	
	/**/
	GPIO_InitStruct.Pin = BNO080_INT_PIN;
 800115c:	f44f 7380 	mov.w	r3, #256	; 0x100
 8001160:	603b      	str	r3, [r7, #0]
	GPIO_InitStruct.Mode = LL_GPIO_MODE_INPUT;
 8001162:	2300      	movs	r3, #0
 8001164:	607b      	str	r3, [r7, #4]
	GPIO_InitStruct.Pull = LL_GPIO_PULL_UP;
 8001166:	2301      	movs	r3, #1
 8001168:	613b      	str	r3, [r7, #16]
	LL_GPIO_Init(BNO080_INT_PORT, &GPIO_InitStruct);
 800116a:	463b      	mov	r3, r7
 800116c:	4619      	mov	r1, r3
 800116e:	480e      	ldr	r0, [pc, #56]	; (80011a8 <BNO080_GPIO_SPI_Initialization+0x16c>)
 8001170:	f003 f912 	bl	8004398 <LL_GPIO_Init>

	LL_SPI_Enable(BNO080_SPI_CHANNEL);
 8001174:	480b      	ldr	r0, [pc, #44]	; (80011a4 <BNO080_GPIO_SPI_Initialization+0x168>)
 8001176:	f7ff fe97 	bl	8000ea8 <LL_SPI_Enable>

	CHIP_DESELECT(BNO080);
 800117a:	f44f 5180 	mov.w	r1, #4096	; 0x1000
 800117e:	4808      	ldr	r0, [pc, #32]	; (80011a0 <BNO080_GPIO_SPI_Initialization+0x164>)
 8001180:	f7ff ff0f 	bl	8000fa2 <LL_GPIO_SetOutputPin>
	WAKE_HIGH();
 8001184:	f44f 7180 	mov.w	r1, #256	; 0x100
 8001188:	4808      	ldr	r0, [pc, #32]	; (80011ac <BNO080_GPIO_SPI_Initialization+0x170>)
 800118a:	f7ff ff0a 	bl	8000fa2 <LL_GPIO_SetOutputPin>
	RESET_HIGH();
 800118e:	f44f 7100 	mov.w	r1, #512	; 0x200
 8001192:	4805      	ldr	r0, [pc, #20]	; (80011a8 <BNO080_GPIO_SPI_Initialization+0x16c>)
 8001194:	f7ff ff05 	bl	8000fa2 <LL_GPIO_SetOutputPin>
}
 8001198:	bf00      	nop
 800119a:	3740      	adds	r7, #64	; 0x40
 800119c:	46bd      	mov	sp, r7
 800119e:	bd80      	pop	{r7, pc}
 80011a0:	40020400 	.word	0x40020400
 80011a4:	40003800 	.word	0x40003800
 80011a8:	40020800 	.word	0x40020800
 80011ac:	40020000 	.word	0x40020000

080011b0 <BNO080_Initialization>:

int BNO080_Initialization(void)
{
 80011b0:	b580      	push	{r7, lr}
 80011b2:	b082      	sub	sp, #8
 80011b4:	af02      	add	r7, sp, #8
	BNO080_GPIO_SPI_Initialization();
 80011b6:	f7ff ff41 	bl	800103c <BNO080_GPIO_SPI_Initialization>
	
	printf("Checking BNO080...");
 80011ba:	482e      	ldr	r0, [pc, #184]	; (8001274 <BNO080_Initialization+0xc4>)
 80011bc:	f004 fce6 	bl	8005b8c <iprintf>
	
	CHIP_DESELECT(BNO080);
 80011c0:	f44f 5180 	mov.w	r1, #4096	; 0x1000
 80011c4:	482c      	ldr	r0, [pc, #176]	; (8001278 <BNO080_Initialization+0xc8>)
 80011c6:	f7ff feec 	bl	8000fa2 <LL_GPIO_SetOutputPin>
	
	//Configure the BNO080 for SPI communication
	WAKE_HIGH();	//Before boot up the PS0/WAK pin must be high to enter SPI mode
 80011ca:	f44f 7180 	mov.w	r1, #256	; 0x100
 80011ce:	482b      	ldr	r0, [pc, #172]	; (800127c <BNO080_Initialization+0xcc>)
 80011d0:	f7ff fee7 	bl	8000fa2 <LL_GPIO_SetOutputPin>
	RESET_LOW();	//Reset BNO080
 80011d4:	f44f 7100 	mov.w	r1, #512	; 0x200
 80011d8:	4829      	ldr	r0, [pc, #164]	; (8001280 <BNO080_Initialization+0xd0>)
 80011da:	f7ff fef0 	bl	8000fbe <LL_GPIO_ResetOutputPin>
	HAL_Delay(200);	//Min length not specified in datasheet?
 80011de:	20c8      	movs	r0, #200	; 0xc8
 80011e0:	f002 fa8a 	bl	80036f8 <HAL_Delay>
	RESET_HIGH();	//Bring out of reset
 80011e4:	f44f 7100 	mov.w	r1, #512	; 0x200
 80011e8:	4825      	ldr	r0, [pc, #148]	; (8001280 <BNO080_Initialization+0xd0>)
 80011ea:	f7ff feda 	bl	8000fa2 <LL_GPIO_SetOutputPin>
	
	BNO080_waitForSPI(); //Wait until INT pin goes low.
 80011ee:	f000 f8d7 	bl	80013a0 <BNO080_waitForSPI>
	
	//At system startup, the hub must send its full advertisement message (see 5.2 and 5.3) to the
	//host. It must not send any other data until this step is complete.
	//When BNO080 first boots it broadcasts big startup packet
	//Read it and dump it
	BNO080_waitForSPI(); //Wait for assertion of INT before reading advert message.
 80011f2:	f000 f8d5 	bl	80013a0 <BNO080_waitForSPI>
	BNO080_receivePacket();
 80011f6:	f000 f8f7 	bl	80013e8 <BNO080_receivePacket>
	
	//The BNO080 will then transmit an unsolicited Initialize Response (see 6.4.5.2)
	//Read it and dump it
	BNO080_waitForSPI();  //Wait for assertion of INT before reading Init response
 80011fa:	f000 f8d1 	bl	80013a0 <BNO080_waitForSPI>
	BNO080_receivePacket();
 80011fe:	f000 f8f3 	bl	80013e8 <BNO080_receivePacket>
	
	//Check communication with device
	shtpData[0] = SHTP_REPORT_PRODUCT_ID_REQUEST; //Request the product ID and reset info
 8001202:	4b20      	ldr	r3, [pc, #128]	; (8001284 <BNO080_Initialization+0xd4>)
 8001204:	22f9      	movs	r2, #249	; 0xf9
 8001206:	701a      	strb	r2, [r3, #0]
	shtpData[1] = 0;						 //Reserved
 8001208:	4b1e      	ldr	r3, [pc, #120]	; (8001284 <BNO080_Initialization+0xd4>)
 800120a:	2200      	movs	r2, #0
 800120c:	705a      	strb	r2, [r3, #1]
	
	//Transmit packet on channel 2, 2 bytes
	BNO080_sendPacket(CHANNEL_CONTROL, 2);
 800120e:	2102      	movs	r1, #2
 8001210:	2002      	movs	r0, #2
 8001212:	f000 f959 	bl	80014c8 <BNO080_sendPacket>
	
	//Now we wait for response
	BNO080_waitForSPI();
 8001216:	f000 f8c3 	bl	80013a0 <BNO080_waitForSPI>
	if (BNO080_receivePacket() == 1)
 800121a:	f000 f8e5 	bl	80013e8 <BNO080_receivePacket>
 800121e:	4603      	mov	r3, r0
 8001220:	2b01      	cmp	r3, #1
 8001222:	d11b      	bne.n	800125c <BNO080_Initialization+0xac>
	{
		printf("header: %d %d %d %d\n", shtpHeader[0], shtpHeader[1], shtpHeader[2], shtpHeader[3]);
 8001224:	4b18      	ldr	r3, [pc, #96]	; (8001288 <BNO080_Initialization+0xd8>)
 8001226:	781b      	ldrb	r3, [r3, #0]
 8001228:	4619      	mov	r1, r3
 800122a:	4b17      	ldr	r3, [pc, #92]	; (8001288 <BNO080_Initialization+0xd8>)
 800122c:	785b      	ldrb	r3, [r3, #1]
 800122e:	461a      	mov	r2, r3
 8001230:	4b15      	ldr	r3, [pc, #84]	; (8001288 <BNO080_Initialization+0xd8>)
 8001232:	789b      	ldrb	r3, [r3, #2]
 8001234:	4618      	mov	r0, r3
 8001236:	4b14      	ldr	r3, [pc, #80]	; (8001288 <BNO080_Initialization+0xd8>)
 8001238:	78db      	ldrb	r3, [r3, #3]
 800123a:	9300      	str	r3, [sp, #0]
 800123c:	4603      	mov	r3, r0
 800123e:	4813      	ldr	r0, [pc, #76]	; (800128c <BNO080_Initialization+0xdc>)
 8001240:	f004 fca4 	bl	8005b8c <iprintf>
		if (shtpData[0] == SHTP_REPORT_PRODUCT_ID_RESPONSE)
 8001244:	4b0f      	ldr	r3, [pc, #60]	; (8001284 <BNO080_Initialization+0xd4>)
 8001246:	781b      	ldrb	r3, [r3, #0]
 8001248:	2bf8      	cmp	r3, #248	; 0xf8
 800124a:	d107      	bne.n	800125c <BNO080_Initialization+0xac>
		{
			printf("BNO080 who_am_i = 0x%02x...ok\n\n", shtpData[0]);
 800124c:	4b0d      	ldr	r3, [pc, #52]	; (8001284 <BNO080_Initialization+0xd4>)
 800124e:	781b      	ldrb	r3, [r3, #0]
 8001250:	4619      	mov	r1, r3
 8001252:	480f      	ldr	r0, [pc, #60]	; (8001290 <BNO080_Initialization+0xe0>)
 8001254:	f004 fc9a 	bl	8005b8c <iprintf>
			return (0);
 8001258:	2300      	movs	r3, #0
 800125a:	e007      	b.n	800126c <BNO080_Initialization+0xbc>
		}// Sensor OK
	}
	
	printf("BNO080 Not OK: 0x%02x Should be 0x%02x\n", shtpData[0], SHTP_REPORT_PRODUCT_ID_RESPONSE);
 800125c:	4b09      	ldr	r3, [pc, #36]	; (8001284 <BNO080_Initialization+0xd4>)
 800125e:	781b      	ldrb	r3, [r3, #0]
 8001260:	22f8      	movs	r2, #248	; 0xf8
 8001262:	4619      	mov	r1, r3
 8001264:	480b      	ldr	r0, [pc, #44]	; (8001294 <BNO080_Initialization+0xe4>)
 8001266:	f004 fc91 	bl	8005b8c <iprintf>
	return (1); //Something went wrong
 800126a:	2301      	movs	r3, #1
}
 800126c:	4618      	mov	r0, r3
 800126e:	46bd      	mov	sp, r7
 8001270:	bd80      	pop	{r7, pc}
 8001272:	bf00      	nop
 8001274:	08007a08 	.word	0x08007a08
 8001278:	40020400 	.word	0x40020400
 800127c:	40020000 	.word	0x40020000
 8001280:	40020800 	.word	0x40020800
 8001284:	2000026c 	.word	0x2000026c
 8001288:	20000218 	.word	0x20000218
 800128c:	08007a1c 	.word	0x08007a1c
 8001290:	08007a34 	.word	0x08007a34
 8001294:	08007a54 	.word	0x08007a54

08001298 <SPI2_SendByte>:

unsigned char SPI2_SendByte(unsigned char data)
{
 8001298:	b580      	push	{r7, lr}
 800129a:	b082      	sub	sp, #8
 800129c:	af00      	add	r7, sp, #0
 800129e:	4603      	mov	r3, r0
 80012a0:	71fb      	strb	r3, [r7, #7]
	while(LL_SPI_IsActiveFlag_TXE(BNO080_SPI_CHANNEL)==RESET);
 80012a2:	bf00      	nop
 80012a4:	480c      	ldr	r0, [pc, #48]	; (80012d8 <SPI2_SendByte+0x40>)
 80012a6:	f7ff fe35 	bl	8000f14 <LL_SPI_IsActiveFlag_TXE>
 80012aa:	4603      	mov	r3, r0
 80012ac:	2b00      	cmp	r3, #0
 80012ae:	d0f9      	beq.n	80012a4 <SPI2_SendByte+0xc>
	LL_SPI_TransmitData8(BNO080_SPI_CHANNEL, data);
 80012b0:	79fb      	ldrb	r3, [r7, #7]
 80012b2:	4619      	mov	r1, r3
 80012b4:	4808      	ldr	r0, [pc, #32]	; (80012d8 <SPI2_SendByte+0x40>)
 80012b6:	f7ff fe4d 	bl	8000f54 <LL_SPI_TransmitData8>
	
	while(LL_SPI_IsActiveFlag_RXNE(BNO080_SPI_CHANNEL)==RESET);
 80012ba:	bf00      	nop
 80012bc:	4806      	ldr	r0, [pc, #24]	; (80012d8 <SPI2_SendByte+0x40>)
 80012be:	f7ff fe16 	bl	8000eee <LL_SPI_IsActiveFlag_RXNE>
 80012c2:	4603      	mov	r3, r0
 80012c4:	2b00      	cmp	r3, #0
 80012c6:	d0f9      	beq.n	80012bc <SPI2_SendByte+0x24>
	return LL_SPI_ReceiveData8(BNO080_SPI_CHANNEL);
 80012c8:	4803      	ldr	r0, [pc, #12]	; (80012d8 <SPI2_SendByte+0x40>)
 80012ca:	f7ff fe36 	bl	8000f3a <LL_SPI_ReceiveData8>
 80012ce:	4603      	mov	r3, r0
}
 80012d0:	4618      	mov	r0, r3
 80012d2:	3708      	adds	r7, #8
 80012d4:	46bd      	mov	sp, r7
 80012d6:	bd80      	pop	{r7, pc}
 80012d8:	40003800 	.word	0x40003800

080012dc <BNO080_enableRotationVector>:
	return fixedPointValue * powf(2, qPoint * -1);
}

//Sends the packet to enable the rotation vector
void BNO080_enableRotationVector(uint16_t timeBetweenReports)
{
 80012dc:	b580      	push	{r7, lr}
 80012de:	b082      	sub	sp, #8
 80012e0:	af00      	add	r7, sp, #0
 80012e2:	4603      	mov	r3, r0
 80012e4:	80fb      	strh	r3, [r7, #6]
	BNO080_setFeatureCommand(SENSOR_REPORTID_ROTATION_VECTOR, timeBetweenReports, 0);
 80012e6:	88fb      	ldrh	r3, [r7, #6]
 80012e8:	2200      	movs	r2, #0
 80012ea:	4619      	mov	r1, r3
 80012ec:	2005      	movs	r0, #5
 80012ee:	f000 f805 	bl	80012fc <BNO080_setFeatureCommand>
}
 80012f2:	bf00      	nop
 80012f4:	3708      	adds	r7, #8
 80012f6:	46bd      	mov	sp, r7
 80012f8:	bd80      	pop	{r7, pc}
	...

080012fc <BNO080_setFeatureCommand>:
}

//Given a sensor's report ID, this tells the BNO080 to begin reporting the values
//Also sets the specific config word. Useful for personal activity classifier
void BNO080_setFeatureCommand(uint8_t reportID, uint32_t microsBetweenReports, uint32_t specificConfig)
{
 80012fc:	b580      	push	{r7, lr}
 80012fe:	b084      	sub	sp, #16
 8001300:	af00      	add	r7, sp, #0
 8001302:	4603      	mov	r3, r0
 8001304:	60b9      	str	r1, [r7, #8]
 8001306:	607a      	str	r2, [r7, #4]
 8001308:	73fb      	strb	r3, [r7, #15]
	shtpData[0] = SHTP_REPORT_SET_FEATURE_COMMAND;	 //Set feature command. Reference page 55
 800130a:	4b24      	ldr	r3, [pc, #144]	; (800139c <BNO080_setFeatureCommand+0xa0>)
 800130c:	22fd      	movs	r2, #253	; 0xfd
 800130e:	701a      	strb	r2, [r3, #0]
	shtpData[1] = reportID;						 //Feature Report ID. 0x01 = Accelerometer, 0x05 = Rotation vector
 8001310:	4a22      	ldr	r2, [pc, #136]	; (800139c <BNO080_setFeatureCommand+0xa0>)
 8001312:	7bfb      	ldrb	r3, [r7, #15]
 8001314:	7053      	strb	r3, [r2, #1]
	shtpData[2] = 0;							 //Feature flags
 8001316:	4b21      	ldr	r3, [pc, #132]	; (800139c <BNO080_setFeatureCommand+0xa0>)
 8001318:	2200      	movs	r2, #0
 800131a:	709a      	strb	r2, [r3, #2]
	shtpData[3] = 0;							 //Change sensitivity (LSB)
 800131c:	4b1f      	ldr	r3, [pc, #124]	; (800139c <BNO080_setFeatureCommand+0xa0>)
 800131e:	2200      	movs	r2, #0
 8001320:	70da      	strb	r2, [r3, #3]
	shtpData[4] = 0;							 //Change sensitivity (MSB)
 8001322:	4b1e      	ldr	r3, [pc, #120]	; (800139c <BNO080_setFeatureCommand+0xa0>)
 8001324:	2200      	movs	r2, #0
 8001326:	711a      	strb	r2, [r3, #4]
	shtpData[5] = (microsBetweenReports >> 0) & 0xFF;  //Report interval (LSB) in microseconds. 0x7A120 = 500ms
 8001328:	68bb      	ldr	r3, [r7, #8]
 800132a:	b2da      	uxtb	r2, r3
 800132c:	4b1b      	ldr	r3, [pc, #108]	; (800139c <BNO080_setFeatureCommand+0xa0>)
 800132e:	715a      	strb	r2, [r3, #5]
	shtpData[6] = (microsBetweenReports >> 8) & 0xFF;  //Report interval
 8001330:	68bb      	ldr	r3, [r7, #8]
 8001332:	0a1b      	lsrs	r3, r3, #8
 8001334:	b2da      	uxtb	r2, r3
 8001336:	4b19      	ldr	r3, [pc, #100]	; (800139c <BNO080_setFeatureCommand+0xa0>)
 8001338:	719a      	strb	r2, [r3, #6]
	shtpData[7] = (microsBetweenReports >> 16) & 0xFF; //Report interval
 800133a:	68bb      	ldr	r3, [r7, #8]
 800133c:	0c1b      	lsrs	r3, r3, #16
 800133e:	b2da      	uxtb	r2, r3
 8001340:	4b16      	ldr	r3, [pc, #88]	; (800139c <BNO080_setFeatureCommand+0xa0>)
 8001342:	71da      	strb	r2, [r3, #7]
	shtpData[8] = (microsBetweenReports >> 24) & 0xFF; //Report interval (MSB)
 8001344:	68bb      	ldr	r3, [r7, #8]
 8001346:	0e1b      	lsrs	r3, r3, #24
 8001348:	b2da      	uxtb	r2, r3
 800134a:	4b14      	ldr	r3, [pc, #80]	; (800139c <BNO080_setFeatureCommand+0xa0>)
 800134c:	721a      	strb	r2, [r3, #8]
	shtpData[9] = 0;							 //Batch Interval (LSB)
 800134e:	4b13      	ldr	r3, [pc, #76]	; (800139c <BNO080_setFeatureCommand+0xa0>)
 8001350:	2200      	movs	r2, #0
 8001352:	725a      	strb	r2, [r3, #9]
	shtpData[10] = 0;							 //Batch Interval
 8001354:	4b11      	ldr	r3, [pc, #68]	; (800139c <BNO080_setFeatureCommand+0xa0>)
 8001356:	2200      	movs	r2, #0
 8001358:	729a      	strb	r2, [r3, #10]
	shtpData[11] = 0;							 //Batch Interval
 800135a:	4b10      	ldr	r3, [pc, #64]	; (800139c <BNO080_setFeatureCommand+0xa0>)
 800135c:	2200      	movs	r2, #0
 800135e:	72da      	strb	r2, [r3, #11]
	shtpData[12] = 0;							 //Batch Interval (MSB)
 8001360:	4b0e      	ldr	r3, [pc, #56]	; (800139c <BNO080_setFeatureCommand+0xa0>)
 8001362:	2200      	movs	r2, #0
 8001364:	731a      	strb	r2, [r3, #12]
	shtpData[13] = (specificConfig >> 0) & 0xFF;	   	 //Sensor-specific config (LSB)
 8001366:	687b      	ldr	r3, [r7, #4]
 8001368:	b2da      	uxtb	r2, r3
 800136a:	4b0c      	ldr	r3, [pc, #48]	; (800139c <BNO080_setFeatureCommand+0xa0>)
 800136c:	735a      	strb	r2, [r3, #13]
	shtpData[14] = (specificConfig >> 8) & 0xFF;	   	 //Sensor-specific config
 800136e:	687b      	ldr	r3, [r7, #4]
 8001370:	0a1b      	lsrs	r3, r3, #8
 8001372:	b2da      	uxtb	r2, r3
 8001374:	4b09      	ldr	r3, [pc, #36]	; (800139c <BNO080_setFeatureCommand+0xa0>)
 8001376:	739a      	strb	r2, [r3, #14]
	shtpData[15] = (specificConfig >> 16) & 0xFF;	 //Sensor-specific config
 8001378:	687b      	ldr	r3, [r7, #4]
 800137a:	0c1b      	lsrs	r3, r3, #16
 800137c:	b2da      	uxtb	r2, r3
 800137e:	4b07      	ldr	r3, [pc, #28]	; (800139c <BNO080_setFeatureCommand+0xa0>)
 8001380:	73da      	strb	r2, [r3, #15]
	shtpData[16] = (specificConfig >> 24) & 0xFF;	 //Sensor-specific config (MSB)
 8001382:	687b      	ldr	r3, [r7, #4]
 8001384:	0e1b      	lsrs	r3, r3, #24
 8001386:	b2da      	uxtb	r2, r3
 8001388:	4b04      	ldr	r3, [pc, #16]	; (800139c <BNO080_setFeatureCommand+0xa0>)
 800138a:	741a      	strb	r2, [r3, #16]

	//Transmit packet on channel 2, 17 bytes
	BNO080_sendPacket(CHANNEL_CONTROL, 17);
 800138c:	2111      	movs	r1, #17
 800138e:	2002      	movs	r0, #2
 8001390:	f000 f89a 	bl	80014c8 <BNO080_sendPacket>
}
 8001394:	bf00      	nop
 8001396:	3710      	adds	r7, #16
 8001398:	46bd      	mov	sp, r7
 800139a:	bd80      	pop	{r7, pc}
 800139c:	2000026c 	.word	0x2000026c

080013a0 <BNO080_waitForSPI>:

//Blocking wait for BNO080 to assert (pull low) the INT pin
//indicating it's ready for comm. Can take more than 104ms
//after a hardware reset
int BNO080_waitForSPI(void)
{
 80013a0:	b580      	push	{r7, lr}
 80013a2:	b082      	sub	sp, #8
 80013a4:	af00      	add	r7, sp, #0
	for (uint32_t counter = 0; counter < 0xffffffff; counter++) //Don't got more than 255
 80013a6:	2300      	movs	r3, #0
 80013a8:	607b      	str	r3, [r7, #4]
 80013aa:	e00c      	b.n	80013c6 <BNO080_waitForSPI+0x26>
	{
		if (LL_GPIO_IsInputPinSet(BNO080_INT_PORT, BNO080_INT_PIN) == 0)
 80013ac:	f44f 7180 	mov.w	r1, #256	; 0x100
 80013b0:	480b      	ldr	r0, [pc, #44]	; (80013e0 <BNO080_waitForSPI+0x40>)
 80013b2:	f7ff fde1 	bl	8000f78 <LL_GPIO_IsInputPinSet>
 80013b6:	4603      	mov	r3, r0
 80013b8:	2b00      	cmp	r3, #0
 80013ba:	d101      	bne.n	80013c0 <BNO080_waitForSPI+0x20>
		{
			//printf("\nData available\n");
			return (1);
 80013bc:	2301      	movs	r3, #1
 80013be:	e00a      	b.n	80013d6 <BNO080_waitForSPI+0x36>
	for (uint32_t counter = 0; counter < 0xffffffff; counter++) //Don't got more than 255
 80013c0:	687b      	ldr	r3, [r7, #4]
 80013c2:	3301      	adds	r3, #1
 80013c4:	607b      	str	r3, [r7, #4]
 80013c6:	687b      	ldr	r3, [r7, #4]
 80013c8:	f1b3 3fff 	cmp.w	r3, #4294967295
 80013cc:	d1ee      	bne.n	80013ac <BNO080_waitForSPI+0xc>
		}
		//printf("SPI Wait %d\n", counter);
	}
	printf("\nData not available\n");
 80013ce:	4805      	ldr	r0, [pc, #20]	; (80013e4 <BNO080_waitForSPI+0x44>)
 80013d0:	f004 fc50 	bl	8005c74 <puts>
	return (0);
 80013d4:	2300      	movs	r3, #0
}
 80013d6:	4618      	mov	r0, r3
 80013d8:	3708      	adds	r7, #8
 80013da:	46bd      	mov	sp, r7
 80013dc:	bd80      	pop	{r7, pc}
 80013de:	bf00      	nop
 80013e0:	40020800 	.word	0x40020800
 80013e4:	08007aa0 	.word	0x08007aa0

080013e8 <BNO080_receivePacket>:


//Check to see if there is any new data available
//Read the contents of the incoming packet into the shtpData array
int BNO080_receivePacket(void)
{
 80013e8:	b580      	push	{r7, lr}
 80013ea:	b084      	sub	sp, #16
 80013ec:	af00      	add	r7, sp, #0
	uint8_t incoming;

	if (LL_GPIO_IsInputPinSet(BNO080_INT_PORT, BNO080_INT_PIN) == 1)
 80013ee:	f44f 7180 	mov.w	r1, #256	; 0x100
 80013f2:	4831      	ldr	r0, [pc, #196]	; (80014b8 <BNO080_receivePacket+0xd0>)
 80013f4:	f7ff fdc0 	bl	8000f78 <LL_GPIO_IsInputPinSet>
 80013f8:	4603      	mov	r3, r0
 80013fa:	2b01      	cmp	r3, #1
 80013fc:	d101      	bne.n	8001402 <BNO080_receivePacket+0x1a>
		return (0); //Data is not available
 80013fe:	2300      	movs	r3, #0
 8001400:	e056      	b.n	80014b0 <BNO080_receivePacket+0xc8>

	//Old way: if (BNO080_waitForSPI() == 0) return (0); //Something went wrong

	//Get first four bytes to find out how much data we need to read

	CHIP_SELECT(BNO080);
 8001402:	f44f 5180 	mov.w	r1, #4096	; 0x1000
 8001406:	482d      	ldr	r0, [pc, #180]	; (80014bc <BNO080_receivePacket+0xd4>)
 8001408:	f7ff fdd9 	bl	8000fbe <LL_GPIO_ResetOutputPin>

	//Get the first four bytes, aka the packet header
	uint8_t packetLSB = SPI2_SendByte(0);
 800140c:	2000      	movs	r0, #0
 800140e:	f7ff ff43 	bl	8001298 <SPI2_SendByte>
 8001412:	4603      	mov	r3, r0
 8001414:	737b      	strb	r3, [r7, #13]
	uint8_t packetMSB = SPI2_SendByte(0);
 8001416:	2000      	movs	r0, #0
 8001418:	f7ff ff3e 	bl	8001298 <SPI2_SendByte>
 800141c:	4603      	mov	r3, r0
 800141e:	733b      	strb	r3, [r7, #12]
	uint8_t channelNumber = SPI2_SendByte(0);
 8001420:	2000      	movs	r0, #0
 8001422:	f7ff ff39 	bl	8001298 <SPI2_SendByte>
 8001426:	4603      	mov	r3, r0
 8001428:	72fb      	strb	r3, [r7, #11]
	uint8_t sequenceNumber = SPI2_SendByte(0); //Not sure if we need to store this or not
 800142a:	2000      	movs	r0, #0
 800142c:	f7ff ff34 	bl	8001298 <SPI2_SendByte>
 8001430:	4603      	mov	r3, r0
 8001432:	72bb      	strb	r3, [r7, #10]

	//Store the header info
	shtpHeader[0] = packetLSB;
 8001434:	4a22      	ldr	r2, [pc, #136]	; (80014c0 <BNO080_receivePacket+0xd8>)
 8001436:	7b7b      	ldrb	r3, [r7, #13]
 8001438:	7013      	strb	r3, [r2, #0]
	shtpHeader[1] = packetMSB;
 800143a:	4a21      	ldr	r2, [pc, #132]	; (80014c0 <BNO080_receivePacket+0xd8>)
 800143c:	7b3b      	ldrb	r3, [r7, #12]
 800143e:	7053      	strb	r3, [r2, #1]
	shtpHeader[2] = channelNumber;
 8001440:	4a1f      	ldr	r2, [pc, #124]	; (80014c0 <BNO080_receivePacket+0xd8>)
 8001442:	7afb      	ldrb	r3, [r7, #11]
 8001444:	7093      	strb	r3, [r2, #2]
	shtpHeader[3] = sequenceNumber;
 8001446:	4a1e      	ldr	r2, [pc, #120]	; (80014c0 <BNO080_receivePacket+0xd8>)
 8001448:	7abb      	ldrb	r3, [r7, #10]
 800144a:	70d3      	strb	r3, [r2, #3]

	//Calculate the number of data bytes in this packet
	int16_t dataLength = ((uint16_t)packetMSB << 8 | packetLSB);
 800144c:	7b3b      	ldrb	r3, [r7, #12]
 800144e:	021b      	lsls	r3, r3, #8
 8001450:	b21a      	sxth	r2, r3
 8001452:	7b7b      	ldrb	r3, [r7, #13]
 8001454:	b21b      	sxth	r3, r3
 8001456:	4313      	orrs	r3, r2
 8001458:	813b      	strh	r3, [r7, #8]
	dataLength &= 0x7fff; //Clear the MSbit.
 800145a:	893b      	ldrh	r3, [r7, #8]
 800145c:	f3c3 030e 	ubfx	r3, r3, #0, #15
 8001460:	813b      	strh	r3, [r7, #8]
	//This bit indicates if this package is a continuation of the last. Ignore it for now.
	//TODO catch this as an error and exit
	if (dataLength == 0)
 8001462:	f9b7 3008 	ldrsh.w	r3, [r7, #8]
 8001466:	2b00      	cmp	r3, #0
 8001468:	d101      	bne.n	800146e <BNO080_receivePacket+0x86>
	{
		//Packet is empty
		return (0); //All done
 800146a:	2300      	movs	r3, #0
 800146c:	e020      	b.n	80014b0 <BNO080_receivePacket+0xc8>
	}
	dataLength -= 4; //Remove the header bytes from the data count
 800146e:	893b      	ldrh	r3, [r7, #8]
 8001470:	3b04      	subs	r3, #4
 8001472:	b29b      	uxth	r3, r3
 8001474:	813b      	strh	r3, [r7, #8]

	//printf("length: %d\n", dataLength);

	//Read incoming data into the shtpData array
	for (uint16_t dataSpot = 0; dataSpot < dataLength; dataSpot++)
 8001476:	2300      	movs	r3, #0
 8001478:	81fb      	strh	r3, [r7, #14]
 800147a:	e00e      	b.n	800149a <BNO080_receivePacket+0xb2>
	{
		incoming = SPI2_SendByte(0xFF);
 800147c:	20ff      	movs	r0, #255	; 0xff
 800147e:	f7ff ff0b 	bl	8001298 <SPI2_SendByte>
 8001482:	4603      	mov	r3, r0
 8001484:	71fb      	strb	r3, [r7, #7]
		//printf("%d ", incoming);
		if (dataSpot < MAX_PACKET_SIZE)	//BNO080 can respond with upto 270 bytes, avoid overflow
 8001486:	89fb      	ldrh	r3, [r7, #14]
 8001488:	2b7f      	cmp	r3, #127	; 0x7f
 800148a:	d803      	bhi.n	8001494 <BNO080_receivePacket+0xac>
			shtpData[dataSpot] = incoming; //Store data into the shtpData array
 800148c:	89fb      	ldrh	r3, [r7, #14]
 800148e:	490d      	ldr	r1, [pc, #52]	; (80014c4 <BNO080_receivePacket+0xdc>)
 8001490:	79fa      	ldrb	r2, [r7, #7]
 8001492:	54ca      	strb	r2, [r1, r3]
	for (uint16_t dataSpot = 0; dataSpot < dataLength; dataSpot++)
 8001494:	89fb      	ldrh	r3, [r7, #14]
 8001496:	3301      	adds	r3, #1
 8001498:	81fb      	strh	r3, [r7, #14]
 800149a:	89fa      	ldrh	r2, [r7, #14]
 800149c:	f9b7 3008 	ldrsh.w	r3, [r7, #8]
 80014a0:	429a      	cmp	r2, r3
 80014a2:	dbeb      	blt.n	800147c <BNO080_receivePacket+0x94>
	}
	//printf("\n");

	CHIP_DESELECT(BNO080); //Release BNO080
 80014a4:	f44f 5180 	mov.w	r1, #4096	; 0x1000
 80014a8:	4804      	ldr	r0, [pc, #16]	; (80014bc <BNO080_receivePacket+0xd4>)
 80014aa:	f7ff fd7a 	bl	8000fa2 <LL_GPIO_SetOutputPin>
	return (1); //We're done!
 80014ae:	2301      	movs	r3, #1
}
 80014b0:	4618      	mov	r0, r3
 80014b2:	3710      	adds	r7, #16
 80014b4:	46bd      	mov	sp, r7
 80014b6:	bd80      	pop	{r7, pc}
 80014b8:	40020800 	.word	0x40020800
 80014bc:	40020400 	.word	0x40020400
 80014c0:	20000218 	.word	0x20000218
 80014c4:	2000026c 	.word	0x2000026c

080014c8 <BNO080_sendPacket>:

//Given the data packet, send the header then the data
//Returns false if sensor does not ACK
//TODO - Arduino has a max 32 byte send. Break sending into multi packets if needed.
int BNO080_sendPacket(uint8_t channelNumber, uint8_t dataLength)
{
 80014c8:	b580      	push	{r7, lr}
 80014ca:	b084      	sub	sp, #16
 80014cc:	af00      	add	r7, sp, #0
 80014ce:	4603      	mov	r3, r0
 80014d0:	460a      	mov	r2, r1
 80014d2:	71fb      	strb	r3, [r7, #7]
 80014d4:	4613      	mov	r3, r2
 80014d6:	71bb      	strb	r3, [r7, #6]
	uint8_t packetLength = dataLength + 4; //Add four bytes for the header
 80014d8:	79bb      	ldrb	r3, [r7, #6]
 80014da:	3304      	adds	r3, #4
 80014dc:	73bb      	strb	r3, [r7, #14]

	//Wait for BNO080 to indicate it is available for communication
	if (BNO080_waitForSPI() == 0)
 80014de:	f7ff ff5f 	bl	80013a0 <BNO080_waitForSPI>
 80014e2:	4603      	mov	r3, r0
 80014e4:	2b00      	cmp	r3, #0
 80014e6:	d101      	bne.n	80014ec <BNO080_sendPacket+0x24>
		return (0); //Data is not available
 80014e8:	2300      	movs	r3, #0
 80014ea:	e032      	b.n	8001552 <BNO080_sendPacket+0x8a>

	//BNO080 has max CLK of 3MHz, MSB first,
	//The BNO080 uses CPOL = 1 and CPHA = 1. This is mode3
	CHIP_SELECT(BNO080);
 80014ec:	f44f 5180 	mov.w	r1, #4096	; 0x1000
 80014f0:	481a      	ldr	r0, [pc, #104]	; (800155c <BNO080_sendPacket+0x94>)
 80014f2:	f7ff fd64 	bl	8000fbe <LL_GPIO_ResetOutputPin>

	//Send the 4 byte packet header
	SPI2_SendByte(packetLength & 0xFF);			//Packet length LSB
 80014f6:	7bbb      	ldrb	r3, [r7, #14]
 80014f8:	4618      	mov	r0, r3
 80014fa:	f7ff fecd 	bl	8001298 <SPI2_SendByte>
	SPI2_SendByte(packetLength >> 8);				//Packet length MSB
 80014fe:	7bbb      	ldrb	r3, [r7, #14]
 8001500:	121b      	asrs	r3, r3, #8
 8001502:	b2db      	uxtb	r3, r3
 8001504:	4618      	mov	r0, r3
 8001506:	f7ff fec7 	bl	8001298 <SPI2_SendByte>
	SPI2_SendByte(channelNumber);					//Channel number
 800150a:	79fb      	ldrb	r3, [r7, #7]
 800150c:	4618      	mov	r0, r3
 800150e:	f7ff fec3 	bl	8001298 <SPI2_SendByte>
	SPI2_SendByte(sequenceNumber[channelNumber]++); 	//Send the sequence number, increments with each packet sent, different counter for each channel
 8001512:	79fb      	ldrb	r3, [r7, #7]
 8001514:	4a12      	ldr	r2, [pc, #72]	; (8001560 <BNO080_sendPacket+0x98>)
 8001516:	5cd2      	ldrb	r2, [r2, r3]
 8001518:	1c51      	adds	r1, r2, #1
 800151a:	b2c8      	uxtb	r0, r1
 800151c:	4910      	ldr	r1, [pc, #64]	; (8001560 <BNO080_sendPacket+0x98>)
 800151e:	54c8      	strb	r0, [r1, r3]
 8001520:	4610      	mov	r0, r2
 8001522:	f7ff feb9 	bl	8001298 <SPI2_SendByte>

	//Send the user's data packet
	for (uint8_t i = 0; i < dataLength; i++)
 8001526:	2300      	movs	r3, #0
 8001528:	73fb      	strb	r3, [r7, #15]
 800152a:	e008      	b.n	800153e <BNO080_sendPacket+0x76>
	{
		SPI2_SendByte(shtpData[i]);
 800152c:	7bfb      	ldrb	r3, [r7, #15]
 800152e:	4a0d      	ldr	r2, [pc, #52]	; (8001564 <BNO080_sendPacket+0x9c>)
 8001530:	5cd3      	ldrb	r3, [r2, r3]
 8001532:	4618      	mov	r0, r3
 8001534:	f7ff feb0 	bl	8001298 <SPI2_SendByte>
	for (uint8_t i = 0; i < dataLength; i++)
 8001538:	7bfb      	ldrb	r3, [r7, #15]
 800153a:	3301      	adds	r3, #1
 800153c:	73fb      	strb	r3, [r7, #15]
 800153e:	7bfa      	ldrb	r2, [r7, #15]
 8001540:	79bb      	ldrb	r3, [r7, #6]
 8001542:	429a      	cmp	r2, r3
 8001544:	d3f2      	bcc.n	800152c <BNO080_sendPacket+0x64>
	}

	CHIP_DESELECT(BNO080);
 8001546:	f44f 5180 	mov.w	r1, #4096	; 0x1000
 800154a:	4804      	ldr	r0, [pc, #16]	; (800155c <BNO080_sendPacket+0x94>)
 800154c:	f7ff fd29 	bl	8000fa2 <LL_GPIO_SetOutputPin>

	return (1);
 8001550:	2301      	movs	r3, #1
}
 8001552:	4618      	mov	r0, r3
 8001554:	3710      	adds	r7, #16
 8001556:	46bd      	mov	sp, r7
 8001558:	bd80      	pop	{r7, pc}
 800155a:	bf00      	nop
 800155c:	40020400 	.word	0x40020400
 8001560:	200001f8 	.word	0x200001f8
 8001564:	2000026c 	.word	0x2000026c

08001568 <iBus_Check_CHKSUM>:

#include "FS-iA6B.h"

FSiA6B_iBus iBus;

unsigned char iBus_Check_CHKSUM(unsigned char* data, unsigned char len){
 8001568:	b480      	push	{r7}
 800156a:	b085      	sub	sp, #20
 800156c:	af00      	add	r7, sp, #0
 800156e:	6078      	str	r0, [r7, #4]
 8001570:	460b      	mov	r3, r1
 8001572:	70fb      	strb	r3, [r7, #3]
	unsigned short chksum=0xffff;
 8001574:	f64f 73ff 	movw	r3, #65535	; 0xffff
 8001578:	81fb      	strh	r3, [r7, #14]

	for(int i=0; i<len-2; i++){
 800157a:	2300      	movs	r3, #0
 800157c:	60bb      	str	r3, [r7, #8]
 800157e:	e00a      	b.n	8001596 <iBus_Check_CHKSUM+0x2e>
		chksum=chksum-data[i];
 8001580:	68bb      	ldr	r3, [r7, #8]
 8001582:	687a      	ldr	r2, [r7, #4]
 8001584:	4413      	add	r3, r2
 8001586:	781b      	ldrb	r3, [r3, #0]
 8001588:	b29b      	uxth	r3, r3
 800158a:	89fa      	ldrh	r2, [r7, #14]
 800158c:	1ad3      	subs	r3, r2, r3
 800158e:	81fb      	strh	r3, [r7, #14]
	for(int i=0; i<len-2; i++){
 8001590:	68bb      	ldr	r3, [r7, #8]
 8001592:	3301      	adds	r3, #1
 8001594:	60bb      	str	r3, [r7, #8]
 8001596:	78fb      	ldrb	r3, [r7, #3]
 8001598:	3b02      	subs	r3, #2
 800159a:	68ba      	ldr	r2, [r7, #8]
 800159c:	429a      	cmp	r2, r3
 800159e:	dbef      	blt.n	8001580 <iBus_Check_CHKSUM+0x18>
	}

	return ((chksum&0x00ff)==data[30]) && ((chksum>>8)==data[31]);
 80015a0:	89fb      	ldrh	r3, [r7, #14]
 80015a2:	b2db      	uxtb	r3, r3
 80015a4:	687a      	ldr	r2, [r7, #4]
 80015a6:	321e      	adds	r2, #30
 80015a8:	7812      	ldrb	r2, [r2, #0]
 80015aa:	4293      	cmp	r3, r2
 80015ac:	d10a      	bne.n	80015c4 <iBus_Check_CHKSUM+0x5c>
 80015ae:	89fb      	ldrh	r3, [r7, #14]
 80015b0:	0a1b      	lsrs	r3, r3, #8
 80015b2:	b29a      	uxth	r2, r3
 80015b4:	687b      	ldr	r3, [r7, #4]
 80015b6:	331f      	adds	r3, #31
 80015b8:	781b      	ldrb	r3, [r3, #0]
 80015ba:	b29b      	uxth	r3, r3
 80015bc:	429a      	cmp	r2, r3
 80015be:	d101      	bne.n	80015c4 <iBus_Check_CHKSUM+0x5c>
 80015c0:	2301      	movs	r3, #1
 80015c2:	e000      	b.n	80015c6 <iBus_Check_CHKSUM+0x5e>
 80015c4:	2300      	movs	r3, #0
 80015c6:	b2db      	uxtb	r3, r3
}
 80015c8:	4618      	mov	r0, r3
 80015ca:	3714      	adds	r7, #20
 80015cc:	46bd      	mov	sp, r7
 80015ce:	f85d 7b04 	ldr.w	r7, [sp], #4
 80015d2:	4770      	bx	lr

080015d4 <iBus_Parsing>:

void iBus_Parsing(unsigned char* data, FSiA6B_iBus* iBus){
 80015d4:	b480      	push	{r7}
 80015d6:	b083      	sub	sp, #12
 80015d8:	af00      	add	r7, sp, #0
 80015da:	6078      	str	r0, [r7, #4]
 80015dc:	6039      	str	r1, [r7, #0]
	iBus->RH=(data[2] | data[3]<<8) & 0x0fff;
 80015de:	687b      	ldr	r3, [r7, #4]
 80015e0:	3302      	adds	r3, #2
 80015e2:	781b      	ldrb	r3, [r3, #0]
 80015e4:	b21a      	sxth	r2, r3
 80015e6:	687b      	ldr	r3, [r7, #4]
 80015e8:	3303      	adds	r3, #3
 80015ea:	781b      	ldrb	r3, [r3, #0]
 80015ec:	021b      	lsls	r3, r3, #8
 80015ee:	b21b      	sxth	r3, r3
 80015f0:	4313      	orrs	r3, r2
 80015f2:	b21b      	sxth	r3, r3
 80015f4:	b29b      	uxth	r3, r3
 80015f6:	f3c3 030b 	ubfx	r3, r3, #0, #12
 80015fa:	b29a      	uxth	r2, r3
 80015fc:	683b      	ldr	r3, [r7, #0]
 80015fe:	801a      	strh	r2, [r3, #0]
	iBus->RV=(data[4] | data[5]<<8) & 0x0fff;
 8001600:	687b      	ldr	r3, [r7, #4]
 8001602:	3304      	adds	r3, #4
 8001604:	781b      	ldrb	r3, [r3, #0]
 8001606:	b21a      	sxth	r2, r3
 8001608:	687b      	ldr	r3, [r7, #4]
 800160a:	3305      	adds	r3, #5
 800160c:	781b      	ldrb	r3, [r3, #0]
 800160e:	021b      	lsls	r3, r3, #8
 8001610:	b21b      	sxth	r3, r3
 8001612:	4313      	orrs	r3, r2
 8001614:	b21b      	sxth	r3, r3
 8001616:	b29b      	uxth	r3, r3
 8001618:	f3c3 030b 	ubfx	r3, r3, #0, #12
 800161c:	b29a      	uxth	r2, r3
 800161e:	683b      	ldr	r3, [r7, #0]
 8001620:	805a      	strh	r2, [r3, #2]
	iBus->LV=(data[6] | data[7]<<8) & 0x0fff;
 8001622:	687b      	ldr	r3, [r7, #4]
 8001624:	3306      	adds	r3, #6
 8001626:	781b      	ldrb	r3, [r3, #0]
 8001628:	b21a      	sxth	r2, r3
 800162a:	687b      	ldr	r3, [r7, #4]
 800162c:	3307      	adds	r3, #7
 800162e:	781b      	ldrb	r3, [r3, #0]
 8001630:	021b      	lsls	r3, r3, #8
 8001632:	b21b      	sxth	r3, r3
 8001634:	4313      	orrs	r3, r2
 8001636:	b21b      	sxth	r3, r3
 8001638:	b29b      	uxth	r3, r3
 800163a:	f3c3 030b 	ubfx	r3, r3, #0, #12
 800163e:	b29a      	uxth	r2, r3
 8001640:	683b      	ldr	r3, [r7, #0]
 8001642:	809a      	strh	r2, [r3, #4]
	iBus->LH=(data[8] | data[9]<<8) & 0x0fff;
 8001644:	687b      	ldr	r3, [r7, #4]
 8001646:	3308      	adds	r3, #8
 8001648:	781b      	ldrb	r3, [r3, #0]
 800164a:	b21a      	sxth	r2, r3
 800164c:	687b      	ldr	r3, [r7, #4]
 800164e:	3309      	adds	r3, #9
 8001650:	781b      	ldrb	r3, [r3, #0]
 8001652:	021b      	lsls	r3, r3, #8
 8001654:	b21b      	sxth	r3, r3
 8001656:	4313      	orrs	r3, r2
 8001658:	b21b      	sxth	r3, r3
 800165a:	b29b      	uxth	r3, r3
 800165c:	f3c3 030b 	ubfx	r3, r3, #0, #12
 8001660:	b29a      	uxth	r2, r3
 8001662:	683b      	ldr	r3, [r7, #0]
 8001664:	80da      	strh	r2, [r3, #6]
	iBus->SwA=(data[10] | data[11]<<8) & 0x0fff;
 8001666:	687b      	ldr	r3, [r7, #4]
 8001668:	330a      	adds	r3, #10
 800166a:	781b      	ldrb	r3, [r3, #0]
 800166c:	b21a      	sxth	r2, r3
 800166e:	687b      	ldr	r3, [r7, #4]
 8001670:	330b      	adds	r3, #11
 8001672:	781b      	ldrb	r3, [r3, #0]
 8001674:	021b      	lsls	r3, r3, #8
 8001676:	b21b      	sxth	r3, r3
 8001678:	4313      	orrs	r3, r2
 800167a:	b21b      	sxth	r3, r3
 800167c:	b29b      	uxth	r3, r3
 800167e:	f3c3 030b 	ubfx	r3, r3, #0, #12
 8001682:	b29a      	uxth	r2, r3
 8001684:	683b      	ldr	r3, [r7, #0]
 8001686:	811a      	strh	r2, [r3, #8]
	iBus->SwC=(data[12] | data[13]<<8) & 0x0fff;
 8001688:	687b      	ldr	r3, [r7, #4]
 800168a:	330c      	adds	r3, #12
 800168c:	781b      	ldrb	r3, [r3, #0]
 800168e:	b21a      	sxth	r2, r3
 8001690:	687b      	ldr	r3, [r7, #4]
 8001692:	330d      	adds	r3, #13
 8001694:	781b      	ldrb	r3, [r3, #0]
 8001696:	021b      	lsls	r3, r3, #8
 8001698:	b21b      	sxth	r3, r3
 800169a:	4313      	orrs	r3, r2
 800169c:	b21b      	sxth	r3, r3
 800169e:	b29b      	uxth	r3, r3
 80016a0:	f3c3 030b 	ubfx	r3, r3, #0, #12
 80016a4:	b29a      	uxth	r2, r3
 80016a6:	683b      	ldr	r3, [r7, #0]
 80016a8:	819a      	strh	r2, [r3, #12]
	iBus->SwD=(data[14] | data[15]<<8) & 0x0fff;
 80016aa:	687b      	ldr	r3, [r7, #4]
 80016ac:	330e      	adds	r3, #14
 80016ae:	781b      	ldrb	r3, [r3, #0]
 80016b0:	b21a      	sxth	r2, r3
 80016b2:	687b      	ldr	r3, [r7, #4]
 80016b4:	330f      	adds	r3, #15
 80016b6:	781b      	ldrb	r3, [r3, #0]
 80016b8:	021b      	lsls	r3, r3, #8
 80016ba:	b21b      	sxth	r3, r3
 80016bc:	4313      	orrs	r3, r2
 80016be:	b21b      	sxth	r3, r3
 80016c0:	b29b      	uxth	r3, r3
 80016c2:	f3c3 030b 	ubfx	r3, r3, #0, #12
 80016c6:	b29a      	uxth	r2, r3
 80016c8:	683b      	ldr	r3, [r7, #0]
 80016ca:	81da      	strh	r2, [r3, #14]

	iBus->FailSafe=iBus->SwD==1500;
 80016cc:	683b      	ldr	r3, [r7, #0]
 80016ce:	89db      	ldrh	r3, [r3, #14]
 80016d0:	f240 52dc 	movw	r2, #1500	; 0x5dc
 80016d4:	4293      	cmp	r3, r2
 80016d6:	bf0c      	ite	eq
 80016d8:	2301      	moveq	r3, #1
 80016da:	2300      	movne	r3, #0
 80016dc:	b2db      	uxtb	r3, r3
 80016de:	461a      	mov	r2, r3
 80016e0:	683b      	ldr	r3, [r7, #0]
 80016e2:	751a      	strb	r2, [r3, #20]
}
 80016e4:	bf00      	nop
 80016e6:	370c      	adds	r7, #12
 80016e8:	46bd      	mov	sp, r7
 80016ea:	f85d 7b04 	ldr.w	r7, [sp], #4
 80016ee:	4770      	bx	lr

080016f0 <iBus_IsActiveFailsafe>:

unsigned char iBus_IsActiveFailsafe(FSiA6B_iBus* iBus){
 80016f0:	b480      	push	{r7}
 80016f2:	b083      	sub	sp, #12
 80016f4:	af00      	add	r7, sp, #0
 80016f6:	6078      	str	r0, [r7, #4]
	return iBus->FailSafe!=0;
 80016f8:	687b      	ldr	r3, [r7, #4]
 80016fa:	7d1b      	ldrb	r3, [r3, #20]
 80016fc:	2b00      	cmp	r3, #0
 80016fe:	bf14      	ite	ne
 8001700:	2301      	movne	r3, #1
 8001702:	2300      	moveq	r3, #0
 8001704:	b2db      	uxtb	r3, r3
}
 8001706:	4618      	mov	r0, r3
 8001708:	370c      	adds	r7, #12
 800170a:	46bd      	mov	sp, r7
 800170c:	f85d 7b04 	ldr.w	r7, [sp], #4
 8001710:	4770      	bx	lr

08001712 <LL_SPI_Enable>:
{
 8001712:	b480      	push	{r7}
 8001714:	b083      	sub	sp, #12
 8001716:	af00      	add	r7, sp, #0
 8001718:	6078      	str	r0, [r7, #4]
  SET_BIT(SPIx->CR1, SPI_CR1_SPE);
 800171a:	687b      	ldr	r3, [r7, #4]
 800171c:	681b      	ldr	r3, [r3, #0]
 800171e:	f043 0240 	orr.w	r2, r3, #64	; 0x40
 8001722:	687b      	ldr	r3, [r7, #4]
 8001724:	601a      	str	r2, [r3, #0]
}
 8001726:	bf00      	nop
 8001728:	370c      	adds	r7, #12
 800172a:	46bd      	mov	sp, r7
 800172c:	f85d 7b04 	ldr.w	r7, [sp], #4
 8001730:	4770      	bx	lr

08001732 <LL_SPI_SetStandard>:
{
 8001732:	b480      	push	{r7}
 8001734:	b083      	sub	sp, #12
 8001736:	af00      	add	r7, sp, #0
 8001738:	6078      	str	r0, [r7, #4]
 800173a:	6039      	str	r1, [r7, #0]
  MODIFY_REG(SPIx->CR2, SPI_CR2_FRF, Standard);
 800173c:	687b      	ldr	r3, [r7, #4]
 800173e:	685b      	ldr	r3, [r3, #4]
 8001740:	f023 0210 	bic.w	r2, r3, #16
 8001744:	683b      	ldr	r3, [r7, #0]
 8001746:	431a      	orrs	r2, r3
 8001748:	687b      	ldr	r3, [r7, #4]
 800174a:	605a      	str	r2, [r3, #4]
}
 800174c:	bf00      	nop
 800174e:	370c      	adds	r7, #12
 8001750:	46bd      	mov	sp, r7
 8001752:	f85d 7b04 	ldr.w	r7, [sp], #4
 8001756:	4770      	bx	lr

08001758 <LL_SPI_IsActiveFlag_RXNE>:
{
 8001758:	b480      	push	{r7}
 800175a:	b083      	sub	sp, #12
 800175c:	af00      	add	r7, sp, #0
 800175e:	6078      	str	r0, [r7, #4]
  return ((READ_BIT(SPIx->SR, SPI_SR_RXNE) == (SPI_SR_RXNE)) ? 1UL : 0UL);
 8001760:	687b      	ldr	r3, [r7, #4]
 8001762:	689b      	ldr	r3, [r3, #8]
 8001764:	f003 0301 	and.w	r3, r3, #1
 8001768:	2b01      	cmp	r3, #1
 800176a:	d101      	bne.n	8001770 <LL_SPI_IsActiveFlag_RXNE+0x18>
 800176c:	2301      	movs	r3, #1
 800176e:	e000      	b.n	8001772 <LL_SPI_IsActiveFlag_RXNE+0x1a>
 8001770:	2300      	movs	r3, #0
}
 8001772:	4618      	mov	r0, r3
 8001774:	370c      	adds	r7, #12
 8001776:	46bd      	mov	sp, r7
 8001778:	f85d 7b04 	ldr.w	r7, [sp], #4
 800177c:	4770      	bx	lr

0800177e <LL_SPI_IsActiveFlag_TXE>:
{
 800177e:	b480      	push	{r7}
 8001780:	b083      	sub	sp, #12
 8001782:	af00      	add	r7, sp, #0
 8001784:	6078      	str	r0, [r7, #4]
  return ((READ_BIT(SPIx->SR, SPI_SR_TXE) == (SPI_SR_TXE)) ? 1UL : 0UL);
 8001786:	687b      	ldr	r3, [r7, #4]
 8001788:	689b      	ldr	r3, [r3, #8]
 800178a:	f003 0302 	and.w	r3, r3, #2
 800178e:	2b02      	cmp	r3, #2
 8001790:	d101      	bne.n	8001796 <LL_SPI_IsActiveFlag_TXE+0x18>
 8001792:	2301      	movs	r3, #1
 8001794:	e000      	b.n	8001798 <LL_SPI_IsActiveFlag_TXE+0x1a>
 8001796:	2300      	movs	r3, #0
}
 8001798:	4618      	mov	r0, r3
 800179a:	370c      	adds	r7, #12
 800179c:	46bd      	mov	sp, r7
 800179e:	f85d 7b04 	ldr.w	r7, [sp], #4
 80017a2:	4770      	bx	lr

080017a4 <LL_SPI_ReceiveData8>:
{
 80017a4:	b480      	push	{r7}
 80017a6:	b083      	sub	sp, #12
 80017a8:	af00      	add	r7, sp, #0
 80017aa:	6078      	str	r0, [r7, #4]
  return (uint8_t)(READ_REG(SPIx->DR));
 80017ac:	687b      	ldr	r3, [r7, #4]
 80017ae:	68db      	ldr	r3, [r3, #12]
 80017b0:	b2db      	uxtb	r3, r3
}
 80017b2:	4618      	mov	r0, r3
 80017b4:	370c      	adds	r7, #12
 80017b6:	46bd      	mov	sp, r7
 80017b8:	f85d 7b04 	ldr.w	r7, [sp], #4
 80017bc:	4770      	bx	lr

080017be <LL_SPI_TransmitData8>:
{
 80017be:	b480      	push	{r7}
 80017c0:	b085      	sub	sp, #20
 80017c2:	af00      	add	r7, sp, #0
 80017c4:	6078      	str	r0, [r7, #4]
 80017c6:	460b      	mov	r3, r1
 80017c8:	70fb      	strb	r3, [r7, #3]
  __IO uint8_t *spidr = ((__IO uint8_t *)&SPIx->DR);
 80017ca:	687b      	ldr	r3, [r7, #4]
 80017cc:	330c      	adds	r3, #12
 80017ce:	60fb      	str	r3, [r7, #12]
  *spidr = TxData;
 80017d0:	68fb      	ldr	r3, [r7, #12]
 80017d2:	78fa      	ldrb	r2, [r7, #3]
 80017d4:	701a      	strb	r2, [r3, #0]
}
 80017d6:	bf00      	nop
 80017d8:	3714      	adds	r7, #20
 80017da:	46bd      	mov	sp, r7
 80017dc:	f85d 7b04 	ldr.w	r7, [sp], #4
 80017e0:	4770      	bx	lr

080017e2 <LL_GPIO_SetOutputPin>:
{
 80017e2:	b480      	push	{r7}
 80017e4:	b083      	sub	sp, #12
 80017e6:	af00      	add	r7, sp, #0
 80017e8:	6078      	str	r0, [r7, #4]
 80017ea:	6039      	str	r1, [r7, #0]
  WRITE_REG(GPIOx->BSRR, PinMask);
 80017ec:	687b      	ldr	r3, [r7, #4]
 80017ee:	683a      	ldr	r2, [r7, #0]
 80017f0:	619a      	str	r2, [r3, #24]
}
 80017f2:	bf00      	nop
 80017f4:	370c      	adds	r7, #12
 80017f6:	46bd      	mov	sp, r7
 80017f8:	f85d 7b04 	ldr.w	r7, [sp], #4
 80017fc:	4770      	bx	lr

080017fe <LL_GPIO_ResetOutputPin>:
{
 80017fe:	b480      	push	{r7}
 8001800:	b083      	sub	sp, #12
 8001802:	af00      	add	r7, sp, #0
 8001804:	6078      	str	r0, [r7, #4]
 8001806:	6039      	str	r1, [r7, #0]
  WRITE_REG(GPIOx->BSRR, (PinMask << 16));
 8001808:	683b      	ldr	r3, [r7, #0]
 800180a:	041a      	lsls	r2, r3, #16
 800180c:	687b      	ldr	r3, [r7, #4]
 800180e:	619a      	str	r2, [r3, #24]
}
 8001810:	bf00      	nop
 8001812:	370c      	adds	r7, #12
 8001814:	46bd      	mov	sp, r7
 8001816:	f85d 7b04 	ldr.w	r7, [sp], #4
 800181a:	4770      	bx	lr

0800181c <LL_AHB1_GRP1_EnableClock>:
{
 800181c:	b480      	push	{r7}
 800181e:	b085      	sub	sp, #20
 8001820:	af00      	add	r7, sp, #0
 8001822:	6078      	str	r0, [r7, #4]
  SET_BIT(RCC->AHB1ENR, Periphs);
 8001824:	4b08      	ldr	r3, [pc, #32]	; (8001848 <LL_AHB1_GRP1_EnableClock+0x2c>)
 8001826:	6b1a      	ldr	r2, [r3, #48]	; 0x30
 8001828:	4907      	ldr	r1, [pc, #28]	; (8001848 <LL_AHB1_GRP1_EnableClock+0x2c>)
 800182a:	687b      	ldr	r3, [r7, #4]
 800182c:	4313      	orrs	r3, r2
 800182e:	630b      	str	r3, [r1, #48]	; 0x30
  tmpreg = READ_BIT(RCC->AHB1ENR, Periphs);
 8001830:	4b05      	ldr	r3, [pc, #20]	; (8001848 <LL_AHB1_GRP1_EnableClock+0x2c>)
 8001832:	6b1a      	ldr	r2, [r3, #48]	; 0x30
 8001834:	687b      	ldr	r3, [r7, #4]
 8001836:	4013      	ands	r3, r2
 8001838:	60fb      	str	r3, [r7, #12]
  (void)tmpreg;
 800183a:	68fb      	ldr	r3, [r7, #12]
}
 800183c:	bf00      	nop
 800183e:	3714      	adds	r7, #20
 8001840:	46bd      	mov	sp, r7
 8001842:	f85d 7b04 	ldr.w	r7, [sp], #4
 8001846:	4770      	bx	lr
 8001848:	40023800 	.word	0x40023800

0800184c <LL_APB2_GRP1_EnableClock>:
  *
  *         (*) value not defined in all devices.
  * @retval None
*/
__STATIC_INLINE void LL_APB2_GRP1_EnableClock(uint32_t Periphs)
{
 800184c:	b480      	push	{r7}
 800184e:	b085      	sub	sp, #20
 8001850:	af00      	add	r7, sp, #0
 8001852:	6078      	str	r0, [r7, #4]
  __IO uint32_t tmpreg;
  SET_BIT(RCC->APB2ENR, Periphs);
 8001854:	4b08      	ldr	r3, [pc, #32]	; (8001878 <LL_APB2_GRP1_EnableClock+0x2c>)
 8001856:	6c5a      	ldr	r2, [r3, #68]	; 0x44
 8001858:	4907      	ldr	r1, [pc, #28]	; (8001878 <LL_APB2_GRP1_EnableClock+0x2c>)
 800185a:	687b      	ldr	r3, [r7, #4]
 800185c:	4313      	orrs	r3, r2
 800185e:	644b      	str	r3, [r1, #68]	; 0x44
  /* Delay after an RCC peripheral clock enabling */
  tmpreg = READ_BIT(RCC->APB2ENR, Periphs);
 8001860:	4b05      	ldr	r3, [pc, #20]	; (8001878 <LL_APB2_GRP1_EnableClock+0x2c>)
 8001862:	6c5a      	ldr	r2, [r3, #68]	; 0x44
 8001864:	687b      	ldr	r3, [r7, #4]
 8001866:	4013      	ands	r3, r2
 8001868:	60fb      	str	r3, [r7, #12]
  (void)tmpreg;
 800186a:	68fb      	ldr	r3, [r7, #12]
}
 800186c:	bf00      	nop
 800186e:	3714      	adds	r7, #20
 8001870:	46bd      	mov	sp, r7
 8001872:	f85d 7b04 	ldr.w	r7, [sp], #4
 8001876:	4770      	bx	lr
 8001878:	40023800 	.word	0x40023800

0800187c <ICM20602_GPIO_SPI_Initialization>:
Struct_ICM20602 ICM20602;
int32_t gyro_x_offset, gyro_y_offset, gyro_z_offset; // To remove offset


void ICM20602_GPIO_SPI_Initialization(void)
{
 800187c:	b580      	push	{r7, lr}
 800187e:	b090      	sub	sp, #64	; 0x40
 8001880:	af00      	add	r7, sp, #0
	LL_SPI_InitTypeDef SPI_InitStruct = {0};
 8001882:	f107 0318 	add.w	r3, r7, #24
 8001886:	2228      	movs	r2, #40	; 0x28
 8001888:	2100      	movs	r1, #0
 800188a:	4618      	mov	r0, r3
 800188c:	f003 fd1a 	bl	80052c4 <memset>
	
	LL_GPIO_InitTypeDef GPIO_InitStruct = {0};
 8001890:	463b      	mov	r3, r7
 8001892:	2200      	movs	r2, #0
 8001894:	601a      	str	r2, [r3, #0]
 8001896:	605a      	str	r2, [r3, #4]
 8001898:	609a      	str	r2, [r3, #8]
 800189a:	60da      	str	r2, [r3, #12]
 800189c:	611a      	str	r2, [r3, #16]
 800189e:	615a      	str	r2, [r3, #20]
	/* Peripheral clock enable */
	LL_APB2_GRP1_EnableClock(LL_APB2_GRP1_PERIPH_SPI1);
 80018a0:	f44f 5080 	mov.w	r0, #4096	; 0x1000
 80018a4:	f7ff ffd2 	bl	800184c <LL_APB2_GRP1_EnableClock>
	
	LL_AHB1_GRP1_EnableClock(LL_AHB1_GRP1_PERIPH_GPIOA);
 80018a8:	2001      	movs	r0, #1
 80018aa:	f7ff ffb7 	bl	800181c <LL_AHB1_GRP1_EnableClock>
	LL_AHB1_GRP1_EnableClock(LL_AHB1_GRP1_PERIPH_GPIOC);
 80018ae:	2004      	movs	r0, #4
 80018b0:	f7ff ffb4 	bl	800181c <LL_AHB1_GRP1_EnableClock>
	/**SPI1 GPIO Configuration
	PA5   ------> SPI1_SCK
	PA6   ------> SPI1_MISO
	PA7   ------> SPI1_MOSI
	*/
	GPIO_InitStruct.Pin = LL_GPIO_PIN_5|LL_GPIO_PIN_6|LL_GPIO_PIN_7;
 80018b4:	23e0      	movs	r3, #224	; 0xe0
 80018b6:	603b      	str	r3, [r7, #0]
	GPIO_InitStruct.Mode = LL_GPIO_MODE_ALTERNATE;
 80018b8:	2302      	movs	r3, #2
 80018ba:	607b      	str	r3, [r7, #4]
	GPIO_InitStruct.Speed = LL_GPIO_SPEED_FREQ_VERY_HIGH;
 80018bc:	2303      	movs	r3, #3
 80018be:	60bb      	str	r3, [r7, #8]
	GPIO_InitStruct.OutputType = LL_GPIO_OUTPUT_PUSHPULL;
 80018c0:	2300      	movs	r3, #0
 80018c2:	60fb      	str	r3, [r7, #12]
	GPIO_InitStruct.Pull = LL_GPIO_PULL_NO;
 80018c4:	2300      	movs	r3, #0
 80018c6:	613b      	str	r3, [r7, #16]
	GPIO_InitStruct.Alternate = LL_GPIO_AF_5;
 80018c8:	2305      	movs	r3, #5
 80018ca:	617b      	str	r3, [r7, #20]
	LL_GPIO_Init(GPIOA, &GPIO_InitStruct);
 80018cc:	463b      	mov	r3, r7
 80018ce:	4619      	mov	r1, r3
 80018d0:	4825      	ldr	r0, [pc, #148]	; (8001968 <ICM20602_GPIO_SPI_Initialization+0xec>)
 80018d2:	f002 fd61 	bl	8004398 <LL_GPIO_Init>
	
	SPI_InitStruct.TransferDirection = LL_SPI_FULL_DUPLEX;
 80018d6:	2300      	movs	r3, #0
 80018d8:	61bb      	str	r3, [r7, #24]
	SPI_InitStruct.Mode = LL_SPI_MODE_MASTER;
 80018da:	f44f 7382 	mov.w	r3, #260	; 0x104
 80018de:	61fb      	str	r3, [r7, #28]
	SPI_InitStruct.DataWidth = LL_SPI_DATAWIDTH_8BIT;
 80018e0:	2300      	movs	r3, #0
 80018e2:	623b      	str	r3, [r7, #32]
	SPI_InitStruct.ClockPolarity = LL_SPI_POLARITY_HIGH;
 80018e4:	2302      	movs	r3, #2
 80018e6:	627b      	str	r3, [r7, #36]	; 0x24
	SPI_InitStruct.ClockPhase = LL_SPI_PHASE_2EDGE;
 80018e8:	2301      	movs	r3, #1
 80018ea:	62bb      	str	r3, [r7, #40]	; 0x28
	SPI_InitStruct.NSS = LL_SPI_NSS_SOFT;
 80018ec:	f44f 7300 	mov.w	r3, #512	; 0x200
 80018f0:	62fb      	str	r3, [r7, #44]	; 0x2c
	SPI_InitStruct.BaudRate = LL_SPI_BAUDRATEPRESCALER_DIV8; //ICM-20602 MAX SPI CLK is 10MHz. But DIV2(42MHz) is available.
 80018f2:	2310      	movs	r3, #16
 80018f4:	633b      	str	r3, [r7, #48]	; 0x30
	SPI_InitStruct.BitOrder = LL_SPI_MSB_FIRST;
 80018f6:	2300      	movs	r3, #0
 80018f8:	637b      	str	r3, [r7, #52]	; 0x34
	SPI_InitStruct.CRCCalculation = LL_SPI_CRCCALCULATION_DISABLE;
 80018fa:	2300      	movs	r3, #0
 80018fc:	63bb      	str	r3, [r7, #56]	; 0x38
	SPI_InitStruct.CRCPoly = 10;
 80018fe:	230a      	movs	r3, #10
 8001900:	63fb      	str	r3, [r7, #60]	; 0x3c
	LL_SPI_Init(ICM20602_SPI_CHANNEL, &SPI_InitStruct);
 8001902:	f107 0318 	add.w	r3, r7, #24
 8001906:	4619      	mov	r1, r3
 8001908:	4818      	ldr	r0, [pc, #96]	; (800196c <ICM20602_GPIO_SPI_Initialization+0xf0>)
 800190a:	f002 ff14 	bl	8004736 <LL_SPI_Init>
	LL_SPI_SetStandard(ICM20602_SPI_CHANNEL, LL_SPI_PROTOCOL_MOTOROLA);
 800190e:	2100      	movs	r1, #0
 8001910:	4816      	ldr	r0, [pc, #88]	; (800196c <ICM20602_GPIO_SPI_Initialization+0xf0>)
 8001912:	f7ff ff0e 	bl	8001732 <LL_SPI_SetStandard>
	/**ICM20602 GPIO Control Configuration
	 * PC4  ------> ICM20602_SPI_CS_PIN (output)
	 * PC5  ------> ICM20602_INT_PIN (input)
	 */
	/**/
	LL_GPIO_ResetOutputPin(ICM20602_SPI_CS_PORT, ICM20602_SPI_CS_PIN);
 8001916:	2110      	movs	r1, #16
 8001918:	4815      	ldr	r0, [pc, #84]	; (8001970 <ICM20602_GPIO_SPI_Initialization+0xf4>)
 800191a:	f7ff ff70 	bl	80017fe <LL_GPIO_ResetOutputPin>
	
	/**/
	GPIO_InitStruct.Pin = ICM20602_SPI_CS_PIN;
 800191e:	2310      	movs	r3, #16
 8001920:	603b      	str	r3, [r7, #0]
	GPIO_InitStruct.Mode = LL_GPIO_MODE_OUTPUT;
 8001922:	2301      	movs	r3, #1
 8001924:	607b      	str	r3, [r7, #4]
	GPIO_InitStruct.Speed = LL_GPIO_SPEED_FREQ_VERY_HIGH;
 8001926:	2303      	movs	r3, #3
 8001928:	60bb      	str	r3, [r7, #8]
	GPIO_InitStruct.OutputType = LL_GPIO_OUTPUT_PUSHPULL;
 800192a:	2300      	movs	r3, #0
 800192c:	60fb      	str	r3, [r7, #12]
	GPIO_InitStruct.Pull = LL_GPIO_PULL_NO;
 800192e:	2300      	movs	r3, #0
 8001930:	613b      	str	r3, [r7, #16]
	LL_GPIO_Init(ICM20602_SPI_CS_PORT, &GPIO_InitStruct);
 8001932:	463b      	mov	r3, r7
 8001934:	4619      	mov	r1, r3
 8001936:	480e      	ldr	r0, [pc, #56]	; (8001970 <ICM20602_GPIO_SPI_Initialization+0xf4>)
 8001938:	f002 fd2e 	bl	8004398 <LL_GPIO_Init>
	
	/**/
	GPIO_InitStruct.Pin = ICM20602_INT_PIN;
 800193c:	2320      	movs	r3, #32
 800193e:	603b      	str	r3, [r7, #0]
	GPIO_InitStruct.Mode = LL_GPIO_MODE_INPUT;
 8001940:	2300      	movs	r3, #0
 8001942:	607b      	str	r3, [r7, #4]
	GPIO_InitStruct.Pull = LL_GPIO_PULL_UP;
 8001944:	2301      	movs	r3, #1
 8001946:	613b      	str	r3, [r7, #16]
	LL_GPIO_Init(ICM20602_INT_PORT, &GPIO_InitStruct);
 8001948:	463b      	mov	r3, r7
 800194a:	4619      	mov	r1, r3
 800194c:	4808      	ldr	r0, [pc, #32]	; (8001970 <ICM20602_GPIO_SPI_Initialization+0xf4>)
 800194e:	f002 fd23 	bl	8004398 <LL_GPIO_Init>

	LL_SPI_Enable(ICM20602_SPI_CHANNEL);
 8001952:	4806      	ldr	r0, [pc, #24]	; (800196c <ICM20602_GPIO_SPI_Initialization+0xf0>)
 8001954:	f7ff fedd 	bl	8001712 <LL_SPI_Enable>

	CHIP_DESELECT(ICM20602);
 8001958:	2110      	movs	r1, #16
 800195a:	4805      	ldr	r0, [pc, #20]	; (8001970 <ICM20602_GPIO_SPI_Initialization+0xf4>)
 800195c:	f7ff ff41 	bl	80017e2 <LL_GPIO_SetOutputPin>
}
 8001960:	bf00      	nop
 8001962:	3740      	adds	r7, #64	; 0x40
 8001964:	46bd      	mov	sp, r7
 8001966:	bd80      	pop	{r7, pc}
 8001968:	40020000 	.word	0x40020000
 800196c:	40013000 	.word	0x40013000
 8001970:	40020800 	.word	0x40020800

08001974 <SPI1_SendByte>:


unsigned char SPI1_SendByte(unsigned char data)
{
 8001974:	b580      	push	{r7, lr}
 8001976:	b082      	sub	sp, #8
 8001978:	af00      	add	r7, sp, #0
 800197a:	4603      	mov	r3, r0
 800197c:	71fb      	strb	r3, [r7, #7]
	while(LL_SPI_IsActiveFlag_TXE(ICM20602_SPI_CHANNEL)==RESET);
 800197e:	bf00      	nop
 8001980:	480c      	ldr	r0, [pc, #48]	; (80019b4 <SPI1_SendByte+0x40>)
 8001982:	f7ff fefc 	bl	800177e <LL_SPI_IsActiveFlag_TXE>
 8001986:	4603      	mov	r3, r0
 8001988:	2b00      	cmp	r3, #0
 800198a:	d0f9      	beq.n	8001980 <SPI1_SendByte+0xc>
	LL_SPI_TransmitData8(ICM20602_SPI_CHANNEL, data);
 800198c:	79fb      	ldrb	r3, [r7, #7]
 800198e:	4619      	mov	r1, r3
 8001990:	4808      	ldr	r0, [pc, #32]	; (80019b4 <SPI1_SendByte+0x40>)
 8001992:	f7ff ff14 	bl	80017be <LL_SPI_TransmitData8>
	
	while(LL_SPI_IsActiveFlag_RXNE(ICM20602_SPI_CHANNEL)==RESET);
 8001996:	bf00      	nop
 8001998:	4806      	ldr	r0, [pc, #24]	; (80019b4 <SPI1_SendByte+0x40>)
 800199a:	f7ff fedd 	bl	8001758 <LL_SPI_IsActiveFlag_RXNE>
 800199e:	4603      	mov	r3, r0
 80019a0:	2b00      	cmp	r3, #0
 80019a2:	d0f9      	beq.n	8001998 <SPI1_SendByte+0x24>
	return LL_SPI_ReceiveData8(ICM20602_SPI_CHANNEL);
 80019a4:	4803      	ldr	r0, [pc, #12]	; (80019b4 <SPI1_SendByte+0x40>)
 80019a6:	f7ff fefd 	bl	80017a4 <LL_SPI_ReceiveData8>
 80019aa:	4603      	mov	r3, r0
}
 80019ac:	4618      	mov	r0, r3
 80019ae:	3708      	adds	r7, #8
 80019b0:	46bd      	mov	sp, r7
 80019b2:	bd80      	pop	{r7, pc}
 80019b4:	40013000 	.word	0x40013000

080019b8 <ICM20602_Readbyte>:

//////////////////////////////////////////////////////////////

uint8_t ICM20602_Readbyte(uint8_t reg_addr)
{
 80019b8:	b580      	push	{r7, lr}
 80019ba:	b084      	sub	sp, #16
 80019bc:	af00      	add	r7, sp, #0
 80019be:	4603      	mov	r3, r0
 80019c0:	71fb      	strb	r3, [r7, #7]
	uint8_t val;

	CHIP_SELECT(ICM20602);
 80019c2:	2110      	movs	r1, #16
 80019c4:	480b      	ldr	r0, [pc, #44]	; (80019f4 <ICM20602_Readbyte+0x3c>)
 80019c6:	f7ff ff1a 	bl	80017fe <LL_GPIO_ResetOutputPin>
	SPI1_SendByte(reg_addr | 0x80); //Register. MSB 1 is read instruction.
 80019ca:	79fb      	ldrb	r3, [r7, #7]
 80019cc:	f063 037f 	orn	r3, r3, #127	; 0x7f
 80019d0:	b2db      	uxtb	r3, r3
 80019d2:	4618      	mov	r0, r3
 80019d4:	f7ff ffce 	bl	8001974 <SPI1_SendByte>
	val = SPI1_SendByte(0x00); //Send DUMMY to read data
 80019d8:	2000      	movs	r0, #0
 80019da:	f7ff ffcb 	bl	8001974 <SPI1_SendByte>
 80019de:	4603      	mov	r3, r0
 80019e0:	73fb      	strb	r3, [r7, #15]
	CHIP_DESELECT(ICM20602);
 80019e2:	2110      	movs	r1, #16
 80019e4:	4803      	ldr	r0, [pc, #12]	; (80019f4 <ICM20602_Readbyte+0x3c>)
 80019e6:	f7ff fefc 	bl	80017e2 <LL_GPIO_SetOutputPin>
	
	return val;
 80019ea:	7bfb      	ldrb	r3, [r7, #15]
}
 80019ec:	4618      	mov	r0, r3
 80019ee:	3710      	adds	r7, #16
 80019f0:	46bd      	mov	sp, r7
 80019f2:	bd80      	pop	{r7, pc}
 80019f4:	40020800 	.word	0x40020800

080019f8 <ICM20602_Writebyte>:
	}
	CHIP_DESELECT(ICM20602);
}

void ICM20602_Writebyte(uint8_t reg_addr, uint8_t val)
{
 80019f8:	b580      	push	{r7, lr}
 80019fa:	b082      	sub	sp, #8
 80019fc:	af00      	add	r7, sp, #0
 80019fe:	4603      	mov	r3, r0
 8001a00:	460a      	mov	r2, r1
 8001a02:	71fb      	strb	r3, [r7, #7]
 8001a04:	4613      	mov	r3, r2
 8001a06:	71bb      	strb	r3, [r7, #6]
	CHIP_SELECT(ICM20602);
 8001a08:	2110      	movs	r1, #16
 8001a0a:	480b      	ldr	r0, [pc, #44]	; (8001a38 <ICM20602_Writebyte+0x40>)
 8001a0c:	f7ff fef7 	bl	80017fe <LL_GPIO_ResetOutputPin>
	SPI1_SendByte(reg_addr & 0x7F); //Register. MSB 0 is write instruction.
 8001a10:	79fb      	ldrb	r3, [r7, #7]
 8001a12:	f003 037f 	and.w	r3, r3, #127	; 0x7f
 8001a16:	b2db      	uxtb	r3, r3
 8001a18:	4618      	mov	r0, r3
 8001a1a:	f7ff ffab 	bl	8001974 <SPI1_SendByte>
	SPI1_SendByte(val); //Send Data to write
 8001a1e:	79bb      	ldrb	r3, [r7, #6]
 8001a20:	4618      	mov	r0, r3
 8001a22:	f7ff ffa7 	bl	8001974 <SPI1_SendByte>
	CHIP_DESELECT(ICM20602);
 8001a26:	2110      	movs	r1, #16
 8001a28:	4803      	ldr	r0, [pc, #12]	; (8001a38 <ICM20602_Writebyte+0x40>)
 8001a2a:	f7ff feda 	bl	80017e2 <LL_GPIO_SetOutputPin>
}
 8001a2e:	bf00      	nop
 8001a30:	3708      	adds	r7, #8
 8001a32:	46bd      	mov	sp, r7
 8001a34:	bd80      	pop	{r7, pc}
 8001a36:	bf00      	nop
 8001a38:	40020800 	.word	0x40020800

08001a3c <ICM20602_Initialization>:
	CHIP_DESELECT(ICM20602);
}


int ICM20602_Initialization(void)
{
 8001a3c:	b580      	push	{r7, lr}
 8001a3e:	b084      	sub	sp, #16
 8001a40:	af00      	add	r7, sp, #0

	uint8_t who_am_i = 0;
 8001a42:	2300      	movs	r3, #0
 8001a44:	73fb      	strb	r3, [r7, #15]
	int16_t accel_raw_data[3] = {0};  // To remove offset
 8001a46:	f107 0308 	add.w	r3, r7, #8
 8001a4a:	2200      	movs	r2, #0
 8001a4c:	601a      	str	r2, [r3, #0]
 8001a4e:	809a      	strh	r2, [r3, #4]
	int16_t gyro_raw_data[3] = {0};   // To remove offset
 8001a50:	463b      	mov	r3, r7
 8001a52:	2200      	movs	r2, #0
 8001a54:	601a      	str	r2, [r3, #0]
 8001a56:	809a      	strh	r2, [r3, #4]
	
	ICM20602_GPIO_SPI_Initialization();
 8001a58:	f7ff ff10 	bl	800187c <ICM20602_GPIO_SPI_Initialization>
	
	printf("Checking ICM20602...");
 8001a5c:	4833      	ldr	r0, [pc, #204]	; (8001b2c <ICM20602_Initialization+0xf0>)
 8001a5e:	f004 f895 	bl	8005b8c <iprintf>
	
	// check WHO_AM_I (0x75)
	who_am_i = ICM20602_Readbyte(WHO_AM_I); 
 8001a62:	2075      	movs	r0, #117	; 0x75
 8001a64:	f7ff ffa8 	bl	80019b8 <ICM20602_Readbyte>
 8001a68:	4603      	mov	r3, r0
 8001a6a:	73fb      	strb	r3, [r7, #15]

	// who am i = 0x12
	if(who_am_i == 0x12)
 8001a6c:	7bfb      	ldrb	r3, [r7, #15]
 8001a6e:	2b12      	cmp	r3, #18
 8001a70:	d105      	bne.n	8001a7e <ICM20602_Initialization+0x42>
	{
		printf("\nICM20602 who_am_i = 0x%02x...OK\n\n", who_am_i);
 8001a72:	7bfb      	ldrb	r3, [r7, #15]
 8001a74:	4619      	mov	r1, r3
 8001a76:	482e      	ldr	r0, [pc, #184]	; (8001b30 <ICM20602_Initialization+0xf4>)
 8001a78:	f004 f888 	bl	8005b8c <iprintf>
 8001a7c:	e012      	b.n	8001aa4 <ICM20602_Initialization+0x68>
	}
	// recheck
	else if(who_am_i != 0x12)
 8001a7e:	7bfb      	ldrb	r3, [r7, #15]
 8001a80:	2b12      	cmp	r3, #18
 8001a82:	d00f      	beq.n	8001aa4 <ICM20602_Initialization+0x68>
	{
		who_am_i = ICM20602_Readbyte(WHO_AM_I); // check again WHO_AM_I (0x75)
 8001a84:	2075      	movs	r0, #117	; 0x75
 8001a86:	f7ff ff97 	bl	80019b8 <ICM20602_Readbyte>
 8001a8a:	4603      	mov	r3, r0
 8001a8c:	73fb      	strb	r3, [r7, #15]

		if (who_am_i != 0x12){
 8001a8e:	7bfb      	ldrb	r3, [r7, #15]
 8001a90:	2b12      	cmp	r3, #18
 8001a92:	d007      	beq.n	8001aa4 <ICM20602_Initialization+0x68>
			printf( "ICM20602 Not OK: 0x%02x Should be 0x%02x\n", who_am_i, 0x12);
 8001a94:	7bfb      	ldrb	r3, [r7, #15]
 8001a96:	2212      	movs	r2, #18
 8001a98:	4619      	mov	r1, r3
 8001a9a:	4826      	ldr	r0, [pc, #152]	; (8001b34 <ICM20602_Initialization+0xf8>)
 8001a9c:	f004 f876 	bl	8005b8c <iprintf>
			return 1; //ERROR
 8001aa0:	2301      	movs	r3, #1
 8001aa2:	e03f      	b.n	8001b24 <ICM20602_Initialization+0xe8>
		}
	}
	
	// Reset ICM20602
	// PWR_MGMT_1 0x6B
	ICM20602_Writebyte(PWR_MGMT_1, 0x80); //Reset ICM20602
 8001aa4:	2180      	movs	r1, #128	; 0x80
 8001aa6:	206b      	movs	r0, #107	; 0x6b
 8001aa8:	f7ff ffa6 	bl	80019f8 <ICM20602_Writebyte>
	HAL_Delay(50);
 8001aac:	2032      	movs	r0, #50	; 0x32
 8001aae:	f001 fe23 	bl	80036f8 <HAL_Delay>

	// PWR_MGMT_1 0x6B
	ICM20602_Writebyte(PWR_MGMT_1, 0x01); // Enable Temperature sensor(bit4-0), Use PLL(bit2:0-01)
 8001ab2:	2101      	movs	r1, #1
 8001ab4:	206b      	movs	r0, #107	; 0x6b
 8001ab6:	f7ff ff9f 	bl	80019f8 <ICM20602_Writebyte>
									//      
	HAL_Delay(50);
 8001aba:	2032      	movs	r0, #50	; 0x32
 8001abc:	f001 fe1c 	bl	80036f8 <HAL_Delay>

	// PWR_MGMT_2 0x6C
	ICM20602_Writebyte(PWR_MGMT_2, 0x38); // Disable Acc(bit5:3-111), Enable Gyro(bit2:0-000)
 8001ac0:	2138      	movs	r1, #56	; 0x38
 8001ac2:	206c      	movs	r0, #108	; 0x6c
 8001ac4:	f7ff ff98 	bl	80019f8 <ICM20602_Writebyte>
	//ICM20602_Writebyte( PWR_MGMT_2, 0x00 ); // Enable Acc(bit5:3-000), Enable Gyro(bit2:0-000)
	HAL_Delay(50);
 8001ac8:	2032      	movs	r0, #50	; 0x32
 8001aca:	f001 fe15 	bl	80036f8 <HAL_Delay>
	
	// set sample rate to 1000Hz and apply a software filter
	ICM20602_Writebyte(SMPLRT_DIV, 0x00);
 8001ace:	2100      	movs	r1, #0
 8001ad0:	2019      	movs	r0, #25
 8001ad2:	f7ff ff91 	bl	80019f8 <ICM20602_Writebyte>
	HAL_Delay(50);
 8001ad6:	2032      	movs	r0, #50	; 0x32
 8001ad8:	f001 fe0e 	bl	80036f8 <HAL_Delay>
	
	// Gyro DLPF Config
	//ICM20602_Writebyte(CONFIG, 0x00); // Gyro LPF fc 250Hz(bit2:0-000)
	ICM20602_Writebyte(CONFIG, 0x05); // Gyro LPF fc 20Hz(bit2:0-100) at 1kHz sample rate
 8001adc:	2105      	movs	r1, #5
 8001ade:	201a      	movs	r0, #26
 8001ae0:	f7ff ff8a 	bl	80019f8 <ICM20602_Writebyte>
	HAL_Delay(50);
 8001ae4:	2032      	movs	r0, #50	; 0x32
 8001ae6:	f001 fe07 	bl	80036f8 <HAL_Delay>

	// GYRO_CONFIG 0x1B
	ICM20602_Writebyte(GYRO_CONFIG, 0x18); // Gyro sensitivity 2000 dps(bit4:3-11), FCHOICE (bit1:0-00)
 8001aea:	2118      	movs	r1, #24
 8001aec:	201b      	movs	r0, #27
 8001aee:	f7ff ff83 	bl	80019f8 <ICM20602_Writebyte>
	HAL_Delay(50);
 8001af2:	2032      	movs	r0, #50	; 0x32
 8001af4:	f001 fe00 	bl	80036f8 <HAL_Delay>

	// ACCEL_CONFIG 0x1C
	ICM20602_Writebyte(ACCEL_CONFIG, 0x18); // Acc sensitivity 16g
 8001af8:	2118      	movs	r1, #24
 8001afa:	201c      	movs	r0, #28
 8001afc:	f7ff ff7c 	bl	80019f8 <ICM20602_Writebyte>
	HAL_Delay(50);
 8001b00:	2032      	movs	r0, #50	; 0x32
 8001b02:	f001 fdf9 	bl	80036f8 <HAL_Delay>
	
	// ACCEL_CONFIG2 0x1D
	ICM20602_Writebyte(ACCEL_CONFIG2, 0x03); // Acc FCHOICE 1kHz(bit3-0), DLPF fc 44.8Hz(bit2:0-011)
 8001b06:	2103      	movs	r1, #3
 8001b08:	201d      	movs	r0, #29
 8001b0a:	f7ff ff75 	bl	80019f8 <ICM20602_Writebyte>
	HAL_Delay(50);
 8001b0e:	2032      	movs	r0, #50	; 0x32
 8001b10:	f001 fdf2 	bl	80036f8 <HAL_Delay>
	
	// Enable Interrupts when data is ready
	ICM20602_Writebyte(INT_ENABLE, 0x01); // Enable DRDY Interrupt
 8001b14:	2101      	movs	r1, #1
 8001b16:	2038      	movs	r0, #56	; 0x38
 8001b18:	f7ff ff6e 	bl	80019f8 <ICM20602_Writebyte>
	HAL_Delay(50);
 8001b1c:	2032      	movs	r0, #50	; 0x32
 8001b1e:	f001 fdeb 	bl	80036f8 <HAL_Delay>
//	
//	// Remove Gyro Z offset
//	ICM20602_Writebyte( ZG_OFFS_USRH, offset_z>>8 );	// gyro z offset high byte
//	ICM20602_Writebyte( ZG_OFFS_USRL, offset_z );	// gyro z offset low byte

	return 0; //OK
 8001b22:	2300      	movs	r3, #0
}
 8001b24:	4618      	mov	r0, r3
 8001b26:	3710      	adds	r7, #16
 8001b28:	46bd      	mov	sp, r7
 8001b2a:	bd80      	pop	{r7, pc}
 8001b2c:	08007ab4 	.word	0x08007ab4
 8001b30:	08007acc 	.word	0x08007acc
 8001b34:	08007af0 	.word	0x08007af0

08001b38 <LL_SPI_Enable>:
{
 8001b38:	b480      	push	{r7}
 8001b3a:	b083      	sub	sp, #12
 8001b3c:	af00      	add	r7, sp, #0
 8001b3e:	6078      	str	r0, [r7, #4]
  SET_BIT(SPIx->CR1, SPI_CR1_SPE);
 8001b40:	687b      	ldr	r3, [r7, #4]
 8001b42:	681b      	ldr	r3, [r3, #0]
 8001b44:	f043 0240 	orr.w	r2, r3, #64	; 0x40
 8001b48:	687b      	ldr	r3, [r7, #4]
 8001b4a:	601a      	str	r2, [r3, #0]
}
 8001b4c:	bf00      	nop
 8001b4e:	370c      	adds	r7, #12
 8001b50:	46bd      	mov	sp, r7
 8001b52:	f85d 7b04 	ldr.w	r7, [sp], #4
 8001b56:	4770      	bx	lr

08001b58 <LL_SPI_SetStandard>:
{
 8001b58:	b480      	push	{r7}
 8001b5a:	b083      	sub	sp, #12
 8001b5c:	af00      	add	r7, sp, #0
 8001b5e:	6078      	str	r0, [r7, #4]
 8001b60:	6039      	str	r1, [r7, #0]
  MODIFY_REG(SPIx->CR2, SPI_CR2_FRF, Standard);
 8001b62:	687b      	ldr	r3, [r7, #4]
 8001b64:	685b      	ldr	r3, [r3, #4]
 8001b66:	f023 0210 	bic.w	r2, r3, #16
 8001b6a:	683b      	ldr	r3, [r7, #0]
 8001b6c:	431a      	orrs	r2, r3
 8001b6e:	687b      	ldr	r3, [r7, #4]
 8001b70:	605a      	str	r2, [r3, #4]
}
 8001b72:	bf00      	nop
 8001b74:	370c      	adds	r7, #12
 8001b76:	46bd      	mov	sp, r7
 8001b78:	f85d 7b04 	ldr.w	r7, [sp], #4
 8001b7c:	4770      	bx	lr

08001b7e <LL_SPI_IsActiveFlag_RXNE>:
{
 8001b7e:	b480      	push	{r7}
 8001b80:	b083      	sub	sp, #12
 8001b82:	af00      	add	r7, sp, #0
 8001b84:	6078      	str	r0, [r7, #4]
  return ((READ_BIT(SPIx->SR, SPI_SR_RXNE) == (SPI_SR_RXNE)) ? 1UL : 0UL);
 8001b86:	687b      	ldr	r3, [r7, #4]
 8001b88:	689b      	ldr	r3, [r3, #8]
 8001b8a:	f003 0301 	and.w	r3, r3, #1
 8001b8e:	2b01      	cmp	r3, #1
 8001b90:	d101      	bne.n	8001b96 <LL_SPI_IsActiveFlag_RXNE+0x18>
 8001b92:	2301      	movs	r3, #1
 8001b94:	e000      	b.n	8001b98 <LL_SPI_IsActiveFlag_RXNE+0x1a>
 8001b96:	2300      	movs	r3, #0
}
 8001b98:	4618      	mov	r0, r3
 8001b9a:	370c      	adds	r7, #12
 8001b9c:	46bd      	mov	sp, r7
 8001b9e:	f85d 7b04 	ldr.w	r7, [sp], #4
 8001ba2:	4770      	bx	lr

08001ba4 <LL_SPI_IsActiveFlag_TXE>:
{
 8001ba4:	b480      	push	{r7}
 8001ba6:	b083      	sub	sp, #12
 8001ba8:	af00      	add	r7, sp, #0
 8001baa:	6078      	str	r0, [r7, #4]
  return ((READ_BIT(SPIx->SR, SPI_SR_TXE) == (SPI_SR_TXE)) ? 1UL : 0UL);
 8001bac:	687b      	ldr	r3, [r7, #4]
 8001bae:	689b      	ldr	r3, [r3, #8]
 8001bb0:	f003 0302 	and.w	r3, r3, #2
 8001bb4:	2b02      	cmp	r3, #2
 8001bb6:	d101      	bne.n	8001bbc <LL_SPI_IsActiveFlag_TXE+0x18>
 8001bb8:	2301      	movs	r3, #1
 8001bba:	e000      	b.n	8001bbe <LL_SPI_IsActiveFlag_TXE+0x1a>
 8001bbc:	2300      	movs	r3, #0
}
 8001bbe:	4618      	mov	r0, r3
 8001bc0:	370c      	adds	r7, #12
 8001bc2:	46bd      	mov	sp, r7
 8001bc4:	f85d 7b04 	ldr.w	r7, [sp], #4
 8001bc8:	4770      	bx	lr

08001bca <LL_SPI_ReceiveData8>:
{
 8001bca:	b480      	push	{r7}
 8001bcc:	b083      	sub	sp, #12
 8001bce:	af00      	add	r7, sp, #0
 8001bd0:	6078      	str	r0, [r7, #4]
  return (uint8_t)(READ_REG(SPIx->DR));
 8001bd2:	687b      	ldr	r3, [r7, #4]
 8001bd4:	68db      	ldr	r3, [r3, #12]
 8001bd6:	b2db      	uxtb	r3, r3
}
 8001bd8:	4618      	mov	r0, r3
 8001bda:	370c      	adds	r7, #12
 8001bdc:	46bd      	mov	sp, r7
 8001bde:	f85d 7b04 	ldr.w	r7, [sp], #4
 8001be2:	4770      	bx	lr

08001be4 <LL_SPI_TransmitData8>:
{
 8001be4:	b480      	push	{r7}
 8001be6:	b085      	sub	sp, #20
 8001be8:	af00      	add	r7, sp, #0
 8001bea:	6078      	str	r0, [r7, #4]
 8001bec:	460b      	mov	r3, r1
 8001bee:	70fb      	strb	r3, [r7, #3]
  __IO uint8_t *spidr = ((__IO uint8_t *)&SPIx->DR);
 8001bf0:	687b      	ldr	r3, [r7, #4]
 8001bf2:	330c      	adds	r3, #12
 8001bf4:	60fb      	str	r3, [r7, #12]
  *spidr = TxData;
 8001bf6:	68fb      	ldr	r3, [r7, #12]
 8001bf8:	78fa      	ldrb	r2, [r7, #3]
 8001bfa:	701a      	strb	r2, [r3, #0]
}
 8001bfc:	bf00      	nop
 8001bfe:	3714      	adds	r7, #20
 8001c00:	46bd      	mov	sp, r7
 8001c02:	f85d 7b04 	ldr.w	r7, [sp], #4
 8001c06:	4770      	bx	lr

08001c08 <LL_GPIO_SetOutputPin>:
{
 8001c08:	b480      	push	{r7}
 8001c0a:	b083      	sub	sp, #12
 8001c0c:	af00      	add	r7, sp, #0
 8001c0e:	6078      	str	r0, [r7, #4]
 8001c10:	6039      	str	r1, [r7, #0]
  WRITE_REG(GPIOx->BSRR, PinMask);
 8001c12:	687b      	ldr	r3, [r7, #4]
 8001c14:	683a      	ldr	r2, [r7, #0]
 8001c16:	619a      	str	r2, [r3, #24]
}
 8001c18:	bf00      	nop
 8001c1a:	370c      	adds	r7, #12
 8001c1c:	46bd      	mov	sp, r7
 8001c1e:	f85d 7b04 	ldr.w	r7, [sp], #4
 8001c22:	4770      	bx	lr

08001c24 <LL_GPIO_ResetOutputPin>:
{
 8001c24:	b480      	push	{r7}
 8001c26:	b083      	sub	sp, #12
 8001c28:	af00      	add	r7, sp, #0
 8001c2a:	6078      	str	r0, [r7, #4]
 8001c2c:	6039      	str	r1, [r7, #0]
  WRITE_REG(GPIOx->BSRR, (PinMask << 16));
 8001c2e:	683b      	ldr	r3, [r7, #0]
 8001c30:	041a      	lsls	r2, r3, #16
 8001c32:	687b      	ldr	r3, [r7, #4]
 8001c34:	619a      	str	r2, [r3, #24]
}
 8001c36:	bf00      	nop
 8001c38:	370c      	adds	r7, #12
 8001c3a:	46bd      	mov	sp, r7
 8001c3c:	f85d 7b04 	ldr.w	r7, [sp], #4
 8001c40:	4770      	bx	lr
	...

08001c44 <LL_AHB1_GRP1_EnableClock>:
{
 8001c44:	b480      	push	{r7}
 8001c46:	b085      	sub	sp, #20
 8001c48:	af00      	add	r7, sp, #0
 8001c4a:	6078      	str	r0, [r7, #4]
  SET_BIT(RCC->AHB1ENR, Periphs);
 8001c4c:	4b08      	ldr	r3, [pc, #32]	; (8001c70 <LL_AHB1_GRP1_EnableClock+0x2c>)
 8001c4e:	6b1a      	ldr	r2, [r3, #48]	; 0x30
 8001c50:	4907      	ldr	r1, [pc, #28]	; (8001c70 <LL_AHB1_GRP1_EnableClock+0x2c>)
 8001c52:	687b      	ldr	r3, [r7, #4]
 8001c54:	4313      	orrs	r3, r2
 8001c56:	630b      	str	r3, [r1, #48]	; 0x30
  tmpreg = READ_BIT(RCC->AHB1ENR, Periphs);
 8001c58:	4b05      	ldr	r3, [pc, #20]	; (8001c70 <LL_AHB1_GRP1_EnableClock+0x2c>)
 8001c5a:	6b1a      	ldr	r2, [r3, #48]	; 0x30
 8001c5c:	687b      	ldr	r3, [r7, #4]
 8001c5e:	4013      	ands	r3, r2
 8001c60:	60fb      	str	r3, [r7, #12]
  (void)tmpreg;
 8001c62:	68fb      	ldr	r3, [r7, #12]
}
 8001c64:	bf00      	nop
 8001c66:	3714      	adds	r7, #20
 8001c68:	46bd      	mov	sp, r7
 8001c6a:	f85d 7b04 	ldr.w	r7, [sp], #4
 8001c6e:	4770      	bx	lr
 8001c70:	40023800 	.word	0x40023800

08001c74 <LL_APB1_GRP1_EnableClock>:
{
 8001c74:	b480      	push	{r7}
 8001c76:	b085      	sub	sp, #20
 8001c78:	af00      	add	r7, sp, #0
 8001c7a:	6078      	str	r0, [r7, #4]
  SET_BIT(RCC->APB1ENR, Periphs);
 8001c7c:	4b08      	ldr	r3, [pc, #32]	; (8001ca0 <LL_APB1_GRP1_EnableClock+0x2c>)
 8001c7e:	6c1a      	ldr	r2, [r3, #64]	; 0x40
 8001c80:	4907      	ldr	r1, [pc, #28]	; (8001ca0 <LL_APB1_GRP1_EnableClock+0x2c>)
 8001c82:	687b      	ldr	r3, [r7, #4]
 8001c84:	4313      	orrs	r3, r2
 8001c86:	640b      	str	r3, [r1, #64]	; 0x40
  tmpreg = READ_BIT(RCC->APB1ENR, Periphs);
 8001c88:	4b05      	ldr	r3, [pc, #20]	; (8001ca0 <LL_APB1_GRP1_EnableClock+0x2c>)
 8001c8a:	6c1a      	ldr	r2, [r3, #64]	; 0x40
 8001c8c:	687b      	ldr	r3, [r7, #4]
 8001c8e:	4013      	ands	r3, r2
 8001c90:	60fb      	str	r3, [r7, #12]
  (void)tmpreg;
 8001c92:	68fb      	ldr	r3, [r7, #12]
}
 8001c94:	bf00      	nop
 8001c96:	3714      	adds	r7, #20
 8001c98:	46bd      	mov	sp, r7
 8001c9a:	f85d 7b04 	ldr.w	r7, [sp], #4
 8001c9e:	4770      	bx	lr
 8001ca0:	40023800 	.word	0x40023800

08001ca4 <LPS22HH_GPIO_SPI_Initialization>:

Struct_LPS22HH LPS22HH;


void LPS22HH_GPIO_SPI_Initialization(void)
{
 8001ca4:	b580      	push	{r7, lr}
 8001ca6:	b090      	sub	sp, #64	; 0x40
 8001ca8:	af00      	add	r7, sp, #0
	LL_SPI_InitTypeDef SPI_InitStruct = {0};
 8001caa:	f107 0318 	add.w	r3, r7, #24
 8001cae:	2228      	movs	r2, #40	; 0x28
 8001cb0:	2100      	movs	r1, #0
 8001cb2:	4618      	mov	r0, r3
 8001cb4:	f003 fb06 	bl	80052c4 <memset>
	
	LL_GPIO_InitTypeDef GPIO_InitStruct = {0};
 8001cb8:	463b      	mov	r3, r7
 8001cba:	2200      	movs	r2, #0
 8001cbc:	601a      	str	r2, [r3, #0]
 8001cbe:	605a      	str	r2, [r3, #4]
 8001cc0:	609a      	str	r2, [r3, #8]
 8001cc2:	60da      	str	r2, [r3, #12]
 8001cc4:	611a      	str	r2, [r3, #16]
 8001cc6:	615a      	str	r2, [r3, #20]
	/* Peripheral clock enable */
	LL_APB1_GRP1_EnableClock(LL_APB1_GRP1_PERIPH_SPI3);
 8001cc8:	f44f 4000 	mov.w	r0, #32768	; 0x8000
 8001ccc:	f7ff ffd2 	bl	8001c74 <LL_APB1_GRP1_EnableClock>
	
	LL_AHB1_GRP1_EnableClock(LL_AHB1_GRP1_PERIPH_GPIOB);
 8001cd0:	2002      	movs	r0, #2
 8001cd2:	f7ff ffb7 	bl	8001c44 <LL_AHB1_GRP1_EnableClock>
	/**SPI3 GPIO Configuration
	PB3   ------> SPI3_SCK
	PB4   ------> SPI3_MISO
	PB5   ------> SPI3_MOSI
	*/
	GPIO_InitStruct.Pin = LL_GPIO_PIN_3|LL_GPIO_PIN_4|LL_GPIO_PIN_5;
 8001cd6:	2338      	movs	r3, #56	; 0x38
 8001cd8:	603b      	str	r3, [r7, #0]
	GPIO_InitStruct.Mode = LL_GPIO_MODE_ALTERNATE;
 8001cda:	2302      	movs	r3, #2
 8001cdc:	607b      	str	r3, [r7, #4]
	GPIO_InitStruct.Speed = LL_GPIO_SPEED_FREQ_VERY_HIGH;
 8001cde:	2303      	movs	r3, #3
 8001ce0:	60bb      	str	r3, [r7, #8]
	GPIO_InitStruct.OutputType = LL_GPIO_OUTPUT_PUSHPULL;
 8001ce2:	2300      	movs	r3, #0
 8001ce4:	60fb      	str	r3, [r7, #12]
	GPIO_InitStruct.Pull = LL_GPIO_PULL_NO;
 8001ce6:	2300      	movs	r3, #0
 8001ce8:	613b      	str	r3, [r7, #16]
	GPIO_InitStruct.Alternate = LL_GPIO_AF_6;
 8001cea:	2306      	movs	r3, #6
 8001cec:	617b      	str	r3, [r7, #20]
	LL_GPIO_Init(GPIOB, &GPIO_InitStruct);
 8001cee:	463b      	mov	r3, r7
 8001cf0:	4619      	mov	r1, r3
 8001cf2:	4826      	ldr	r0, [pc, #152]	; (8001d8c <LPS22HH_GPIO_SPI_Initialization+0xe8>)
 8001cf4:	f002 fb50 	bl	8004398 <LL_GPIO_Init>
	
	SPI_InitStruct.TransferDirection = LL_SPI_FULL_DUPLEX;
 8001cf8:	2300      	movs	r3, #0
 8001cfa:	61bb      	str	r3, [r7, #24]
	SPI_InitStruct.Mode = LL_SPI_MODE_MASTER;
 8001cfc:	f44f 7382 	mov.w	r3, #260	; 0x104
 8001d00:	61fb      	str	r3, [r7, #28]
	SPI_InitStruct.DataWidth = LL_SPI_DATAWIDTH_8BIT;
 8001d02:	2300      	movs	r3, #0
 8001d04:	623b      	str	r3, [r7, #32]
	SPI_InitStruct.ClockPolarity = LL_SPI_POLARITY_HIGH;
 8001d06:	2302      	movs	r3, #2
 8001d08:	627b      	str	r3, [r7, #36]	; 0x24
	SPI_InitStruct.ClockPhase = LL_SPI_PHASE_2EDGE;
 8001d0a:	2301      	movs	r3, #1
 8001d0c:	62bb      	str	r3, [r7, #40]	; 0x28
	SPI_InitStruct.NSS = LL_SPI_NSS_SOFT;
 8001d0e:	f44f 7300 	mov.w	r3, #512	; 0x200
 8001d12:	62fb      	str	r3, [r7, #44]	; 0x2c
	SPI_InitStruct.BaudRate = LL_SPI_BAUDRATEPRESCALER_DIV4;
 8001d14:	2308      	movs	r3, #8
 8001d16:	633b      	str	r3, [r7, #48]	; 0x30
	SPI_InitStruct.BitOrder = LL_SPI_MSB_FIRST;
 8001d18:	2300      	movs	r3, #0
 8001d1a:	637b      	str	r3, [r7, #52]	; 0x34
	SPI_InitStruct.CRCCalculation = LL_SPI_CRCCALCULATION_DISABLE;
 8001d1c:	2300      	movs	r3, #0
 8001d1e:	63bb      	str	r3, [r7, #56]	; 0x38
	SPI_InitStruct.CRCPoly = 10;
 8001d20:	230a      	movs	r3, #10
 8001d22:	63fb      	str	r3, [r7, #60]	; 0x3c
	LL_SPI_Init(LPS22HH_SPI_CHANNEL, &SPI_InitStruct);
 8001d24:	f107 0318 	add.w	r3, r7, #24
 8001d28:	4619      	mov	r1, r3
 8001d2a:	4819      	ldr	r0, [pc, #100]	; (8001d90 <LPS22HH_GPIO_SPI_Initialization+0xec>)
 8001d2c:	f002 fd03 	bl	8004736 <LL_SPI_Init>
	LL_SPI_SetStandard(LPS22HH_SPI_CHANNEL, LL_SPI_PROTOCOL_MOTOROLA);
 8001d30:	2100      	movs	r1, #0
 8001d32:	4817      	ldr	r0, [pc, #92]	; (8001d90 <LPS22HH_GPIO_SPI_Initialization+0xec>)
 8001d34:	f7ff ff10 	bl	8001b58 <LL_SPI_SetStandard>
	/**LPS22HH GPIO Control Configuration
	 * PB6  ------> LPS22HH_SPI_CS_PIN (output)
	 * PB7  ------> LPS22HH_INT_PIN (input)
	 */
	/**/
	LL_GPIO_ResetOutputPin(LPS22HH_SPI_CS_PORT, LPS22HH_SPI_CS_PIN);
 8001d38:	2140      	movs	r1, #64	; 0x40
 8001d3a:	4814      	ldr	r0, [pc, #80]	; (8001d8c <LPS22HH_GPIO_SPI_Initialization+0xe8>)
 8001d3c:	f7ff ff72 	bl	8001c24 <LL_GPIO_ResetOutputPin>
	
	/**/
	GPIO_InitStruct.Pin = LPS22HH_SPI_CS_PIN;
 8001d40:	2340      	movs	r3, #64	; 0x40
 8001d42:	603b      	str	r3, [r7, #0]
	GPIO_InitStruct.Mode = LL_GPIO_MODE_OUTPUT;
 8001d44:	2301      	movs	r3, #1
 8001d46:	607b      	str	r3, [r7, #4]
	GPIO_InitStruct.Speed = LL_GPIO_SPEED_FREQ_VERY_HIGH;
 8001d48:	2303      	movs	r3, #3
 8001d4a:	60bb      	str	r3, [r7, #8]
	GPIO_InitStruct.OutputType = LL_GPIO_OUTPUT_PUSHPULL;
 8001d4c:	2300      	movs	r3, #0
 8001d4e:	60fb      	str	r3, [r7, #12]
	GPIO_InitStruct.Pull = LL_GPIO_PULL_NO;
 8001d50:	2300      	movs	r3, #0
 8001d52:	613b      	str	r3, [r7, #16]
	LL_GPIO_Init(LPS22HH_SPI_CS_PORT, &GPIO_InitStruct);
 8001d54:	463b      	mov	r3, r7
 8001d56:	4619      	mov	r1, r3
 8001d58:	480c      	ldr	r0, [pc, #48]	; (8001d8c <LPS22HH_GPIO_SPI_Initialization+0xe8>)
 8001d5a:	f002 fb1d 	bl	8004398 <LL_GPIO_Init>
	
	/**/
	GPIO_InitStruct.Pin = LPS22HH_INT_PIN;
 8001d5e:	2380      	movs	r3, #128	; 0x80
 8001d60:	603b      	str	r3, [r7, #0]
	GPIO_InitStruct.Mode = LL_GPIO_MODE_INPUT;
 8001d62:	2300      	movs	r3, #0
 8001d64:	607b      	str	r3, [r7, #4]
	GPIO_InitStruct.Pull = LL_GPIO_PULL_UP;
 8001d66:	2301      	movs	r3, #1
 8001d68:	613b      	str	r3, [r7, #16]
	LL_GPIO_Init(LPS22HH_INT_PORT, &GPIO_InitStruct);
 8001d6a:	463b      	mov	r3, r7
 8001d6c:	4619      	mov	r1, r3
 8001d6e:	4807      	ldr	r0, [pc, #28]	; (8001d8c <LPS22HH_GPIO_SPI_Initialization+0xe8>)
 8001d70:	f002 fb12 	bl	8004398 <LL_GPIO_Init>
	
	LL_SPI_Enable(LPS22HH_SPI_CHANNEL);
 8001d74:	4806      	ldr	r0, [pc, #24]	; (8001d90 <LPS22HH_GPIO_SPI_Initialization+0xec>)
 8001d76:	f7ff fedf 	bl	8001b38 <LL_SPI_Enable>
	
	CHIP_DESELECT(LPS22HH);
 8001d7a:	2140      	movs	r1, #64	; 0x40
 8001d7c:	4803      	ldr	r0, [pc, #12]	; (8001d8c <LPS22HH_GPIO_SPI_Initialization+0xe8>)
 8001d7e:	f7ff ff43 	bl	8001c08 <LL_GPIO_SetOutputPin>
}
 8001d82:	bf00      	nop
 8001d84:	3740      	adds	r7, #64	; 0x40
 8001d86:	46bd      	mov	sp, r7
 8001d88:	bd80      	pop	{r7, pc}
 8001d8a:	bf00      	nop
 8001d8c:	40020400 	.word	0x40020400
 8001d90:	40003c00 	.word	0x40003c00

08001d94 <SPI3_SendByte>:


unsigned char SPI3_SendByte(unsigned char data)
{
 8001d94:	b580      	push	{r7, lr}
 8001d96:	b082      	sub	sp, #8
 8001d98:	af00      	add	r7, sp, #0
 8001d9a:	4603      	mov	r3, r0
 8001d9c:	71fb      	strb	r3, [r7, #7]
	while(LL_SPI_IsActiveFlag_TXE(LPS22HH_SPI_CHANNEL)==RESET);
 8001d9e:	bf00      	nop
 8001da0:	480c      	ldr	r0, [pc, #48]	; (8001dd4 <SPI3_SendByte+0x40>)
 8001da2:	f7ff feff 	bl	8001ba4 <LL_SPI_IsActiveFlag_TXE>
 8001da6:	4603      	mov	r3, r0
 8001da8:	2b00      	cmp	r3, #0
 8001daa:	d0f9      	beq.n	8001da0 <SPI3_SendByte+0xc>
	LL_SPI_TransmitData8(LPS22HH_SPI_CHANNEL, data);
 8001dac:	79fb      	ldrb	r3, [r7, #7]
 8001dae:	4619      	mov	r1, r3
 8001db0:	4808      	ldr	r0, [pc, #32]	; (8001dd4 <SPI3_SendByte+0x40>)
 8001db2:	f7ff ff17 	bl	8001be4 <LL_SPI_TransmitData8>
	
	while(LL_SPI_IsActiveFlag_RXNE(LPS22HH_SPI_CHANNEL)==RESET);
 8001db6:	bf00      	nop
 8001db8:	4806      	ldr	r0, [pc, #24]	; (8001dd4 <SPI3_SendByte+0x40>)
 8001dba:	f7ff fee0 	bl	8001b7e <LL_SPI_IsActiveFlag_RXNE>
 8001dbe:	4603      	mov	r3, r0
 8001dc0:	2b00      	cmp	r3, #0
 8001dc2:	d0f9      	beq.n	8001db8 <SPI3_SendByte+0x24>
	return LL_SPI_ReceiveData8(LPS22HH_SPI_CHANNEL);
 8001dc4:	4803      	ldr	r0, [pc, #12]	; (8001dd4 <SPI3_SendByte+0x40>)
 8001dc6:	f7ff ff00 	bl	8001bca <LL_SPI_ReceiveData8>
 8001dca:	4603      	mov	r3, r0
}
 8001dcc:	4618      	mov	r0, r3
 8001dce:	3708      	adds	r7, #8
 8001dd0:	46bd      	mov	sp, r7
 8001dd2:	bd80      	pop	{r7, pc}
 8001dd4:	40003c00 	.word	0x40003c00

08001dd8 <LPS22HH_Readbyte>:

//////////////////////////////////////////////////////////////

uint8_t LPS22HH_Readbyte(uint8_t reg_addr)
{
 8001dd8:	b580      	push	{r7, lr}
 8001dda:	b084      	sub	sp, #16
 8001ddc:	af00      	add	r7, sp, #0
 8001dde:	4603      	mov	r3, r0
 8001de0:	71fb      	strb	r3, [r7, #7]
	uint8_t val;

	CHIP_SELECT(LPS22HH);
 8001de2:	2140      	movs	r1, #64	; 0x40
 8001de4:	480b      	ldr	r0, [pc, #44]	; (8001e14 <LPS22HH_Readbyte+0x3c>)
 8001de6:	f7ff ff1d 	bl	8001c24 <LL_GPIO_ResetOutputPin>
	SPI3_SendByte(reg_addr | 0x80); //Register. MSB 1 is read instruction.
 8001dea:	79fb      	ldrb	r3, [r7, #7]
 8001dec:	f063 037f 	orn	r3, r3, #127	; 0x7f
 8001df0:	b2db      	uxtb	r3, r3
 8001df2:	4618      	mov	r0, r3
 8001df4:	f7ff ffce 	bl	8001d94 <SPI3_SendByte>
	val = SPI3_SendByte(0x00); //Send DUMMY
 8001df8:	2000      	movs	r0, #0
 8001dfa:	f7ff ffcb 	bl	8001d94 <SPI3_SendByte>
 8001dfe:	4603      	mov	r3, r0
 8001e00:	73fb      	strb	r3, [r7, #15]
	CHIP_DESELECT(LPS22HH);
 8001e02:	2140      	movs	r1, #64	; 0x40
 8001e04:	4803      	ldr	r0, [pc, #12]	; (8001e14 <LPS22HH_Readbyte+0x3c>)
 8001e06:	f7ff feff 	bl	8001c08 <LL_GPIO_SetOutputPin>
	
	return val;
 8001e0a:	7bfb      	ldrb	r3, [r7, #15]
}
 8001e0c:	4618      	mov	r0, r3
 8001e0e:	3710      	adds	r7, #16
 8001e10:	46bd      	mov	sp, r7
 8001e12:	bd80      	pop	{r7, pc}
 8001e14:	40020400 	.word	0x40020400

08001e18 <LPS22HH_Writebyte>:
	}
	CHIP_DESELECT(LPS22HH);
}

void LPS22HH_Writebyte(uint8_t reg_addr, uint8_t val)
{
 8001e18:	b580      	push	{r7, lr}
 8001e1a:	b082      	sub	sp, #8
 8001e1c:	af00      	add	r7, sp, #0
 8001e1e:	4603      	mov	r3, r0
 8001e20:	460a      	mov	r2, r1
 8001e22:	71fb      	strb	r3, [r7, #7]
 8001e24:	4613      	mov	r3, r2
 8001e26:	71bb      	strb	r3, [r7, #6]
	CHIP_SELECT(LPS22HH);
 8001e28:	2140      	movs	r1, #64	; 0x40
 8001e2a:	480b      	ldr	r0, [pc, #44]	; (8001e58 <LPS22HH_Writebyte+0x40>)
 8001e2c:	f7ff fefa 	bl	8001c24 <LL_GPIO_ResetOutputPin>
	SPI3_SendByte(reg_addr & 0x7F); //Register. MSB 0 is write instruction.
 8001e30:	79fb      	ldrb	r3, [r7, #7]
 8001e32:	f003 037f 	and.w	r3, r3, #127	; 0x7f
 8001e36:	b2db      	uxtb	r3, r3
 8001e38:	4618      	mov	r0, r3
 8001e3a:	f7ff ffab 	bl	8001d94 <SPI3_SendByte>
	SPI3_SendByte(val); //Data
 8001e3e:	79bb      	ldrb	r3, [r7, #6]
 8001e40:	4618      	mov	r0, r3
 8001e42:	f7ff ffa7 	bl	8001d94 <SPI3_SendByte>
	CHIP_DESELECT(LPS22HH);
 8001e46:	2140      	movs	r1, #64	; 0x40
 8001e48:	4803      	ldr	r0, [pc, #12]	; (8001e58 <LPS22HH_Writebyte+0x40>)
 8001e4a:	f7ff fedd 	bl	8001c08 <LL_GPIO_SetOutputPin>
}
 8001e4e:	bf00      	nop
 8001e50:	3708      	adds	r7, #8
 8001e52:	46bd      	mov	sp, r7
 8001e54:	bd80      	pop	{r7, pc}
 8001e56:	bf00      	nop
 8001e58:	40020400 	.word	0x40020400

08001e5c <LPS22HH_Initialization>:




int LPS22HH_Initialization(void)
{
 8001e5c:	b580      	push	{r7, lr}
 8001e5e:	b082      	sub	sp, #8
 8001e60:	af00      	add	r7, sp, #0
	uint8_t temp_reg;
	uint8_t who_am_i = 0;
 8001e62:	2300      	movs	r3, #0
 8001e64:	71fb      	strb	r3, [r7, #7]
	
	LPS22HH_GPIO_SPI_Initialization();
 8001e66:	f7ff ff1d 	bl	8001ca4 <LPS22HH_GPIO_SPI_Initialization>
	
	printf("Checking LPS22HH...");
 8001e6a:	4841      	ldr	r0, [pc, #260]	; (8001f70 <LPS22HH_Initialization+0x114>)
 8001e6c:	f003 fe8e 	bl	8005b8c <iprintf>
	
	// check WHO_AM_I (0x0F)
	who_am_i = LPS22HH_Readbyte(0x0F); 
 8001e70:	200f      	movs	r0, #15
 8001e72:	f7ff ffb1 	bl	8001dd8 <LPS22HH_Readbyte>
 8001e76:	4603      	mov	r3, r0
 8001e78:	71fb      	strb	r3, [r7, #7]

	// who am i = 0xb3
	if( who_am_i == 0xb3)
 8001e7a:	79fb      	ldrb	r3, [r7, #7]
 8001e7c:	2bb3      	cmp	r3, #179	; 0xb3
 8001e7e:	d105      	bne.n	8001e8c <LPS22HH_Initialization+0x30>
	{
		printf("\nLPS22HH who_am_i = 0x%02x...OK\n\n", who_am_i );
 8001e80:	79fb      	ldrb	r3, [r7, #7]
 8001e82:	4619      	mov	r1, r3
 8001e84:	483b      	ldr	r0, [pc, #236]	; (8001f74 <LPS22HH_Initialization+0x118>)
 8001e86:	f003 fe81 	bl	8005b8c <iprintf>
 8001e8a:	e012      	b.n	8001eb2 <LPS22HH_Initialization+0x56>
	}
	// recheck
	else if( who_am_i != 0xb3)
 8001e8c:	79fb      	ldrb	r3, [r7, #7]
 8001e8e:	2bb3      	cmp	r3, #179	; 0xb3
 8001e90:	d00f      	beq.n	8001eb2 <LPS22HH_Initialization+0x56>
	{
		who_am_i = LPS22HH_Readbyte(0x0F); // check WHO_AM_I (0x0F)
 8001e92:	200f      	movs	r0, #15
 8001e94:	f7ff ffa0 	bl	8001dd8 <LPS22HH_Readbyte>
 8001e98:	4603      	mov	r3, r0
 8001e9a:	71fb      	strb	r3, [r7, #7]

		if ( who_am_i != 0xb3 ){
 8001e9c:	79fb      	ldrb	r3, [r7, #7]
 8001e9e:	2bb3      	cmp	r3, #179	; 0xb3
 8001ea0:	d007      	beq.n	8001eb2 <LPS22HH_Initialization+0x56>
			printf( "nLPS22HH Not OK: 0x%02x Should be 0x%02x\n", who_am_i, 0xb3);
 8001ea2:	79fb      	ldrb	r3, [r7, #7]
 8001ea4:	22b3      	movs	r2, #179	; 0xb3
 8001ea6:	4619      	mov	r1, r3
 8001ea8:	4833      	ldr	r0, [pc, #204]	; (8001f78 <LPS22HH_Initialization+0x11c>)
 8001eaa:	f003 fe6f 	bl	8005b8c <iprintf>
			return 1; //ERROR
 8001eae:	2301      	movs	r3, #1
 8001eb0:	e059      	b.n	8001f66 <LPS22HH_Initialization+0x10a>
		}
	}
	
	// Reset LPS22HH
	// CTRL_REG2 0x11
	LPS22HH_Writebyte(CTRL_REG2, 0x04);
 8001eb2:	2104      	movs	r1, #4
 8001eb4:	2011      	movs	r0, #17
 8001eb6:	f7ff ffaf 	bl	8001e18 <LPS22HH_Writebyte>
	//printf("LPS22HH Reset");
	do{
		//printf(".");
	}
	while((LPS22HH_Readbyte(CTRL_REG2) & 0x04) != 0x00);
 8001eba:	2011      	movs	r0, #17
 8001ebc:	f7ff ff8c 	bl	8001dd8 <LPS22HH_Readbyte>
 8001ec0:	4603      	mov	r3, r0
 8001ec2:	f003 0304 	and.w	r3, r3, #4
 8001ec6:	2b00      	cmp	r3, #0
 8001ec8:	d1f7      	bne.n	8001eba <LPS22HH_Initialization+0x5e>
	
	// Set Output Data Rate
	//0x00: One Shot
	//0x10: 1Hz	0x20: 10Hz	0x30: 25Hz	0x40: 50Hz
	//0x50: 75Hz	0x60: 100Hz	0x70: 200Hz
	temp_reg = LPS22HH_Readbyte(CTRL_REG1);
 8001eca:	2010      	movs	r0, #16
 8001ecc:	f7ff ff84 	bl	8001dd8 <LPS22HH_Readbyte>
 8001ed0:	4603      	mov	r3, r0
 8001ed2:	71bb      	strb	r3, [r7, #6]
	temp_reg = temp_reg | 0x40;
 8001ed4:	79bb      	ldrb	r3, [r7, #6]
 8001ed6:	f043 0340 	orr.w	r3, r3, #64	; 0x40
 8001eda:	71bb      	strb	r3, [r7, #6]
	LPS22HH_Writebyte(CTRL_REG1, temp_reg);
 8001edc:	79bb      	ldrb	r3, [r7, #6]
 8001ede:	4619      	mov	r1, r3
 8001ee0:	2010      	movs	r0, #16
 8001ee2:	f7ff ff99 	bl	8001e18 <LPS22HH_Writebyte>
	temp_reg = 0;
 8001ee6:	2300      	movs	r3, #0
 8001ee8:	71bb      	strb	r3, [r7, #6]
	temp_reg = LPS22HH_Readbyte(CTRL_REG1);
 8001eea:	2010      	movs	r0, #16
 8001eec:	f7ff ff74 	bl	8001dd8 <LPS22HH_Readbyte>
 8001ef0:	4603      	mov	r3, r0
 8001ef2:	71bb      	strb	r3, [r7, #6]
	//printf("%x\n", temp_reg);
	
	// Enable LPF, Cut-off frequency
	//0x08: ODR/9	0x0c: ODR/20
	temp_reg = LPS22HH_Readbyte(CTRL_REG1);
 8001ef4:	2010      	movs	r0, #16
 8001ef6:	f7ff ff6f 	bl	8001dd8 <LPS22HH_Readbyte>
 8001efa:	4603      	mov	r3, r0
 8001efc:	71bb      	strb	r3, [r7, #6]
	temp_reg = temp_reg | 0x0c;
 8001efe:	79bb      	ldrb	r3, [r7, #6]
 8001f00:	f043 030c 	orr.w	r3, r3, #12
 8001f04:	71bb      	strb	r3, [r7, #6]
	LPS22HH_Writebyte(CTRL_REG1, temp_reg);
 8001f06:	79bb      	ldrb	r3, [r7, #6]
 8001f08:	4619      	mov	r1, r3
 8001f0a:	2010      	movs	r0, #16
 8001f0c:	f7ff ff84 	bl	8001e18 <LPS22HH_Writebyte>
	
	// Enable Block Data Update
	temp_reg = LPS22HH_Readbyte(CTRL_REG1);
 8001f10:	2010      	movs	r0, #16
 8001f12:	f7ff ff61 	bl	8001dd8 <LPS22HH_Readbyte>
 8001f16:	4603      	mov	r3, r0
 8001f18:	71bb      	strb	r3, [r7, #6]
	temp_reg = temp_reg | 0x02;
 8001f1a:	79bb      	ldrb	r3, [r7, #6]
 8001f1c:	f043 0302 	orr.w	r3, r3, #2
 8001f20:	71bb      	strb	r3, [r7, #6]
	LPS22HH_Writebyte(CTRL_REG1, temp_reg);
 8001f22:	79bb      	ldrb	r3, [r7, #6]
 8001f24:	4619      	mov	r1, r3
 8001f26:	2010      	movs	r0, #16
 8001f28:	f7ff ff76 	bl	8001e18 <LPS22HH_Writebyte>
	
	// Enable Low Noise Mode (ODR should be lower than 100Hz. This is igonored when ODR = 100Hz or 200Hz)
	temp_reg = LPS22HH_Readbyte(CTRL_REG2);
 8001f2c:	2011      	movs	r0, #17
 8001f2e:	f7ff ff53 	bl	8001dd8 <LPS22HH_Readbyte>
 8001f32:	4603      	mov	r3, r0
 8001f34:	71bb      	strb	r3, [r7, #6]
	temp_reg = temp_reg | 0x02;
 8001f36:	79bb      	ldrb	r3, [r7, #6]
 8001f38:	f043 0302 	orr.w	r3, r3, #2
 8001f3c:	71bb      	strb	r3, [r7, #6]
	LPS22HH_Writebyte(CTRL_REG2, temp_reg);
 8001f3e:	79bb      	ldrb	r3, [r7, #6]
 8001f40:	4619      	mov	r1, r3
 8001f42:	2011      	movs	r0, #17
 8001f44:	f7ff ff68 	bl	8001e18 <LPS22HH_Writebyte>
	
	// Enable Data-ready signal on INT-DRDY pin
	temp_reg = LPS22HH_Readbyte(CTRL_REG3);
 8001f48:	2012      	movs	r0, #18
 8001f4a:	f7ff ff45 	bl	8001dd8 <LPS22HH_Readbyte>
 8001f4e:	4603      	mov	r3, r0
 8001f50:	71bb      	strb	r3, [r7, #6]
	temp_reg = temp_reg | 0x04;
 8001f52:	79bb      	ldrb	r3, [r7, #6]
 8001f54:	f043 0304 	orr.w	r3, r3, #4
 8001f58:	71bb      	strb	r3, [r7, #6]
	LPS22HH_Writebyte(CTRL_REG3, temp_reg);
 8001f5a:	79bb      	ldrb	r3, [r7, #6]
 8001f5c:	4619      	mov	r1, r3
 8001f5e:	2012      	movs	r0, #18
 8001f60:	f7ff ff5a 	bl	8001e18 <LPS22HH_Writebyte>
	
	return 0; //OK
 8001f64:	2300      	movs	r3, #0
}
 8001f66:	4618      	mov	r0, r3
 8001f68:	3708      	adds	r7, #8
 8001f6a:	46bd      	mov	sp, r7
 8001f6c:	bd80      	pop	{r7, pc}
 8001f6e:	bf00      	nop
 8001f70:	08007b1c 	.word	0x08007b1c
 8001f74:	08007b30 	.word	0x08007b30
 8001f78:	08007b54 	.word	0x08007b54

08001f7c <__NVIC_GetPriorityGrouping>:
  \brief   Get Priority Grouping
  \details Reads the priority grouping field from the NVIC Interrupt Controller.
  \return                Priority grouping field (SCB->AIRCR [10:8] PRIGROUP field).
 */
__STATIC_INLINE uint32_t __NVIC_GetPriorityGrouping(void)
{
 8001f7c:	b480      	push	{r7}
 8001f7e:	af00      	add	r7, sp, #0
  return ((uint32_t)((SCB->AIRCR & SCB_AIRCR_PRIGROUP_Msk) >> SCB_AIRCR_PRIGROUP_Pos));
 8001f80:	4b04      	ldr	r3, [pc, #16]	; (8001f94 <__NVIC_GetPriorityGrouping+0x18>)
 8001f82:	68db      	ldr	r3, [r3, #12]
 8001f84:	0a1b      	lsrs	r3, r3, #8
 8001f86:	f003 0307 	and.w	r3, r3, #7
}
 8001f8a:	4618      	mov	r0, r3
 8001f8c:	46bd      	mov	sp, r7
 8001f8e:	f85d 7b04 	ldr.w	r7, [sp], #4
 8001f92:	4770      	bx	lr
 8001f94:	e000ed00 	.word	0xe000ed00

08001f98 <__NVIC_EnableIRQ>:
  \details Enables a device specific interrupt in the NVIC interrupt controller.
  \param [in]      IRQn  Device specific interrupt number.
  \note    IRQn must not be negative.
 */
__STATIC_INLINE void __NVIC_EnableIRQ(IRQn_Type IRQn)
{
 8001f98:	b480      	push	{r7}
 8001f9a:	b083      	sub	sp, #12
 8001f9c:	af00      	add	r7, sp, #0
 8001f9e:	4603      	mov	r3, r0
 8001fa0:	71fb      	strb	r3, [r7, #7]
  if ((int32_t)(IRQn) >= 0)
 8001fa2:	f997 3007 	ldrsb.w	r3, [r7, #7]
 8001fa6:	2b00      	cmp	r3, #0
 8001fa8:	db0b      	blt.n	8001fc2 <__NVIC_EnableIRQ+0x2a>
  {
    NVIC->ISER[(((uint32_t)IRQn) >> 5UL)] = (uint32_t)(1UL << (((uint32_t)IRQn) & 0x1FUL));
 8001faa:	79fb      	ldrb	r3, [r7, #7]
 8001fac:	f003 021f 	and.w	r2, r3, #31
 8001fb0:	4907      	ldr	r1, [pc, #28]	; (8001fd0 <__NVIC_EnableIRQ+0x38>)
 8001fb2:	f997 3007 	ldrsb.w	r3, [r7, #7]
 8001fb6:	095b      	lsrs	r3, r3, #5
 8001fb8:	2001      	movs	r0, #1
 8001fba:	fa00 f202 	lsl.w	r2, r0, r2
 8001fbe:	f841 2023 	str.w	r2, [r1, r3, lsl #2]
  }
}
 8001fc2:	bf00      	nop
 8001fc4:	370c      	adds	r7, #12
 8001fc6:	46bd      	mov	sp, r7
 8001fc8:	f85d 7b04 	ldr.w	r7, [sp], #4
 8001fcc:	4770      	bx	lr
 8001fce:	bf00      	nop
 8001fd0:	e000e100 	.word	0xe000e100

08001fd4 <__NVIC_SetPriority>:
  \param [in]      IRQn  Interrupt number.
  \param [in]  priority  Priority to set.
  \note    The priority cannot be set for every processor exception.
 */
__STATIC_INLINE void __NVIC_SetPriority(IRQn_Type IRQn, uint32_t priority)
{
 8001fd4:	b480      	push	{r7}
 8001fd6:	b083      	sub	sp, #12
 8001fd8:	af00      	add	r7, sp, #0
 8001fda:	4603      	mov	r3, r0
 8001fdc:	6039      	str	r1, [r7, #0]
 8001fde:	71fb      	strb	r3, [r7, #7]
  if ((int32_t)(IRQn) >= 0)
 8001fe0:	f997 3007 	ldrsb.w	r3, [r7, #7]
 8001fe4:	2b00      	cmp	r3, #0
 8001fe6:	db0a      	blt.n	8001ffe <__NVIC_SetPriority+0x2a>
  {
    NVIC->IP[((uint32_t)IRQn)]               = (uint8_t)((priority << (8U - __NVIC_PRIO_BITS)) & (uint32_t)0xFFUL);
 8001fe8:	683b      	ldr	r3, [r7, #0]
 8001fea:	b2da      	uxtb	r2, r3
 8001fec:	490c      	ldr	r1, [pc, #48]	; (8002020 <__NVIC_SetPriority+0x4c>)
 8001fee:	f997 3007 	ldrsb.w	r3, [r7, #7]
 8001ff2:	0112      	lsls	r2, r2, #4
 8001ff4:	b2d2      	uxtb	r2, r2
 8001ff6:	440b      	add	r3, r1
 8001ff8:	f883 2300 	strb.w	r2, [r3, #768]	; 0x300
  }
  else
  {
    SCB->SHP[(((uint32_t)IRQn) & 0xFUL)-4UL] = (uint8_t)((priority << (8U - __NVIC_PRIO_BITS)) & (uint32_t)0xFFUL);
  }
}
 8001ffc:	e00a      	b.n	8002014 <__NVIC_SetPriority+0x40>
    SCB->SHP[(((uint32_t)IRQn) & 0xFUL)-4UL] = (uint8_t)((priority << (8U - __NVIC_PRIO_BITS)) & (uint32_t)0xFFUL);
 8001ffe:	683b      	ldr	r3, [r7, #0]
 8002000:	b2da      	uxtb	r2, r3
 8002002:	4908      	ldr	r1, [pc, #32]	; (8002024 <__NVIC_SetPriority+0x50>)
 8002004:	79fb      	ldrb	r3, [r7, #7]
 8002006:	f003 030f 	and.w	r3, r3, #15
 800200a:	3b04      	subs	r3, #4
 800200c:	0112      	lsls	r2, r2, #4
 800200e:	b2d2      	uxtb	r2, r2
 8002010:	440b      	add	r3, r1
 8002012:	761a      	strb	r2, [r3, #24]
}
 8002014:	bf00      	nop
 8002016:	370c      	adds	r7, #12
 8002018:	46bd      	mov	sp, r7
 800201a:	f85d 7b04 	ldr.w	r7, [sp], #4
 800201e:	4770      	bx	lr
 8002020:	e000e100 	.word	0xe000e100
 8002024:	e000ed00 	.word	0xe000ed00

08002028 <NVIC_EncodePriority>:
  \param [in]   PreemptPriority  Preemptive priority value (starting from 0).
  \param [in]       SubPriority  Subpriority value (starting from 0).
  \return                        Encoded priority. Value can be used in the function \ref NVIC_SetPriority().
 */
__STATIC_INLINE uint32_t NVIC_EncodePriority (uint32_t PriorityGroup, uint32_t PreemptPriority, uint32_t SubPriority)
{
 8002028:	b480      	push	{r7}
 800202a:	b089      	sub	sp, #36	; 0x24
 800202c:	af00      	add	r7, sp, #0
 800202e:	60f8      	str	r0, [r7, #12]
 8002030:	60b9      	str	r1, [r7, #8]
 8002032:	607a      	str	r2, [r7, #4]
  uint32_t PriorityGroupTmp = (PriorityGroup & (uint32_t)0x07UL);   /* only values 0..7 are used          */
 8002034:	68fb      	ldr	r3, [r7, #12]
 8002036:	f003 0307 	and.w	r3, r3, #7
 800203a:	61fb      	str	r3, [r7, #28]
  uint32_t PreemptPriorityBits;
  uint32_t SubPriorityBits;

  PreemptPriorityBits = ((7UL - PriorityGroupTmp) > (uint32_t)(__NVIC_PRIO_BITS)) ? (uint32_t)(__NVIC_PRIO_BITS) : (uint32_t)(7UL - PriorityGroupTmp);
 800203c:	69fb      	ldr	r3, [r7, #28]
 800203e:	f1c3 0307 	rsb	r3, r3, #7
 8002042:	2b04      	cmp	r3, #4
 8002044:	bf28      	it	cs
 8002046:	2304      	movcs	r3, #4
 8002048:	61bb      	str	r3, [r7, #24]
  SubPriorityBits     = ((PriorityGroupTmp + (uint32_t)(__NVIC_PRIO_BITS)) < (uint32_t)7UL) ? (uint32_t)0UL : (uint32_t)((PriorityGroupTmp - 7UL) + (uint32_t)(__NVIC_PRIO_BITS));
 800204a:	69fb      	ldr	r3, [r7, #28]
 800204c:	3304      	adds	r3, #4
 800204e:	2b06      	cmp	r3, #6
 8002050:	d902      	bls.n	8002058 <NVIC_EncodePriority+0x30>
 8002052:	69fb      	ldr	r3, [r7, #28]
 8002054:	3b03      	subs	r3, #3
 8002056:	e000      	b.n	800205a <NVIC_EncodePriority+0x32>
 8002058:	2300      	movs	r3, #0
 800205a:	617b      	str	r3, [r7, #20]

  return (
           ((PreemptPriority & (uint32_t)((1UL << (PreemptPriorityBits)) - 1UL)) << SubPriorityBits) |
 800205c:	f04f 32ff 	mov.w	r2, #4294967295
 8002060:	69bb      	ldr	r3, [r7, #24]
 8002062:	fa02 f303 	lsl.w	r3, r2, r3
 8002066:	43da      	mvns	r2, r3
 8002068:	68bb      	ldr	r3, [r7, #8]
 800206a:	401a      	ands	r2, r3
 800206c:	697b      	ldr	r3, [r7, #20]
 800206e:	409a      	lsls	r2, r3
           ((SubPriority     & (uint32_t)((1UL << (SubPriorityBits    )) - 1UL)))
 8002070:	f04f 31ff 	mov.w	r1, #4294967295
 8002074:	697b      	ldr	r3, [r7, #20]
 8002076:	fa01 f303 	lsl.w	r3, r1, r3
 800207a:	43d9      	mvns	r1, r3
 800207c:	687b      	ldr	r3, [r7, #4]
 800207e:	400b      	ands	r3, r1
           ((PreemptPriority & (uint32_t)((1UL << (PreemptPriorityBits)) - 1UL)) << SubPriorityBits) |
 8002080:	4313      	orrs	r3, r2
         );
}
 8002082:	4618      	mov	r0, r3
 8002084:	3724      	adds	r7, #36	; 0x24
 8002086:	46bd      	mov	sp, r7
 8002088:	f85d 7b04 	ldr.w	r7, [sp], #4
 800208c:	4770      	bx	lr

0800208e <LL_USART_Enable>:
  * @rmtoll CR1          UE            LL_USART_Enable
  * @param  USARTx USART Instance
  * @retval None
  */
__STATIC_INLINE void LL_USART_Enable(USART_TypeDef *USARTx)
{
 800208e:	b480      	push	{r7}
 8002090:	b083      	sub	sp, #12
 8002092:	af00      	add	r7, sp, #0
 8002094:	6078      	str	r0, [r7, #4]
  SET_BIT(USARTx->CR1, USART_CR1_UE);
 8002096:	687b      	ldr	r3, [r7, #4]
 8002098:	68db      	ldr	r3, [r3, #12]
 800209a:	f443 5200 	orr.w	r2, r3, #8192	; 0x2000
 800209e:	687b      	ldr	r3, [r7, #4]
 80020a0:	60da      	str	r2, [r3, #12]
}
 80020a2:	bf00      	nop
 80020a4:	370c      	adds	r7, #12
 80020a6:	46bd      	mov	sp, r7
 80020a8:	f85d 7b04 	ldr.w	r7, [sp], #4
 80020ac:	4770      	bx	lr

080020ae <LL_USART_ConfigAsyncMode>:
  *         CR3          HDSEL         LL_USART_ConfigAsyncMode
  * @param  USARTx USART Instance
  * @retval None
  */
__STATIC_INLINE void LL_USART_ConfigAsyncMode(USART_TypeDef *USARTx)
{
 80020ae:	b480      	push	{r7}
 80020b0:	b083      	sub	sp, #12
 80020b2:	af00      	add	r7, sp, #0
 80020b4:	6078      	str	r0, [r7, #4]
  /* In Asynchronous mode, the following bits must be kept cleared:
  - LINEN, CLKEN bits in the USART_CR2 register,
  - SCEN, IREN and HDSEL bits in the USART_CR3 register.*/
  CLEAR_BIT(USARTx->CR2, (USART_CR2_LINEN | USART_CR2_CLKEN));
 80020b6:	687b      	ldr	r3, [r7, #4]
 80020b8:	691b      	ldr	r3, [r3, #16]
 80020ba:	f423 4290 	bic.w	r2, r3, #18432	; 0x4800
 80020be:	687b      	ldr	r3, [r7, #4]
 80020c0:	611a      	str	r2, [r3, #16]
  CLEAR_BIT(USARTx->CR3, (USART_CR3_SCEN | USART_CR3_IREN | USART_CR3_HDSEL));
 80020c2:	687b      	ldr	r3, [r7, #4]
 80020c4:	695b      	ldr	r3, [r3, #20]
 80020c6:	f023 022a 	bic.w	r2, r3, #42	; 0x2a
 80020ca:	687b      	ldr	r3, [r7, #4]
 80020cc:	615a      	str	r2, [r3, #20]
}
 80020ce:	bf00      	nop
 80020d0:	370c      	adds	r7, #12
 80020d2:	46bd      	mov	sp, r7
 80020d4:	f85d 7b04 	ldr.w	r7, [sp], #4
 80020d8:	4770      	bx	lr

080020da <LL_USART_IsActiveFlag_TXE>:
  * @rmtoll SR           TXE           LL_USART_IsActiveFlag_TXE
  * @param  USARTx USART Instance
  * @retval State of bit (1 or 0).
  */
__STATIC_INLINE uint32_t LL_USART_IsActiveFlag_TXE(USART_TypeDef *USARTx)
{
 80020da:	b480      	push	{r7}
 80020dc:	b083      	sub	sp, #12
 80020de:	af00      	add	r7, sp, #0
 80020e0:	6078      	str	r0, [r7, #4]
  return (READ_BIT(USARTx->SR, USART_SR_TXE) == (USART_SR_TXE));
 80020e2:	687b      	ldr	r3, [r7, #4]
 80020e4:	681b      	ldr	r3, [r3, #0]
 80020e6:	f003 0380 	and.w	r3, r3, #128	; 0x80
 80020ea:	2b80      	cmp	r3, #128	; 0x80
 80020ec:	bf0c      	ite	eq
 80020ee:	2301      	moveq	r3, #1
 80020f0:	2300      	movne	r3, #0
 80020f2:	b2db      	uxtb	r3, r3
}
 80020f4:	4618      	mov	r0, r3
 80020f6:	370c      	adds	r7, #12
 80020f8:	46bd      	mov	sp, r7
 80020fa:	f85d 7b04 	ldr.w	r7, [sp], #4
 80020fe:	4770      	bx	lr

08002100 <LL_USART_TransmitData8>:
  * @param  USARTx USART Instance
  * @param  Value between Min_Data=0x00 and Max_Data=0xFF
  * @retval None
  */
__STATIC_INLINE void LL_USART_TransmitData8(USART_TypeDef *USARTx, uint8_t Value)
{
 8002100:	b480      	push	{r7}
 8002102:	b083      	sub	sp, #12
 8002104:	af00      	add	r7, sp, #0
 8002106:	6078      	str	r0, [r7, #4]
 8002108:	460b      	mov	r3, r1
 800210a:	70fb      	strb	r3, [r7, #3]
  USARTx->DR = Value;
 800210c:	78fa      	ldrb	r2, [r7, #3]
 800210e:	687b      	ldr	r3, [r7, #4]
 8002110:	605a      	str	r2, [r3, #4]
}
 8002112:	bf00      	nop
 8002114:	370c      	adds	r7, #12
 8002116:	46bd      	mov	sp, r7
 8002118:	f85d 7b04 	ldr.w	r7, [sp], #4
 800211c:	4770      	bx	lr
	...

08002120 <LL_AHB1_GRP1_EnableClock>:
{
 8002120:	b480      	push	{r7}
 8002122:	b085      	sub	sp, #20
 8002124:	af00      	add	r7, sp, #0
 8002126:	6078      	str	r0, [r7, #4]
  SET_BIT(RCC->AHB1ENR, Periphs);
 8002128:	4b08      	ldr	r3, [pc, #32]	; (800214c <LL_AHB1_GRP1_EnableClock+0x2c>)
 800212a:	6b1a      	ldr	r2, [r3, #48]	; 0x30
 800212c:	4907      	ldr	r1, [pc, #28]	; (800214c <LL_AHB1_GRP1_EnableClock+0x2c>)
 800212e:	687b      	ldr	r3, [r7, #4]
 8002130:	4313      	orrs	r3, r2
 8002132:	630b      	str	r3, [r1, #48]	; 0x30
  tmpreg = READ_BIT(RCC->AHB1ENR, Periphs);
 8002134:	4b05      	ldr	r3, [pc, #20]	; (800214c <LL_AHB1_GRP1_EnableClock+0x2c>)
 8002136:	6b1a      	ldr	r2, [r3, #48]	; 0x30
 8002138:	687b      	ldr	r3, [r7, #4]
 800213a:	4013      	ands	r3, r2
 800213c:	60fb      	str	r3, [r7, #12]
  (void)tmpreg;
 800213e:	68fb      	ldr	r3, [r7, #12]
}
 8002140:	bf00      	nop
 8002142:	3714      	adds	r7, #20
 8002144:	46bd      	mov	sp, r7
 8002146:	f85d 7b04 	ldr.w	r7, [sp], #4
 800214a:	4770      	bx	lr
 800214c:	40023800 	.word	0x40023800

08002150 <LL_APB1_GRP1_EnableClock>:
{
 8002150:	b480      	push	{r7}
 8002152:	b085      	sub	sp, #20
 8002154:	af00      	add	r7, sp, #0
 8002156:	6078      	str	r0, [r7, #4]
  SET_BIT(RCC->APB1ENR, Periphs);
 8002158:	4b08      	ldr	r3, [pc, #32]	; (800217c <LL_APB1_GRP1_EnableClock+0x2c>)
 800215a:	6c1a      	ldr	r2, [r3, #64]	; 0x40
 800215c:	4907      	ldr	r1, [pc, #28]	; (800217c <LL_APB1_GRP1_EnableClock+0x2c>)
 800215e:	687b      	ldr	r3, [r7, #4]
 8002160:	4313      	orrs	r3, r2
 8002162:	640b      	str	r3, [r1, #64]	; 0x40
  tmpreg = READ_BIT(RCC->APB1ENR, Periphs);
 8002164:	4b05      	ldr	r3, [pc, #20]	; (800217c <LL_APB1_GRP1_EnableClock+0x2c>)
 8002166:	6c1a      	ldr	r2, [r3, #64]	; 0x40
 8002168:	687b      	ldr	r3, [r7, #4]
 800216a:	4013      	ands	r3, r2
 800216c:	60fb      	str	r3, [r7, #12]
  (void)tmpreg;
 800216e:	68fb      	ldr	r3, [r7, #12]
}
 8002170:	bf00      	nop
 8002172:	3714      	adds	r7, #20
 8002174:	46bd      	mov	sp, r7
 8002176:	f85d 7b04 	ldr.w	r7, [sp], #4
 800217a:	4770      	bx	lr
 800217c:	40023800 	.word	0x40023800

08002180 <M8N_TransmitData>:
		0xB5, 0x62, 0x06, 0x09, 0x0D, 0x00, 0x00, 0x00, 0x00, 0x00,
		0xFF, 0xFF, 0x00, 0x00, 0x00, 0x00, 0x00, 0x00, 0x17, 0x31,
		0xBF
};

void M8N_TransmitData(unsigned char* data, unsigned char len){
 8002180:	b580      	push	{r7, lr}
 8002182:	b084      	sub	sp, #16
 8002184:	af00      	add	r7, sp, #0
 8002186:	6078      	str	r0, [r7, #4]
 8002188:	460b      	mov	r3, r1
 800218a:	70fb      	strb	r3, [r7, #3]
	for(int i=0; i<len; i++){
 800218c:	2300      	movs	r3, #0
 800218e:	60fb      	str	r3, [r7, #12]
 8002190:	e011      	b.n	80021b6 <M8N_TransmitData+0x36>
		while(!LL_USART_IsActiveFlag_TXE(UART4));
 8002192:	bf00      	nop
 8002194:	480c      	ldr	r0, [pc, #48]	; (80021c8 <M8N_TransmitData+0x48>)
 8002196:	f7ff ffa0 	bl	80020da <LL_USART_IsActiveFlag_TXE>
 800219a:	4603      	mov	r3, r0
 800219c:	2b00      	cmp	r3, #0
 800219e:	d0f9      	beq.n	8002194 <M8N_TransmitData+0x14>
		LL_USART_TransmitData8(UART4, *(data+i));
 80021a0:	68fb      	ldr	r3, [r7, #12]
 80021a2:	687a      	ldr	r2, [r7, #4]
 80021a4:	4413      	add	r3, r2
 80021a6:	781b      	ldrb	r3, [r3, #0]
 80021a8:	4619      	mov	r1, r3
 80021aa:	4807      	ldr	r0, [pc, #28]	; (80021c8 <M8N_TransmitData+0x48>)
 80021ac:	f7ff ffa8 	bl	8002100 <LL_USART_TransmitData8>
	for(int i=0; i<len; i++){
 80021b0:	68fb      	ldr	r3, [r7, #12]
 80021b2:	3301      	adds	r3, #1
 80021b4:	60fb      	str	r3, [r7, #12]
 80021b6:	78fb      	ldrb	r3, [r7, #3]
 80021b8:	68fa      	ldr	r2, [r7, #12]
 80021ba:	429a      	cmp	r2, r3
 80021bc:	dbe9      	blt.n	8002192 <M8N_TransmitData+0x12>
	}
}
 80021be:	bf00      	nop
 80021c0:	3710      	adds	r7, #16
 80021c2:	46bd      	mov	sp, r7
 80021c4:	bd80      	pop	{r7, pc}
 80021c6:	bf00      	nop
 80021c8:	40004c00 	.word	0x40004c00

080021cc <M8N_UART4_Initialization>:

void M8N_UART4_Initialization(void){
 80021cc:	b580      	push	{r7, lr}
 80021ce:	b08e      	sub	sp, #56	; 0x38
 80021d0:	af00      	add	r7, sp, #0
	LL_USART_InitTypeDef USART_InitStruct = {0};
 80021d2:	f107 031c 	add.w	r3, r7, #28
 80021d6:	2200      	movs	r2, #0
 80021d8:	601a      	str	r2, [r3, #0]
 80021da:	605a      	str	r2, [r3, #4]
 80021dc:	609a      	str	r2, [r3, #8]
 80021de:	60da      	str	r2, [r3, #12]
 80021e0:	611a      	str	r2, [r3, #16]
 80021e2:	615a      	str	r2, [r3, #20]
 80021e4:	619a      	str	r2, [r3, #24]

	LL_GPIO_InitTypeDef GPIO_InitStruct = {0};
 80021e6:	1d3b      	adds	r3, r7, #4
 80021e8:	2200      	movs	r2, #0
 80021ea:	601a      	str	r2, [r3, #0]
 80021ec:	605a      	str	r2, [r3, #4]
 80021ee:	609a      	str	r2, [r3, #8]
 80021f0:	60da      	str	r2, [r3, #12]
 80021f2:	611a      	str	r2, [r3, #16]
 80021f4:	615a      	str	r2, [r3, #20]

	/* Peripheral clock enable */
	LL_APB1_GRP1_EnableClock(LL_APB1_GRP1_PERIPH_UART4);
 80021f6:	f44f 2000 	mov.w	r0, #524288	; 0x80000
 80021fa:	f7ff ffa9 	bl	8002150 <LL_APB1_GRP1_EnableClock>

	LL_AHB1_GRP1_EnableClock(LL_AHB1_GRP1_PERIPH_GPIOC);
 80021fe:	2004      	movs	r0, #4
 8002200:	f7ff ff8e 	bl	8002120 <LL_AHB1_GRP1_EnableClock>
	/**UART4 GPIO Configuration
	PC10   ------> UART4_TX
	PC11   ------> UART4_RX
	*/
	GPIO_InitStruct.Pin = MBN_TX4_Pin|MBN_RX4_Pin;
 8002204:	f44f 6340 	mov.w	r3, #3072	; 0xc00
 8002208:	607b      	str	r3, [r7, #4]
	GPIO_InitStruct.Mode = LL_GPIO_MODE_ALTERNATE;
 800220a:	2302      	movs	r3, #2
 800220c:	60bb      	str	r3, [r7, #8]
	GPIO_InitStruct.Speed = LL_GPIO_SPEED_FREQ_VERY_HIGH;
 800220e:	2303      	movs	r3, #3
 8002210:	60fb      	str	r3, [r7, #12]
	GPIO_InitStruct.OutputType = LL_GPIO_OUTPUT_PUSHPULL;
 8002212:	2300      	movs	r3, #0
 8002214:	613b      	str	r3, [r7, #16]
	GPIO_InitStruct.Pull = LL_GPIO_PULL_UP;
 8002216:	2301      	movs	r3, #1
 8002218:	617b      	str	r3, [r7, #20]
	GPIO_InitStruct.Alternate = LL_GPIO_AF_8;
 800221a:	2308      	movs	r3, #8
 800221c:	61bb      	str	r3, [r7, #24]
	LL_GPIO_Init(GPIOC, &GPIO_InitStruct);
 800221e:	1d3b      	adds	r3, r7, #4
 8002220:	4619      	mov	r1, r3
 8002222:	4819      	ldr	r0, [pc, #100]	; (8002288 <M8N_UART4_Initialization+0xbc>)
 8002224:	f002 f8b8 	bl	8004398 <LL_GPIO_Init>

	/* UART4 interrupt Init */
	NVIC_SetPriority(UART4_IRQn, NVIC_EncodePriority(NVIC_GetPriorityGrouping(),0, 0));
 8002228:	f7ff fea8 	bl	8001f7c <__NVIC_GetPriorityGrouping>
 800222c:	4603      	mov	r3, r0
 800222e:	2200      	movs	r2, #0
 8002230:	2100      	movs	r1, #0
 8002232:	4618      	mov	r0, r3
 8002234:	f7ff fef8 	bl	8002028 <NVIC_EncodePriority>
 8002238:	4603      	mov	r3, r0
 800223a:	4619      	mov	r1, r3
 800223c:	2034      	movs	r0, #52	; 0x34
 800223e:	f7ff fec9 	bl	8001fd4 <__NVIC_SetPriority>
	NVIC_EnableIRQ(UART4_IRQn);
 8002242:	2034      	movs	r0, #52	; 0x34
 8002244:	f7ff fea8 	bl	8001f98 <__NVIC_EnableIRQ>

	USART_InitStruct.BaudRate = 9600;
 8002248:	f44f 5316 	mov.w	r3, #9600	; 0x2580
 800224c:	61fb      	str	r3, [r7, #28]
	USART_InitStruct.DataWidth = LL_USART_DATAWIDTH_8B;
 800224e:	2300      	movs	r3, #0
 8002250:	623b      	str	r3, [r7, #32]
	USART_InitStruct.StopBits = LL_USART_STOPBITS_1;
 8002252:	2300      	movs	r3, #0
 8002254:	627b      	str	r3, [r7, #36]	; 0x24
	USART_InitStruct.Parity = LL_USART_PARITY_NONE;
 8002256:	2300      	movs	r3, #0
 8002258:	62bb      	str	r3, [r7, #40]	; 0x28
	USART_InitStruct.TransferDirection = LL_USART_DIRECTION_TX_RX;
 800225a:	230c      	movs	r3, #12
 800225c:	62fb      	str	r3, [r7, #44]	; 0x2c
	USART_InitStruct.HardwareFlowControl = LL_USART_HWCONTROL_NONE;
 800225e:	2300      	movs	r3, #0
 8002260:	633b      	str	r3, [r7, #48]	; 0x30
	USART_InitStruct.OverSampling = LL_USART_OVERSAMPLING_16;
 8002262:	2300      	movs	r3, #0
 8002264:	637b      	str	r3, [r7, #52]	; 0x34
	LL_USART_Init(UART4, &USART_InitStruct);
 8002266:	f107 031c 	add.w	r3, r7, #28
 800226a:	4619      	mov	r1, r3
 800226c:	4807      	ldr	r0, [pc, #28]	; (800228c <M8N_UART4_Initialization+0xc0>)
 800226e:	f002 ff7f 	bl	8005170 <LL_USART_Init>
	LL_USART_ConfigAsyncMode(UART4);
 8002272:	4806      	ldr	r0, [pc, #24]	; (800228c <M8N_UART4_Initialization+0xc0>)
 8002274:	f7ff ff1b 	bl	80020ae <LL_USART_ConfigAsyncMode>
	LL_USART_Enable(UART4);
 8002278:	4804      	ldr	r0, [pc, #16]	; (800228c <M8N_UART4_Initialization+0xc0>)
 800227a:	f7ff ff08 	bl	800208e <LL_USART_Enable>
}
 800227e:	bf00      	nop
 8002280:	3738      	adds	r7, #56	; 0x38
 8002282:	46bd      	mov	sp, r7
 8002284:	bd80      	pop	{r7, pc}
 8002286:	bf00      	nop
 8002288:	40020800 	.word	0x40020800
 800228c:	40004c00 	.word	0x40004c00

08002290 <M8N_Initialization>:

void M8N_Initialization(void){
 8002290:	b580      	push	{r7, lr}
 8002292:	af00      	add	r7, sp, #0
	M8N_UART4_Initialization();
 8002294:	f7ff ff9a 	bl	80021cc <M8N_UART4_Initialization>

	M8N_TransmitData(UBX_CFG_RPT, sizeof(UBX_CFG_RPT));
 8002298:	211c      	movs	r1, #28
 800229a:	480d      	ldr	r0, [pc, #52]	; (80022d0 <M8N_Initialization+0x40>)
 800229c:	f7ff ff70 	bl	8002180 <M8N_TransmitData>
	HAL_Delay(100);
 80022a0:	2064      	movs	r0, #100	; 0x64
 80022a2:	f001 fa29 	bl	80036f8 <HAL_Delay>
	M8N_TransmitData(UBX_CFG_MSG, sizeof(UBX_CFG_MSG));
 80022a6:	2110      	movs	r1, #16
 80022a8:	480a      	ldr	r0, [pc, #40]	; (80022d4 <M8N_Initialization+0x44>)
 80022aa:	f7ff ff69 	bl	8002180 <M8N_TransmitData>
	HAL_Delay(100);
 80022ae:	2064      	movs	r0, #100	; 0x64
 80022b0:	f001 fa22 	bl	80036f8 <HAL_Delay>
	M8N_TransmitData(UBX_CFG_RATE, sizeof(UBX_CFG_RATE));
 80022b4:	210e      	movs	r1, #14
 80022b6:	4808      	ldr	r0, [pc, #32]	; (80022d8 <M8N_Initialization+0x48>)
 80022b8:	f7ff ff62 	bl	8002180 <M8N_TransmitData>
	HAL_Delay(100);
 80022bc:	2064      	movs	r0, #100	; 0x64
 80022be:	f001 fa1b 	bl	80036f8 <HAL_Delay>
	M8N_TransmitData(UBX_CFG_CFG, sizeof(UBX_CFG_CFG));
 80022c2:	2115      	movs	r1, #21
 80022c4:	4805      	ldr	r0, [pc, #20]	; (80022dc <M8N_Initialization+0x4c>)
 80022c6:	f7ff ff5b 	bl	8002180 <M8N_TransmitData>
}
 80022ca:	bf00      	nop
 80022cc:	bd80      	pop	{r7, pc}
 80022ce:	bf00      	nop
 80022d0:	08007b9c 	.word	0x08007b9c
 80022d4:	08007bb8 	.word	0x08007bb8
 80022d8:	08007bc8 	.word	0x08007bc8
 80022dc:	08007bd8 	.word	0x08007bd8

080022e0 <LL_GPIO_ResetOutputPin>:
{
 80022e0:	b480      	push	{r7}
 80022e2:	b083      	sub	sp, #12
 80022e4:	af00      	add	r7, sp, #0
 80022e6:	6078      	str	r0, [r7, #4]
 80022e8:	6039      	str	r1, [r7, #0]
  WRITE_REG(GPIOx->BSRR, (PinMask << 16));
 80022ea:	683b      	ldr	r3, [r7, #0]
 80022ec:	041a      	lsls	r2, r3, #16
 80022ee:	687b      	ldr	r3, [r7, #4]
 80022f0:	619a      	str	r2, [r3, #24]
}
 80022f2:	bf00      	nop
 80022f4:	370c      	adds	r7, #12
 80022f6:	46bd      	mov	sp, r7
 80022f8:	f85d 7b04 	ldr.w	r7, [sp], #4
 80022fc:	4770      	bx	lr
	...

08002300 <LL_AHB1_GRP1_EnableClock>:
{
 8002300:	b480      	push	{r7}
 8002302:	b085      	sub	sp, #20
 8002304:	af00      	add	r7, sp, #0
 8002306:	6078      	str	r0, [r7, #4]
  SET_BIT(RCC->AHB1ENR, Periphs);
 8002308:	4b08      	ldr	r3, [pc, #32]	; (800232c <LL_AHB1_GRP1_EnableClock+0x2c>)
 800230a:	6b1a      	ldr	r2, [r3, #48]	; 0x30
 800230c:	4907      	ldr	r1, [pc, #28]	; (800232c <LL_AHB1_GRP1_EnableClock+0x2c>)
 800230e:	687b      	ldr	r3, [r7, #4]
 8002310:	4313      	orrs	r3, r2
 8002312:	630b      	str	r3, [r1, #48]	; 0x30
  tmpreg = READ_BIT(RCC->AHB1ENR, Periphs);
 8002314:	4b05      	ldr	r3, [pc, #20]	; (800232c <LL_AHB1_GRP1_EnableClock+0x2c>)
 8002316:	6b1a      	ldr	r2, [r3, #48]	; 0x30
 8002318:	687b      	ldr	r3, [r7, #4]
 800231a:	4013      	ands	r3, r2
 800231c:	60fb      	str	r3, [r7, #12]
  (void)tmpreg;
 800231e:	68fb      	ldr	r3, [r7, #12]
}
 8002320:	bf00      	nop
 8002322:	3714      	adds	r7, #20
 8002324:	46bd      	mov	sp, r7
 8002326:	f85d 7b04 	ldr.w	r7, [sp], #4
 800232a:	4770      	bx	lr
 800232c:	40023800 	.word	0x40023800

08002330 <MX_GPIO_Init>:
        * Output
        * EVENT_OUT
        * EXTI
*/
void MX_GPIO_Init(void)
{
 8002330:	b580      	push	{r7, lr}
 8002332:	b086      	sub	sp, #24
 8002334:	af00      	add	r7, sp, #0

  LL_GPIO_InitTypeDef GPIO_InitStruct = {0};
 8002336:	463b      	mov	r3, r7
 8002338:	2200      	movs	r2, #0
 800233a:	601a      	str	r2, [r3, #0]
 800233c:	605a      	str	r2, [r3, #4]
 800233e:	609a      	str	r2, [r3, #8]
 8002340:	60da      	str	r2, [r3, #12]
 8002342:	611a      	str	r2, [r3, #16]
 8002344:	615a      	str	r2, [r3, #20]

  /* GPIO Ports Clock Enable */
  LL_AHB1_GRP1_EnableClock(LL_AHB1_GRP1_PERIPH_GPIOH);
 8002346:	2080      	movs	r0, #128	; 0x80
 8002348:	f7ff ffda 	bl	8002300 <LL_AHB1_GRP1_EnableClock>
  LL_AHB1_GRP1_EnableClock(LL_AHB1_GRP1_PERIPH_GPIOC);
 800234c:	2004      	movs	r0, #4
 800234e:	f7ff ffd7 	bl	8002300 <LL_AHB1_GRP1_EnableClock>
  LL_AHB1_GRP1_EnableClock(LL_AHB1_GRP1_PERIPH_GPIOA);
 8002352:	2001      	movs	r0, #1
 8002354:	f7ff ffd4 	bl	8002300 <LL_AHB1_GRP1_EnableClock>
  LL_AHB1_GRP1_EnableClock(LL_AHB1_GRP1_PERIPH_GPIOB);
 8002358:	2002      	movs	r0, #2
 800235a:	f7ff ffd1 	bl	8002300 <LL_AHB1_GRP1_EnableClock>
  LL_AHB1_GRP1_EnableClock(LL_AHB1_GRP1_PERIPH_GPIOD);
 800235e:	2008      	movs	r0, #8
 8002360:	f7ff ffce 	bl	8002300 <LL_AHB1_GRP1_EnableClock>

  /**/
  LL_GPIO_ResetOutputPin(GPIOC, LL_GPIO_PIN_0|LL_GPIO_PIN_1|LL_GPIO_PIN_2|LL_GPIO_PIN_4 
 8002364:	f240 2117 	movw	r1, #535	; 0x217
 8002368:	482b      	ldr	r0, [pc, #172]	; (8002418 <MX_GPIO_Init+0xe8>)
 800236a:	f7ff ffb9 	bl	80022e0 <LL_GPIO_ResetOutputPin>
                          |LL_GPIO_PIN_9);

  /**/
  LL_GPIO_ResetOutputPin(GPIOB, LL_GPIO_PIN_12|LL_GPIO_PIN_6);
 800236e:	f44f 5182 	mov.w	r1, #4160	; 0x1040
 8002372:	482a      	ldr	r0, [pc, #168]	; (800241c <MX_GPIO_Init+0xec>)
 8002374:	f7ff ffb4 	bl	80022e0 <LL_GPIO_ResetOutputPin>

  /**/
  LL_GPIO_ResetOutputPin(GPIOA, LL_GPIO_PIN_8);
 8002378:	f44f 7180 	mov.w	r1, #256	; 0x100
 800237c:	4828      	ldr	r0, [pc, #160]	; (8002420 <MX_GPIO_Init+0xf0>)
 800237e:	f7ff ffaf 	bl	80022e0 <LL_GPIO_ResetOutputPin>

  /**/
  GPIO_InitStruct.Pin = LL_GPIO_PIN_0|LL_GPIO_PIN_1|LL_GPIO_PIN_2|LL_GPIO_PIN_4 
 8002382:	f240 2317 	movw	r3, #535	; 0x217
 8002386:	603b      	str	r3, [r7, #0]
                          |LL_GPIO_PIN_9;
  GPIO_InitStruct.Mode = LL_GPIO_MODE_OUTPUT;
 8002388:	2301      	movs	r3, #1
 800238a:	607b      	str	r3, [r7, #4]
  GPIO_InitStruct.Speed = LL_GPIO_SPEED_FREQ_LOW;
 800238c:	2300      	movs	r3, #0
 800238e:	60bb      	str	r3, [r7, #8]
  GPIO_InitStruct.OutputType = LL_GPIO_OUTPUT_PUSHPULL;
 8002390:	2300      	movs	r3, #0
 8002392:	60fb      	str	r3, [r7, #12]
  GPIO_InitStruct.Pull = LL_GPIO_PULL_NO;
 8002394:	2300      	movs	r3, #0
 8002396:	613b      	str	r3, [r7, #16]
  LL_GPIO_Init(GPIOC, &GPIO_InitStruct);
 8002398:	463b      	mov	r3, r7
 800239a:	4619      	mov	r1, r3
 800239c:	481e      	ldr	r0, [pc, #120]	; (8002418 <MX_GPIO_Init+0xe8>)
 800239e:	f001 fffb 	bl	8004398 <LL_GPIO_Init>

  /**/
  GPIO_InitStruct.Pin = LL_GPIO_PIN_5|LL_GPIO_PIN_8;
 80023a2:	f44f 7390 	mov.w	r3, #288	; 0x120
 80023a6:	603b      	str	r3, [r7, #0]
  GPIO_InitStruct.Mode = LL_GPIO_MODE_INPUT;
 80023a8:	2300      	movs	r3, #0
 80023aa:	607b      	str	r3, [r7, #4]
  GPIO_InitStruct.Pull = LL_GPIO_PULL_NO;
 80023ac:	2300      	movs	r3, #0
 80023ae:	613b      	str	r3, [r7, #16]
  LL_GPIO_Init(GPIOC, &GPIO_InitStruct);
 80023b0:	463b      	mov	r3, r7
 80023b2:	4619      	mov	r1, r3
 80023b4:	4818      	ldr	r0, [pc, #96]	; (8002418 <MX_GPIO_Init+0xe8>)
 80023b6:	f001 ffef 	bl	8004398 <LL_GPIO_Init>

  /**/
  GPIO_InitStruct.Pin = LL_GPIO_PIN_12|LL_GPIO_PIN_6;
 80023ba:	f44f 5382 	mov.w	r3, #4160	; 0x1040
 80023be:	603b      	str	r3, [r7, #0]
  GPIO_InitStruct.Mode = LL_GPIO_MODE_OUTPUT;
 80023c0:	2301      	movs	r3, #1
 80023c2:	607b      	str	r3, [r7, #4]
  GPIO_InitStruct.Speed = LL_GPIO_SPEED_FREQ_LOW;
 80023c4:	2300      	movs	r3, #0
 80023c6:	60bb      	str	r3, [r7, #8]
  GPIO_InitStruct.OutputType = LL_GPIO_OUTPUT_PUSHPULL;
 80023c8:	2300      	movs	r3, #0
 80023ca:	60fb      	str	r3, [r7, #12]
  GPIO_InitStruct.Pull = LL_GPIO_PULL_NO;
 80023cc:	2300      	movs	r3, #0
 80023ce:	613b      	str	r3, [r7, #16]
  LL_GPIO_Init(GPIOB, &GPIO_InitStruct);
 80023d0:	463b      	mov	r3, r7
 80023d2:	4619      	mov	r1, r3
 80023d4:	4811      	ldr	r0, [pc, #68]	; (800241c <MX_GPIO_Init+0xec>)
 80023d6:	f001 ffdf 	bl	8004398 <LL_GPIO_Init>

  /**/
  GPIO_InitStruct.Pin = LL_GPIO_PIN_8;
 80023da:	f44f 7380 	mov.w	r3, #256	; 0x100
 80023de:	603b      	str	r3, [r7, #0]
  GPIO_InitStruct.Mode = LL_GPIO_MODE_OUTPUT;
 80023e0:	2301      	movs	r3, #1
 80023e2:	607b      	str	r3, [r7, #4]
  GPIO_InitStruct.Speed = LL_GPIO_SPEED_FREQ_LOW;
 80023e4:	2300      	movs	r3, #0
 80023e6:	60bb      	str	r3, [r7, #8]
  GPIO_InitStruct.OutputType = LL_GPIO_OUTPUT_PUSHPULL;
 80023e8:	2300      	movs	r3, #0
 80023ea:	60fb      	str	r3, [r7, #12]
  GPIO_InitStruct.Pull = LL_GPIO_PULL_NO;
 80023ec:	2300      	movs	r3, #0
 80023ee:	613b      	str	r3, [r7, #16]
  LL_GPIO_Init(GPIOA, &GPIO_InitStruct);
 80023f0:	463b      	mov	r3, r7
 80023f2:	4619      	mov	r1, r3
 80023f4:	480a      	ldr	r0, [pc, #40]	; (8002420 <MX_GPIO_Init+0xf0>)
 80023f6:	f001 ffcf 	bl	8004398 <LL_GPIO_Init>

  /**/
  GPIO_InitStruct.Pin = LL_GPIO_PIN_7;
 80023fa:	2380      	movs	r3, #128	; 0x80
 80023fc:	603b      	str	r3, [r7, #0]
  GPIO_InitStruct.Mode = LL_GPIO_MODE_INPUT;
 80023fe:	2300      	movs	r3, #0
 8002400:	607b      	str	r3, [r7, #4]
  GPIO_InitStruct.Pull = LL_GPIO_PULL_NO;
 8002402:	2300      	movs	r3, #0
 8002404:	613b      	str	r3, [r7, #16]
  LL_GPIO_Init(GPIOB, &GPIO_InitStruct);
 8002406:	463b      	mov	r3, r7
 8002408:	4619      	mov	r1, r3
 800240a:	4804      	ldr	r0, [pc, #16]	; (800241c <MX_GPIO_Init+0xec>)
 800240c:	f001 ffc4 	bl	8004398 <LL_GPIO_Init>

}
 8002410:	bf00      	nop
 8002412:	3718      	adds	r7, #24
 8002414:	46bd      	mov	sp, r7
 8002416:	bd80      	pop	{r7, pc}
 8002418:	40020800 	.word	0x40020800
 800241c:	40020400 	.word	0x40020400
 8002420:	40020000 	.word	0x40020000

08002424 <LL_TIM_EnableCounter>:
  * @rmtoll CR1          CEN           LL_TIM_EnableCounter
  * @param  TIMx Timer instance
  * @retval None
  */
__STATIC_INLINE void LL_TIM_EnableCounter(TIM_TypeDef *TIMx)
{
 8002424:	b480      	push	{r7}
 8002426:	b083      	sub	sp, #12
 8002428:	af00      	add	r7, sp, #0
 800242a:	6078      	str	r0, [r7, #4]
  SET_BIT(TIMx->CR1, TIM_CR1_CEN);
 800242c:	687b      	ldr	r3, [r7, #4]
 800242e:	681b      	ldr	r3, [r3, #0]
 8002430:	f043 0201 	orr.w	r2, r3, #1
 8002434:	687b      	ldr	r3, [r7, #4]
 8002436:	601a      	str	r2, [r3, #0]
}
 8002438:	bf00      	nop
 800243a:	370c      	adds	r7, #12
 800243c:	46bd      	mov	sp, r7
 800243e:	f85d 7b04 	ldr.w	r7, [sp], #4
 8002442:	4770      	bx	lr

08002444 <LL_TIM_CC_EnableChannel>:
  *         @arg @ref LL_TIM_CHANNEL_CH3N
  *         @arg @ref LL_TIM_CHANNEL_CH4
  * @retval None
  */
__STATIC_INLINE void LL_TIM_CC_EnableChannel(TIM_TypeDef *TIMx, uint32_t Channels)
{
 8002444:	b480      	push	{r7}
 8002446:	b083      	sub	sp, #12
 8002448:	af00      	add	r7, sp, #0
 800244a:	6078      	str	r0, [r7, #4]
 800244c:	6039      	str	r1, [r7, #0]
  SET_BIT(TIMx->CCER, Channels);
 800244e:	687b      	ldr	r3, [r7, #4]
 8002450:	6a1a      	ldr	r2, [r3, #32]
 8002452:	683b      	ldr	r3, [r7, #0]
 8002454:	431a      	orrs	r2, r3
 8002456:	687b      	ldr	r3, [r7, #4]
 8002458:	621a      	str	r2, [r3, #32]
}
 800245a:	bf00      	nop
 800245c:	370c      	adds	r7, #12
 800245e:	46bd      	mov	sp, r7
 8002460:	f85d 7b04 	ldr.w	r7, [sp], #4
 8002464:	4770      	bx	lr

08002466 <LL_TIM_CC_DisableChannel>:
  *         @arg @ref LL_TIM_CHANNEL_CH3N
  *         @arg @ref LL_TIM_CHANNEL_CH4
  * @retval None
  */
__STATIC_INLINE void LL_TIM_CC_DisableChannel(TIM_TypeDef *TIMx, uint32_t Channels)
{
 8002466:	b480      	push	{r7}
 8002468:	b083      	sub	sp, #12
 800246a:	af00      	add	r7, sp, #0
 800246c:	6078      	str	r0, [r7, #4]
 800246e:	6039      	str	r1, [r7, #0]
  CLEAR_BIT(TIMx->CCER, Channels);
 8002470:	687b      	ldr	r3, [r7, #4]
 8002472:	6a1a      	ldr	r2, [r3, #32]
 8002474:	683b      	ldr	r3, [r7, #0]
 8002476:	43db      	mvns	r3, r3
 8002478:	401a      	ands	r2, r3
 800247a:	687b      	ldr	r3, [r7, #4]
 800247c:	621a      	str	r2, [r3, #32]
}
 800247e:	bf00      	nop
 8002480:	370c      	adds	r7, #12
 8002482:	46bd      	mov	sp, r7
 8002484:	f85d 7b04 	ldr.w	r7, [sp], #4
 8002488:	4770      	bx	lr

0800248a <LL_USART_IsActiveFlag_TXE>:
{
 800248a:	b480      	push	{r7}
 800248c:	b083      	sub	sp, #12
 800248e:	af00      	add	r7, sp, #0
 8002490:	6078      	str	r0, [r7, #4]
  return (READ_BIT(USARTx->SR, USART_SR_TXE) == (USART_SR_TXE));
 8002492:	687b      	ldr	r3, [r7, #4]
 8002494:	681b      	ldr	r3, [r3, #0]
 8002496:	f003 0380 	and.w	r3, r3, #128	; 0x80
 800249a:	2b80      	cmp	r3, #128	; 0x80
 800249c:	bf0c      	ite	eq
 800249e:	2301      	moveq	r3, #1
 80024a0:	2300      	movne	r3, #0
 80024a2:	b2db      	uxtb	r3, r3
}
 80024a4:	4618      	mov	r0, r3
 80024a6:	370c      	adds	r7, #12
 80024a8:	46bd      	mov	sp, r7
 80024aa:	f85d 7b04 	ldr.w	r7, [sp], #4
 80024ae:	4770      	bx	lr

080024b0 <LL_USART_EnableIT_RXNE>:
{
 80024b0:	b480      	push	{r7}
 80024b2:	b083      	sub	sp, #12
 80024b4:	af00      	add	r7, sp, #0
 80024b6:	6078      	str	r0, [r7, #4]
  SET_BIT(USARTx->CR1, USART_CR1_RXNEIE);
 80024b8:	687b      	ldr	r3, [r7, #4]
 80024ba:	68db      	ldr	r3, [r3, #12]
 80024bc:	f043 0220 	orr.w	r2, r3, #32
 80024c0:	687b      	ldr	r3, [r7, #4]
 80024c2:	60da      	str	r2, [r3, #12]
}
 80024c4:	bf00      	nop
 80024c6:	370c      	adds	r7, #12
 80024c8:	46bd      	mov	sp, r7
 80024ca:	f85d 7b04 	ldr.w	r7, [sp], #4
 80024ce:	4770      	bx	lr

080024d0 <LL_USART_TransmitData8>:
{
 80024d0:	b480      	push	{r7}
 80024d2:	b083      	sub	sp, #12
 80024d4:	af00      	add	r7, sp, #0
 80024d6:	6078      	str	r0, [r7, #4]
 80024d8:	460b      	mov	r3, r1
 80024da:	70fb      	strb	r3, [r7, #3]
  USARTx->DR = Value;
 80024dc:	78fa      	ldrb	r2, [r7, #3]
 80024de:	687b      	ldr	r3, [r7, #4]
 80024e0:	605a      	str	r2, [r3, #4]
}
 80024e2:	bf00      	nop
 80024e4:	370c      	adds	r7, #12
 80024e6:	46bd      	mov	sp, r7
 80024e8:	f85d 7b04 	ldr.w	r7, [sp], #4
 80024ec:	4770      	bx	lr

080024ee <LL_GPIO_TogglePin>:
  *         @arg @ref LL_GPIO_PIN_15
  *         @arg @ref LL_GPIO_PIN_ALL
  * @retval None
  */
__STATIC_INLINE void LL_GPIO_TogglePin(GPIO_TypeDef *GPIOx, uint32_t PinMask)
{
 80024ee:	b480      	push	{r7}
 80024f0:	b083      	sub	sp, #12
 80024f2:	af00      	add	r7, sp, #0
 80024f4:	6078      	str	r0, [r7, #4]
 80024f6:	6039      	str	r1, [r7, #0]
  WRITE_REG(GPIOx->ODR, READ_REG(GPIOx->ODR) ^ PinMask);
 80024f8:	687b      	ldr	r3, [r7, #4]
 80024fa:	695a      	ldr	r2, [r3, #20]
 80024fc:	683b      	ldr	r3, [r7, #0]
 80024fe:	405a      	eors	r2, r3
 8002500:	687b      	ldr	r3, [r7, #4]
 8002502:	615a      	str	r2, [r3, #20]
}
 8002504:	bf00      	nop
 8002506:	370c      	adds	r7, #12
 8002508:	46bd      	mov	sp, r7
 800250a:	f85d 7b04 	ldr.w	r7, [sp], #4
 800250e:	4770      	bx	lr

08002510 <_write>:

/* USER CODE END Includes */

/* Private typedef -----------------------------------------------------------*/
/* USER CODE BEGIN PTD */
int _write(int file, char* p, int len){
 8002510:	b580      	push	{r7, lr}
 8002512:	b086      	sub	sp, #24
 8002514:	af00      	add	r7, sp, #0
 8002516:	60f8      	str	r0, [r7, #12]
 8002518:	60b9      	str	r1, [r7, #8]
 800251a:	607a      	str	r2, [r7, #4]
	for(int i=0; i<len; i++){
 800251c:	2300      	movs	r3, #0
 800251e:	617b      	str	r3, [r7, #20]
 8002520:	e011      	b.n	8002546 <_write+0x36>
		while(!LL_USART_IsActiveFlag_TXE(USART6));
 8002522:	bf00      	nop
 8002524:	480c      	ldr	r0, [pc, #48]	; (8002558 <_write+0x48>)
 8002526:	f7ff ffb0 	bl	800248a <LL_USART_IsActiveFlag_TXE>
 800252a:	4603      	mov	r3, r0
 800252c:	2b00      	cmp	r3, #0
 800252e:	d0f9      	beq.n	8002524 <_write+0x14>
		LL_USART_TransmitData8(USART6, *(p+i));
 8002530:	697b      	ldr	r3, [r7, #20]
 8002532:	68ba      	ldr	r2, [r7, #8]
 8002534:	4413      	add	r3, r2
 8002536:	781b      	ldrb	r3, [r3, #0]
 8002538:	4619      	mov	r1, r3
 800253a:	4807      	ldr	r0, [pc, #28]	; (8002558 <_write+0x48>)
 800253c:	f7ff ffc8 	bl	80024d0 <LL_USART_TransmitData8>
	for(int i=0; i<len; i++){
 8002540:	697b      	ldr	r3, [r7, #20]
 8002542:	3301      	adds	r3, #1
 8002544:	617b      	str	r3, [r7, #20]
 8002546:	697a      	ldr	r2, [r7, #20]
 8002548:	687b      	ldr	r3, [r7, #4]
 800254a:	429a      	cmp	r2, r3
 800254c:	dbe9      	blt.n	8002522 <_write+0x12>
	}
	return len;
 800254e:	687b      	ldr	r3, [r7, #4]
}
 8002550:	4618      	mov	r0, r3
 8002552:	3718      	adds	r7, #24
 8002554:	46bd      	mov	sp, r7
 8002556:	bd80      	pop	{r7, pc}
 8002558:	40011400 	.word	0x40011400

0800255c <main>:
/**
  * @brief  The application entry point.
  * @retval int
  */
int main(void)
{
 800255c:	b5f0      	push	{r4, r5, r6, r7, lr}
 800255e:	b08d      	sub	sp, #52	; 0x34
 8002560:	af06      	add	r7, sp, #24
  /* USER CODE BEGIN 1 */
	int count=0;
 8002562:	2300      	movs	r3, #0
 8002564:	617b      	str	r3, [r7, #20]
	float f=1.244f;
 8002566:	4b4d      	ldr	r3, [pc, #308]	; (800269c <main+0x140>)
 8002568:	613b      	str	r3, [r7, #16]
  

  /* MCU Configuration--------------------------------------------------------*/

  /* Reset of all peripherals, Initializes the Flash interface and the Systick. */
  HAL_Init();
 800256a:	f001 f853 	bl	8003614 <HAL_Init>
  /* USER CODE BEGIN Init */

  /* USER CODE END Init */

  /* Configure the system clock */
  SystemClock_Config();
 800256e:	f000 f8a9 	bl	80026c4 <SystemClock_Config>
  /* USER CODE BEGIN SysInit */

  /* USER CODE END SysInit */

  /* Initialize all configured peripherals */
  MX_GPIO_Init();
 8002572:	f7ff fedd 	bl	8002330 <MX_GPIO_Init>
  MX_TIM3_Init();
 8002576:	f000 fd7f 	bl	8003078 <MX_TIM3_Init>
  MX_USART6_UART_Init();
 800257a:	f000 ffc1 	bl	8003500 <MX_USART6_UART_Init>
  MX_SPI2_Init();
 800257e:	f000 f9bf 	bl	8002900 <MX_SPI2_Init>
  MX_SPI1_Init();
 8002582:	f000 f96b 	bl	800285c <MX_SPI1_Init>
  MX_SPI3_Init();
 8002586:	f000 fa0f 	bl	80029a8 <MX_SPI3_Init>
  MX_UART4_Init();
 800258a:	f000 fedf 	bl	800334c <MX_UART4_Init>
  MX_UART5_Init();
 800258e:	f000 ff3f 	bl	8003410 <MX_UART5_Init>
  /* USER CODE BEGIN 2 */
  LL_TIM_EnableCounter(TIM3);
 8002592:	4843      	ldr	r0, [pc, #268]	; (80026a0 <main+0x144>)
 8002594:	f7ff ff46 	bl	8002424 <LL_TIM_EnableCounter>
  LL_TIM_CC_EnableChannel(TIM3, LL_TIM_CHANNEL_CH4);
 8002598:	f44f 5180 	mov.w	r1, #4096	; 0x1000
 800259c:	4840      	ldr	r0, [pc, #256]	; (80026a0 <main+0x144>)
 800259e:	f7ff ff51 	bl	8002444 <LL_TIM_CC_EnableChannel>

  TIM3->PSC=2000;	// 2KHz
 80025a2:	4b3f      	ldr	r3, [pc, #252]	; (80026a0 <main+0x144>)
 80025a4:	f44f 62fa 	mov.w	r2, #2000	; 0x7d0
 80025a8:	629a      	str	r2, [r3, #40]	; 0x28
  HAL_Delay(100);
 80025aa:	2064      	movs	r0, #100	; 0x64
 80025ac:	f001 f8a4 	bl	80036f8 <HAL_Delay>
  TIM3->PSC=1500;	// 3KHz
 80025b0:	4b3b      	ldr	r3, [pc, #236]	; (80026a0 <main+0x144>)
 80025b2:	f240 52dc 	movw	r2, #1500	; 0x5dc
 80025b6:	629a      	str	r2, [r3, #40]	; 0x28
  HAL_Delay(100);
 80025b8:	2064      	movs	r0, #100	; 0x64
 80025ba:	f001 f89d 	bl	80036f8 <HAL_Delay>
  TIM3->PSC=1000;	// 4KHz
 80025be:	4b38      	ldr	r3, [pc, #224]	; (80026a0 <main+0x144>)
 80025c0:	f44f 727a 	mov.w	r2, #1000	; 0x3e8
 80025c4:	629a      	str	r2, [r3, #40]	; 0x28
  HAL_Delay(100);
 80025c6:	2064      	movs	r0, #100	; 0x64
 80025c8:	f001 f896 	bl	80036f8 <HAL_Delay>

  LL_TIM_CC_DisableChannel(TIM3, LL_TIM_CHANNEL_CH4);
 80025cc:	f44f 5180 	mov.w	r1, #4096	; 0x1000
 80025d0:	4833      	ldr	r0, [pc, #204]	; (80026a0 <main+0x144>)
 80025d2:	f7ff ff48 	bl	8002466 <LL_TIM_CC_DisableChannel>

  LL_USART_EnableIT_RXNE(USART6);		// ?? ???????? ???? ??
 80025d6:	4833      	ldr	r0, [pc, #204]	; (80026a4 <main+0x148>)
 80025d8:	f7ff ff6a 	bl	80024b0 <LL_USART_EnableIT_RXNE>
  LL_USART_EnableIT_RXNE(UART4);		// enable receive UART interrupt
 80025dc:	4832      	ldr	r0, [pc, #200]	; (80026a8 <main+0x14c>)
 80025de:	f7ff ff67 	bl	80024b0 <LL_USART_EnableIT_RXNE>
  LL_USART_EnableIT_RXNE(UART5);
 80025e2:	4832      	ldr	r0, [pc, #200]	; (80026ac <main+0x150>)
 80025e4:	f7ff ff64 	bl	80024b0 <LL_USART_EnableIT_RXNE>

  BNO080_Initialization();
 80025e8:	f7fe fde2 	bl	80011b0 <BNO080_Initialization>
  BNO080_enableRotationVector(2500);	// 400ms
 80025ec:	f640 10c4 	movw	r0, #2500	; 0x9c4
 80025f0:	f7fe fe74 	bl	80012dc <BNO080_enableRotationVector>

  ICM20602_Initialization();
 80025f4:	f7ff fa22 	bl	8001a3c <ICM20602_Initialization>
  LPS22HH_Initialization();
 80025f8:	f7ff fc30 	bl	8001e5c <LPS22HH_Initialization>
  M8N_Initialization();
 80025fc:	f7ff fe48 	bl	8002290 <M8N_Initialization>
//
//			  printf("LAT: %ld\tLON: %ld\tHeight: %ld\n", polish.lat, polish.lon, polish.height);
//		  }
//	  }

	  if(ibus_rx_cplt_flag==1){
 8002600:	4b2b      	ldr	r3, [pc, #172]	; (80026b0 <main+0x154>)
 8002602:	781b      	ldrb	r3, [r3, #0]
 8002604:	2b01      	cmp	r3, #1
 8002606:	d1fb      	bne.n	8002600 <main+0xa4>
		  ibus_rx_cplt_flag=0;
 8002608:	4b29      	ldr	r3, [pc, #164]	; (80026b0 <main+0x154>)
 800260a:	2200      	movs	r2, #0
 800260c:	701a      	strb	r2, [r3, #0]
		  if(iBus_Check_CHKSUM(ibus_rx_buf, 32)==1){
 800260e:	2120      	movs	r1, #32
 8002610:	4828      	ldr	r0, [pc, #160]	; (80026b4 <main+0x158>)
 8002612:	f7fe ffa9 	bl	8001568 <iBus_Check_CHKSUM>
 8002616:	4603      	mov	r3, r0
 8002618:	2b01      	cmp	r3, #1
 800261a:	d1f1      	bne.n	8002600 <main+0xa4>
			  LL_GPIO_TogglePin(GPIOC, LL_GPIO_PIN_2);
 800261c:	2104      	movs	r1, #4
 800261e:	4826      	ldr	r0, [pc, #152]	; (80026b8 <main+0x15c>)
 8002620:	f7ff ff65 	bl	80024ee <LL_GPIO_TogglePin>

			  iBus_Parsing(ibus_rx_buf, &iBus);
 8002624:	4925      	ldr	r1, [pc, #148]	; (80026bc <main+0x160>)
 8002626:	4823      	ldr	r0, [pc, #140]	; (80026b4 <main+0x158>)
 8002628:	f7fe ffd4 	bl	80015d4 <iBus_Parsing>

			  if(iBus_IsActiveFailsafe(&iBus)==1){
 800262c:	4823      	ldr	r0, [pc, #140]	; (80026bc <main+0x160>)
 800262e:	f7ff f85f 	bl	80016f0 <iBus_IsActiveFailsafe>
 8002632:	4603      	mov	r3, r0
 8002634:	2b01      	cmp	r3, #1
 8002636:	d105      	bne.n	8002644 <main+0xe8>
				  LL_TIM_CC_EnableChannel(TIM3, LL_TIM_CHANNEL_CH4);
 8002638:	f44f 5180 	mov.w	r1, #4096	; 0x1000
 800263c:	4818      	ldr	r0, [pc, #96]	; (80026a0 <main+0x144>)
 800263e:	f7ff ff01 	bl	8002444 <LL_TIM_CC_EnableChannel>
 8002642:	e004      	b.n	800264e <main+0xf2>
			  }else{
				  LL_TIM_CC_DisableChannel(TIM3, LL_TIM_CHANNEL_CH4);
 8002644:	f44f 5180 	mov.w	r1, #4096	; 0x1000
 8002648:	4815      	ldr	r0, [pc, #84]	; (80026a0 <main+0x144>)
 800264a:	f7ff ff0c 	bl	8002466 <LL_TIM_CC_DisableChannel>
			  }
			  printf("%d\t%d\t%d\t%d\t%d\t%d\t%d\t%d\n",
					  iBus.RH, iBus.RV, iBus.LV, iBus.LH, iBus.SwA, iBus.SwC, iBus.SwD, iBus.FailSafe);
 800264e:	4b1b      	ldr	r3, [pc, #108]	; (80026bc <main+0x160>)
 8002650:	881b      	ldrh	r3, [r3, #0]
			  printf("%d\t%d\t%d\t%d\t%d\t%d\t%d\t%d\n",
 8002652:	461d      	mov	r5, r3
					  iBus.RH, iBus.RV, iBus.LV, iBus.LH, iBus.SwA, iBus.SwC, iBus.SwD, iBus.FailSafe);
 8002654:	4b19      	ldr	r3, [pc, #100]	; (80026bc <main+0x160>)
 8002656:	885b      	ldrh	r3, [r3, #2]
			  printf("%d\t%d\t%d\t%d\t%d\t%d\t%d\t%d\n",
 8002658:	461e      	mov	r6, r3
					  iBus.RH, iBus.RV, iBus.LV, iBus.LH, iBus.SwA, iBus.SwC, iBus.SwD, iBus.FailSafe);
 800265a:	4b18      	ldr	r3, [pc, #96]	; (80026bc <main+0x160>)
 800265c:	889b      	ldrh	r3, [r3, #4]
			  printf("%d\t%d\t%d\t%d\t%d\t%d\t%d\t%d\n",
 800265e:	469c      	mov	ip, r3
					  iBus.RH, iBus.RV, iBus.LV, iBus.LH, iBus.SwA, iBus.SwC, iBus.SwD, iBus.FailSafe);
 8002660:	4b16      	ldr	r3, [pc, #88]	; (80026bc <main+0x160>)
 8002662:	88db      	ldrh	r3, [r3, #6]
			  printf("%d\t%d\t%d\t%d\t%d\t%d\t%d\t%d\n",
 8002664:	461a      	mov	r2, r3
					  iBus.RH, iBus.RV, iBus.LV, iBus.LH, iBus.SwA, iBus.SwC, iBus.SwD, iBus.FailSafe);
 8002666:	4b15      	ldr	r3, [pc, #84]	; (80026bc <main+0x160>)
 8002668:	891b      	ldrh	r3, [r3, #8]
			  printf("%d\t%d\t%d\t%d\t%d\t%d\t%d\t%d\n",
 800266a:	4619      	mov	r1, r3
					  iBus.RH, iBus.RV, iBus.LV, iBus.LH, iBus.SwA, iBus.SwC, iBus.SwD, iBus.FailSafe);
 800266c:	4b13      	ldr	r3, [pc, #76]	; (80026bc <main+0x160>)
 800266e:	899b      	ldrh	r3, [r3, #12]
			  printf("%d\t%d\t%d\t%d\t%d\t%d\t%d\t%d\n",
 8002670:	4618      	mov	r0, r3
					  iBus.RH, iBus.RV, iBus.LV, iBus.LH, iBus.SwA, iBus.SwC, iBus.SwD, iBus.FailSafe);
 8002672:	4b12      	ldr	r3, [pc, #72]	; (80026bc <main+0x160>)
 8002674:	89db      	ldrh	r3, [r3, #14]
			  printf("%d\t%d\t%d\t%d\t%d\t%d\t%d\t%d\n",
 8002676:	461c      	mov	r4, r3
					  iBus.RH, iBus.RV, iBus.LV, iBus.LH, iBus.SwA, iBus.SwC, iBus.SwD, iBus.FailSafe);
 8002678:	4b10      	ldr	r3, [pc, #64]	; (80026bc <main+0x160>)
 800267a:	7d1b      	ldrb	r3, [r3, #20]
			  printf("%d\t%d\t%d\t%d\t%d\t%d\t%d\t%d\n",
 800267c:	9304      	str	r3, [sp, #16]
 800267e:	9403      	str	r4, [sp, #12]
 8002680:	9002      	str	r0, [sp, #8]
 8002682:	9101      	str	r1, [sp, #4]
 8002684:	9200      	str	r2, [sp, #0]
 8002686:	4663      	mov	r3, ip
 8002688:	4632      	mov	r2, r6
 800268a:	4629      	mov	r1, r5
 800268c:	480c      	ldr	r0, [pc, #48]	; (80026c0 <main+0x164>)
 800268e:	f003 fa7d 	bl	8005b8c <iprintf>
			  HAL_Delay(100);
 8002692:	2064      	movs	r0, #100	; 0x64
 8002694:	f001 f830 	bl	80036f8 <HAL_Delay>
	  if(ibus_rx_cplt_flag==1){
 8002698:	e7b2      	b.n	8002600 <main+0xa4>
 800269a:	bf00      	nop
 800269c:	3f9f3b64 	.word	0x3f9f3b64
 80026a0:	40000400 	.word	0x40000400
 80026a4:	40011400 	.word	0x40011400
 80026a8:	40004c00 	.word	0x40004c00
 80026ac:	40005000 	.word	0x40005000
 80026b0:	20000205 	.word	0x20000205
 80026b4:	20000314 	.word	0x20000314
 80026b8:	40020800 	.word	0x40020800
 80026bc:	200002fc 	.word	0x200002fc
 80026c0:	08007b80 	.word	0x08007b80

080026c4 <SystemClock_Config>:
/**
  * @brief System Clock Configuration
  * @retval None
  */
void SystemClock_Config(void)
{
 80026c4:	b580      	push	{r7, lr}
 80026c6:	b094      	sub	sp, #80	; 0x50
 80026c8:	af00      	add	r7, sp, #0
  RCC_OscInitTypeDef RCC_OscInitStruct = {0};
 80026ca:	f107 0320 	add.w	r3, r7, #32
 80026ce:	2230      	movs	r2, #48	; 0x30
 80026d0:	2100      	movs	r1, #0
 80026d2:	4618      	mov	r0, r3
 80026d4:	f002 fdf6 	bl	80052c4 <memset>
  RCC_ClkInitTypeDef RCC_ClkInitStruct = {0};
 80026d8:	f107 030c 	add.w	r3, r7, #12
 80026dc:	2200      	movs	r2, #0
 80026de:	601a      	str	r2, [r3, #0]
 80026e0:	605a      	str	r2, [r3, #4]
 80026e2:	609a      	str	r2, [r3, #8]
 80026e4:	60da      	str	r2, [r3, #12]
 80026e6:	611a      	str	r2, [r3, #16]

  /** Configure the main internal regulator output voltage 
  */
  __HAL_RCC_PWR_CLK_ENABLE();
 80026e8:	2300      	movs	r3, #0
 80026ea:	60bb      	str	r3, [r7, #8]
 80026ec:	4b28      	ldr	r3, [pc, #160]	; (8002790 <SystemClock_Config+0xcc>)
 80026ee:	6c1b      	ldr	r3, [r3, #64]	; 0x40
 80026f0:	4a27      	ldr	r2, [pc, #156]	; (8002790 <SystemClock_Config+0xcc>)
 80026f2:	f043 5380 	orr.w	r3, r3, #268435456	; 0x10000000
 80026f6:	6413      	str	r3, [r2, #64]	; 0x40
 80026f8:	4b25      	ldr	r3, [pc, #148]	; (8002790 <SystemClock_Config+0xcc>)
 80026fa:	6c1b      	ldr	r3, [r3, #64]	; 0x40
 80026fc:	f003 5380 	and.w	r3, r3, #268435456	; 0x10000000
 8002700:	60bb      	str	r3, [r7, #8]
 8002702:	68bb      	ldr	r3, [r7, #8]
  __HAL_PWR_VOLTAGESCALING_CONFIG(PWR_REGULATOR_VOLTAGE_SCALE1);
 8002704:	2300      	movs	r3, #0
 8002706:	607b      	str	r3, [r7, #4]
 8002708:	4b22      	ldr	r3, [pc, #136]	; (8002794 <SystemClock_Config+0xd0>)
 800270a:	681b      	ldr	r3, [r3, #0]
 800270c:	4a21      	ldr	r2, [pc, #132]	; (8002794 <SystemClock_Config+0xd0>)
 800270e:	f443 4380 	orr.w	r3, r3, #16384	; 0x4000
 8002712:	6013      	str	r3, [r2, #0]
 8002714:	4b1f      	ldr	r3, [pc, #124]	; (8002794 <SystemClock_Config+0xd0>)
 8002716:	681b      	ldr	r3, [r3, #0]
 8002718:	f403 4380 	and.w	r3, r3, #16384	; 0x4000
 800271c:	607b      	str	r3, [r7, #4]
 800271e:	687b      	ldr	r3, [r7, #4]
  /** Initializes the CPU, AHB and APB busses clocks 
  */
  RCC_OscInitStruct.OscillatorType = RCC_OSCILLATORTYPE_HSE;
 8002720:	2301      	movs	r3, #1
 8002722:	623b      	str	r3, [r7, #32]
  RCC_OscInitStruct.HSEState = RCC_HSE_ON;
 8002724:	f44f 3380 	mov.w	r3, #65536	; 0x10000
 8002728:	627b      	str	r3, [r7, #36]	; 0x24
  RCC_OscInitStruct.PLL.PLLState = RCC_PLL_ON;
 800272a:	2302      	movs	r3, #2
 800272c:	63bb      	str	r3, [r7, #56]	; 0x38
  RCC_OscInitStruct.PLL.PLLSource = RCC_PLLSOURCE_HSE;
 800272e:	f44f 0380 	mov.w	r3, #4194304	; 0x400000
 8002732:	63fb      	str	r3, [r7, #60]	; 0x3c
  RCC_OscInitStruct.PLL.PLLM = 4;
 8002734:	2304      	movs	r3, #4
 8002736:	643b      	str	r3, [r7, #64]	; 0x40
  RCC_OscInitStruct.PLL.PLLN = 168;
 8002738:	23a8      	movs	r3, #168	; 0xa8
 800273a:	647b      	str	r3, [r7, #68]	; 0x44
  RCC_OscInitStruct.PLL.PLLP = RCC_PLLP_DIV2;
 800273c:	2302      	movs	r3, #2
 800273e:	64bb      	str	r3, [r7, #72]	; 0x48
  RCC_OscInitStruct.PLL.PLLQ = 4;
 8002740:	2304      	movs	r3, #4
 8002742:	64fb      	str	r3, [r7, #76]	; 0x4c
  if (HAL_RCC_OscConfig(&RCC_OscInitStruct) != HAL_OK)
 8002744:	f107 0320 	add.w	r3, r7, #32
 8002748:	4618      	mov	r0, r3
 800274a:	f001 f8dd 	bl	8003908 <HAL_RCC_OscConfig>
 800274e:	4603      	mov	r3, r0
 8002750:	2b00      	cmp	r3, #0
 8002752:	d001      	beq.n	8002758 <SystemClock_Config+0x94>
  {
    Error_Handler();
 8002754:	f000 f820 	bl	8002798 <Error_Handler>
  }
  /** Initializes the CPU, AHB and APB busses clocks 
  */
  RCC_ClkInitStruct.ClockType = RCC_CLOCKTYPE_HCLK|RCC_CLOCKTYPE_SYSCLK
 8002758:	230f      	movs	r3, #15
 800275a:	60fb      	str	r3, [r7, #12]
                              |RCC_CLOCKTYPE_PCLK1|RCC_CLOCKTYPE_PCLK2;
  RCC_ClkInitStruct.SYSCLKSource = RCC_SYSCLKSOURCE_PLLCLK;
 800275c:	2302      	movs	r3, #2
 800275e:	613b      	str	r3, [r7, #16]
  RCC_ClkInitStruct.AHBCLKDivider = RCC_SYSCLK_DIV1;
 8002760:	2300      	movs	r3, #0
 8002762:	617b      	str	r3, [r7, #20]
  RCC_ClkInitStruct.APB1CLKDivider = RCC_HCLK_DIV4;
 8002764:	f44f 53a0 	mov.w	r3, #5120	; 0x1400
 8002768:	61bb      	str	r3, [r7, #24]
  RCC_ClkInitStruct.APB2CLKDivider = RCC_HCLK_DIV2;
 800276a:	f44f 5380 	mov.w	r3, #4096	; 0x1000
 800276e:	61fb      	str	r3, [r7, #28]

  if (HAL_RCC_ClockConfig(&RCC_ClkInitStruct, FLASH_LATENCY_5) != HAL_OK)
 8002770:	f107 030c 	add.w	r3, r7, #12
 8002774:	2105      	movs	r1, #5
 8002776:	4618      	mov	r0, r3
 8002778:	f001 fb36 	bl	8003de8 <HAL_RCC_ClockConfig>
 800277c:	4603      	mov	r3, r0
 800277e:	2b00      	cmp	r3, #0
 8002780:	d001      	beq.n	8002786 <SystemClock_Config+0xc2>
  {
    Error_Handler();
 8002782:	f000 f809 	bl	8002798 <Error_Handler>
  }
}
 8002786:	bf00      	nop
 8002788:	3750      	adds	r7, #80	; 0x50
 800278a:	46bd      	mov	sp, r7
 800278c:	bd80      	pop	{r7, pc}
 800278e:	bf00      	nop
 8002790:	40023800 	.word	0x40023800
 8002794:	40007000 	.word	0x40007000

08002798 <Error_Handler>:
/**
  * @brief  This function is executed in case of error occurrence.
  * @retval None
  */
void Error_Handler(void)
{
 8002798:	b480      	push	{r7}
 800279a:	af00      	add	r7, sp, #0
  /* USER CODE BEGIN Error_Handler_Debug */
  /* User can add his own implementation to report the HAL error return state */

  /* USER CODE END Error_Handler_Debug */
}
 800279c:	bf00      	nop
 800279e:	46bd      	mov	sp, r7
 80027a0:	f85d 7b04 	ldr.w	r7, [sp], #4
 80027a4:	4770      	bx	lr

080027a6 <LL_SPI_SetStandard>:
{
 80027a6:	b480      	push	{r7}
 80027a8:	b083      	sub	sp, #12
 80027aa:	af00      	add	r7, sp, #0
 80027ac:	6078      	str	r0, [r7, #4]
 80027ae:	6039      	str	r1, [r7, #0]
  MODIFY_REG(SPIx->CR2, SPI_CR2_FRF, Standard);
 80027b0:	687b      	ldr	r3, [r7, #4]
 80027b2:	685b      	ldr	r3, [r3, #4]
 80027b4:	f023 0210 	bic.w	r2, r3, #16
 80027b8:	683b      	ldr	r3, [r7, #0]
 80027ba:	431a      	orrs	r2, r3
 80027bc:	687b      	ldr	r3, [r7, #4]
 80027be:	605a      	str	r2, [r3, #4]
}
 80027c0:	bf00      	nop
 80027c2:	370c      	adds	r7, #12
 80027c4:	46bd      	mov	sp, r7
 80027c6:	f85d 7b04 	ldr.w	r7, [sp], #4
 80027ca:	4770      	bx	lr

080027cc <LL_AHB1_GRP1_EnableClock>:
{
 80027cc:	b480      	push	{r7}
 80027ce:	b085      	sub	sp, #20
 80027d0:	af00      	add	r7, sp, #0
 80027d2:	6078      	str	r0, [r7, #4]
  SET_BIT(RCC->AHB1ENR, Periphs);
 80027d4:	4b08      	ldr	r3, [pc, #32]	; (80027f8 <LL_AHB1_GRP1_EnableClock+0x2c>)
 80027d6:	6b1a      	ldr	r2, [r3, #48]	; 0x30
 80027d8:	4907      	ldr	r1, [pc, #28]	; (80027f8 <LL_AHB1_GRP1_EnableClock+0x2c>)
 80027da:	687b      	ldr	r3, [r7, #4]
 80027dc:	4313      	orrs	r3, r2
 80027de:	630b      	str	r3, [r1, #48]	; 0x30
  tmpreg = READ_BIT(RCC->AHB1ENR, Periphs);
 80027e0:	4b05      	ldr	r3, [pc, #20]	; (80027f8 <LL_AHB1_GRP1_EnableClock+0x2c>)
 80027e2:	6b1a      	ldr	r2, [r3, #48]	; 0x30
 80027e4:	687b      	ldr	r3, [r7, #4]
 80027e6:	4013      	ands	r3, r2
 80027e8:	60fb      	str	r3, [r7, #12]
  (void)tmpreg;
 80027ea:	68fb      	ldr	r3, [r7, #12]
}
 80027ec:	bf00      	nop
 80027ee:	3714      	adds	r7, #20
 80027f0:	46bd      	mov	sp, r7
 80027f2:	f85d 7b04 	ldr.w	r7, [sp], #4
 80027f6:	4770      	bx	lr
 80027f8:	40023800 	.word	0x40023800

080027fc <LL_APB1_GRP1_EnableClock>:
{
 80027fc:	b480      	push	{r7}
 80027fe:	b085      	sub	sp, #20
 8002800:	af00      	add	r7, sp, #0
 8002802:	6078      	str	r0, [r7, #4]
  SET_BIT(RCC->APB1ENR, Periphs);
 8002804:	4b08      	ldr	r3, [pc, #32]	; (8002828 <LL_APB1_GRP1_EnableClock+0x2c>)
 8002806:	6c1a      	ldr	r2, [r3, #64]	; 0x40
 8002808:	4907      	ldr	r1, [pc, #28]	; (8002828 <LL_APB1_GRP1_EnableClock+0x2c>)
 800280a:	687b      	ldr	r3, [r7, #4]
 800280c:	4313      	orrs	r3, r2
 800280e:	640b      	str	r3, [r1, #64]	; 0x40
  tmpreg = READ_BIT(RCC->APB1ENR, Periphs);
 8002810:	4b05      	ldr	r3, [pc, #20]	; (8002828 <LL_APB1_GRP1_EnableClock+0x2c>)
 8002812:	6c1a      	ldr	r2, [r3, #64]	; 0x40
 8002814:	687b      	ldr	r3, [r7, #4]
 8002816:	4013      	ands	r3, r2
 8002818:	60fb      	str	r3, [r7, #12]
  (void)tmpreg;
 800281a:	68fb      	ldr	r3, [r7, #12]
}
 800281c:	bf00      	nop
 800281e:	3714      	adds	r7, #20
 8002820:	46bd      	mov	sp, r7
 8002822:	f85d 7b04 	ldr.w	r7, [sp], #4
 8002826:	4770      	bx	lr
 8002828:	40023800 	.word	0x40023800

0800282c <LL_APB2_GRP1_EnableClock>:
{
 800282c:	b480      	push	{r7}
 800282e:	b085      	sub	sp, #20
 8002830:	af00      	add	r7, sp, #0
 8002832:	6078      	str	r0, [r7, #4]
  SET_BIT(RCC->APB2ENR, Periphs);
 8002834:	4b08      	ldr	r3, [pc, #32]	; (8002858 <LL_APB2_GRP1_EnableClock+0x2c>)
 8002836:	6c5a      	ldr	r2, [r3, #68]	; 0x44
 8002838:	4907      	ldr	r1, [pc, #28]	; (8002858 <LL_APB2_GRP1_EnableClock+0x2c>)
 800283a:	687b      	ldr	r3, [r7, #4]
 800283c:	4313      	orrs	r3, r2
 800283e:	644b      	str	r3, [r1, #68]	; 0x44
  tmpreg = READ_BIT(RCC->APB2ENR, Periphs);
 8002840:	4b05      	ldr	r3, [pc, #20]	; (8002858 <LL_APB2_GRP1_EnableClock+0x2c>)
 8002842:	6c5a      	ldr	r2, [r3, #68]	; 0x44
 8002844:	687b      	ldr	r3, [r7, #4]
 8002846:	4013      	ands	r3, r2
 8002848:	60fb      	str	r3, [r7, #12]
  (void)tmpreg;
 800284a:	68fb      	ldr	r3, [r7, #12]
}
 800284c:	bf00      	nop
 800284e:	3714      	adds	r7, #20
 8002850:	46bd      	mov	sp, r7
 8002852:	f85d 7b04 	ldr.w	r7, [sp], #4
 8002856:	4770      	bx	lr
 8002858:	40023800 	.word	0x40023800

0800285c <MX_SPI1_Init>:

/* USER CODE END 0 */

/* SPI1 init function */
void MX_SPI1_Init(void)
{
 800285c:	b580      	push	{r7, lr}
 800285e:	b090      	sub	sp, #64	; 0x40
 8002860:	af00      	add	r7, sp, #0
  LL_SPI_InitTypeDef SPI_InitStruct = {0};
 8002862:	f107 0318 	add.w	r3, r7, #24
 8002866:	2228      	movs	r2, #40	; 0x28
 8002868:	2100      	movs	r1, #0
 800286a:	4618      	mov	r0, r3
 800286c:	f002 fd2a 	bl	80052c4 <memset>

  LL_GPIO_InitTypeDef GPIO_InitStruct = {0};
 8002870:	463b      	mov	r3, r7
 8002872:	2200      	movs	r2, #0
 8002874:	601a      	str	r2, [r3, #0]
 8002876:	605a      	str	r2, [r3, #4]
 8002878:	609a      	str	r2, [r3, #8]
 800287a:	60da      	str	r2, [r3, #12]
 800287c:	611a      	str	r2, [r3, #16]
 800287e:	615a      	str	r2, [r3, #20]

  /* Peripheral clock enable */
  LL_APB2_GRP1_EnableClock(LL_APB2_GRP1_PERIPH_SPI1);
 8002880:	f44f 5080 	mov.w	r0, #4096	; 0x1000
 8002884:	f7ff ffd2 	bl	800282c <LL_APB2_GRP1_EnableClock>
  
  LL_AHB1_GRP1_EnableClock(LL_AHB1_GRP1_PERIPH_GPIOA);
 8002888:	2001      	movs	r0, #1
 800288a:	f7ff ff9f 	bl	80027cc <LL_AHB1_GRP1_EnableClock>
  /**SPI1 GPIO Configuration  
  PA5   ------> SPI1_SCK
  PA6   ------> SPI1_MISO
  PA7   ------> SPI1_MOSI 
  */
  GPIO_InitStruct.Pin = LL_GPIO_PIN_5|LL_GPIO_PIN_6|LL_GPIO_PIN_7;
 800288e:	23e0      	movs	r3, #224	; 0xe0
 8002890:	603b      	str	r3, [r7, #0]
  GPIO_InitStruct.Mode = LL_GPIO_MODE_ALTERNATE;
 8002892:	2302      	movs	r3, #2
 8002894:	607b      	str	r3, [r7, #4]
  GPIO_InitStruct.Speed = LL_GPIO_SPEED_FREQ_VERY_HIGH;
 8002896:	2303      	movs	r3, #3
 8002898:	60bb      	str	r3, [r7, #8]
  GPIO_InitStruct.OutputType = LL_GPIO_OUTPUT_PUSHPULL;
 800289a:	2300      	movs	r3, #0
 800289c:	60fb      	str	r3, [r7, #12]
  GPIO_InitStruct.Pull = LL_GPIO_PULL_NO;
 800289e:	2300      	movs	r3, #0
 80028a0:	613b      	str	r3, [r7, #16]
  GPIO_InitStruct.Alternate = LL_GPIO_AF_5;
 80028a2:	2305      	movs	r3, #5
 80028a4:	617b      	str	r3, [r7, #20]
  LL_GPIO_Init(GPIOA, &GPIO_InitStruct);
 80028a6:	463b      	mov	r3, r7
 80028a8:	4619      	mov	r1, r3
 80028aa:	4813      	ldr	r0, [pc, #76]	; (80028f8 <MX_SPI1_Init+0x9c>)
 80028ac:	f001 fd74 	bl	8004398 <LL_GPIO_Init>

  SPI_InitStruct.TransferDirection = LL_SPI_FULL_DUPLEX;
 80028b0:	2300      	movs	r3, #0
 80028b2:	61bb      	str	r3, [r7, #24]
  SPI_InitStruct.Mode = LL_SPI_MODE_MASTER;
 80028b4:	f44f 7382 	mov.w	r3, #260	; 0x104
 80028b8:	61fb      	str	r3, [r7, #28]
  SPI_InitStruct.DataWidth = LL_SPI_DATAWIDTH_8BIT;
 80028ba:	2300      	movs	r3, #0
 80028bc:	623b      	str	r3, [r7, #32]
  SPI_InitStruct.ClockPolarity = LL_SPI_POLARITY_HIGH;
 80028be:	2302      	movs	r3, #2
 80028c0:	627b      	str	r3, [r7, #36]	; 0x24
  SPI_InitStruct.ClockPhase = LL_SPI_PHASE_2EDGE;
 80028c2:	2301      	movs	r3, #1
 80028c4:	62bb      	str	r3, [r7, #40]	; 0x28
  SPI_InitStruct.NSS = LL_SPI_NSS_SOFT;
 80028c6:	f44f 7300 	mov.w	r3, #512	; 0x200
 80028ca:	62fb      	str	r3, [r7, #44]	; 0x2c
  SPI_InitStruct.BaudRate = LL_SPI_BAUDRATEPRESCALER_DIV8;
 80028cc:	2310      	movs	r3, #16
 80028ce:	633b      	str	r3, [r7, #48]	; 0x30
  SPI_InitStruct.BitOrder = LL_SPI_MSB_FIRST;
 80028d0:	2300      	movs	r3, #0
 80028d2:	637b      	str	r3, [r7, #52]	; 0x34
  SPI_InitStruct.CRCCalculation = LL_SPI_CRCCALCULATION_DISABLE;
 80028d4:	2300      	movs	r3, #0
 80028d6:	63bb      	str	r3, [r7, #56]	; 0x38
  SPI_InitStruct.CRCPoly = 10;
 80028d8:	230a      	movs	r3, #10
 80028da:	63fb      	str	r3, [r7, #60]	; 0x3c
  LL_SPI_Init(SPI1, &SPI_InitStruct);
 80028dc:	f107 0318 	add.w	r3, r7, #24
 80028e0:	4619      	mov	r1, r3
 80028e2:	4806      	ldr	r0, [pc, #24]	; (80028fc <MX_SPI1_Init+0xa0>)
 80028e4:	f001 ff27 	bl	8004736 <LL_SPI_Init>
  LL_SPI_SetStandard(SPI1, LL_SPI_PROTOCOL_MOTOROLA);
 80028e8:	2100      	movs	r1, #0
 80028ea:	4804      	ldr	r0, [pc, #16]	; (80028fc <MX_SPI1_Init+0xa0>)
 80028ec:	f7ff ff5b 	bl	80027a6 <LL_SPI_SetStandard>

}
 80028f0:	bf00      	nop
 80028f2:	3740      	adds	r7, #64	; 0x40
 80028f4:	46bd      	mov	sp, r7
 80028f6:	bd80      	pop	{r7, pc}
 80028f8:	40020000 	.word	0x40020000
 80028fc:	40013000 	.word	0x40013000

08002900 <MX_SPI2_Init>:
/* SPI2 init function */
void MX_SPI2_Init(void)
{
 8002900:	b580      	push	{r7, lr}
 8002902:	b090      	sub	sp, #64	; 0x40
 8002904:	af00      	add	r7, sp, #0
  LL_SPI_InitTypeDef SPI_InitStruct = {0};
 8002906:	f107 0318 	add.w	r3, r7, #24
 800290a:	2228      	movs	r2, #40	; 0x28
 800290c:	2100      	movs	r1, #0
 800290e:	4618      	mov	r0, r3
 8002910:	f002 fcd8 	bl	80052c4 <memset>

  LL_GPIO_InitTypeDef GPIO_InitStruct = {0};
 8002914:	463b      	mov	r3, r7
 8002916:	2200      	movs	r2, #0
 8002918:	601a      	str	r2, [r3, #0]
 800291a:	605a      	str	r2, [r3, #4]
 800291c:	609a      	str	r2, [r3, #8]
 800291e:	60da      	str	r2, [r3, #12]
 8002920:	611a      	str	r2, [r3, #16]
 8002922:	615a      	str	r2, [r3, #20]

  /* Peripheral clock enable */
  LL_APB1_GRP1_EnableClock(LL_APB1_GRP1_PERIPH_SPI2);
 8002924:	f44f 4080 	mov.w	r0, #16384	; 0x4000
 8002928:	f7ff ff68 	bl	80027fc <LL_APB1_GRP1_EnableClock>
  
  LL_AHB1_GRP1_EnableClock(LL_AHB1_GRP1_PERIPH_GPIOB);
 800292c:	2002      	movs	r0, #2
 800292e:	f7ff ff4d 	bl	80027cc <LL_AHB1_GRP1_EnableClock>
  /**SPI2 GPIO Configuration  
  PB13   ------> SPI2_SCK
  PB14   ------> SPI2_MISO
  PB15   ------> SPI2_MOSI 
  */
  GPIO_InitStruct.Pin = LL_GPIO_PIN_13|LL_GPIO_PIN_14|LL_GPIO_PIN_15;
 8002932:	f44f 4360 	mov.w	r3, #57344	; 0xe000
 8002936:	603b      	str	r3, [r7, #0]
  GPIO_InitStruct.Mode = LL_GPIO_MODE_ALTERNATE;
 8002938:	2302      	movs	r3, #2
 800293a:	607b      	str	r3, [r7, #4]
  GPIO_InitStruct.Speed = LL_GPIO_SPEED_FREQ_VERY_HIGH;
 800293c:	2303      	movs	r3, #3
 800293e:	60bb      	str	r3, [r7, #8]
  GPIO_InitStruct.OutputType = LL_GPIO_OUTPUT_PUSHPULL;
 8002940:	2300      	movs	r3, #0
 8002942:	60fb      	str	r3, [r7, #12]
  GPIO_InitStruct.Pull = LL_GPIO_PULL_NO;
 8002944:	2300      	movs	r3, #0
 8002946:	613b      	str	r3, [r7, #16]
  GPIO_InitStruct.Alternate = LL_GPIO_AF_5;
 8002948:	2305      	movs	r3, #5
 800294a:	617b      	str	r3, [r7, #20]
  LL_GPIO_Init(GPIOB, &GPIO_InitStruct);
 800294c:	463b      	mov	r3, r7
 800294e:	4619      	mov	r1, r3
 8002950:	4813      	ldr	r0, [pc, #76]	; (80029a0 <MX_SPI2_Init+0xa0>)
 8002952:	f001 fd21 	bl	8004398 <LL_GPIO_Init>

  SPI_InitStruct.TransferDirection = LL_SPI_FULL_DUPLEX;
 8002956:	2300      	movs	r3, #0
 8002958:	61bb      	str	r3, [r7, #24]
  SPI_InitStruct.Mode = LL_SPI_MODE_MASTER;
 800295a:	f44f 7382 	mov.w	r3, #260	; 0x104
 800295e:	61fb      	str	r3, [r7, #28]
  SPI_InitStruct.DataWidth = LL_SPI_DATAWIDTH_8BIT;
 8002960:	2300      	movs	r3, #0
 8002962:	623b      	str	r3, [r7, #32]
  SPI_InitStruct.ClockPolarity = LL_SPI_POLARITY_HIGH;
 8002964:	2302      	movs	r3, #2
 8002966:	627b      	str	r3, [r7, #36]	; 0x24
  SPI_InitStruct.ClockPhase = LL_SPI_PHASE_2EDGE;
 8002968:	2301      	movs	r3, #1
 800296a:	62bb      	str	r3, [r7, #40]	; 0x28
  SPI_InitStruct.NSS = LL_SPI_NSS_SOFT;
 800296c:	f44f 7300 	mov.w	r3, #512	; 0x200
 8002970:	62fb      	str	r3, [r7, #44]	; 0x2c
  SPI_InitStruct.BaudRate = LL_SPI_BAUDRATEPRESCALER_DIV16;
 8002972:	2318      	movs	r3, #24
 8002974:	633b      	str	r3, [r7, #48]	; 0x30
  SPI_InitStruct.BitOrder = LL_SPI_MSB_FIRST;
 8002976:	2300      	movs	r3, #0
 8002978:	637b      	str	r3, [r7, #52]	; 0x34
  SPI_InitStruct.CRCCalculation = LL_SPI_CRCCALCULATION_DISABLE;
 800297a:	2300      	movs	r3, #0
 800297c:	63bb      	str	r3, [r7, #56]	; 0x38
  SPI_InitStruct.CRCPoly = 10;
 800297e:	230a      	movs	r3, #10
 8002980:	63fb      	str	r3, [r7, #60]	; 0x3c
  LL_SPI_Init(SPI2, &SPI_InitStruct);
 8002982:	f107 0318 	add.w	r3, r7, #24
 8002986:	4619      	mov	r1, r3
 8002988:	4806      	ldr	r0, [pc, #24]	; (80029a4 <MX_SPI2_Init+0xa4>)
 800298a:	f001 fed4 	bl	8004736 <LL_SPI_Init>
  LL_SPI_SetStandard(SPI2, LL_SPI_PROTOCOL_MOTOROLA);
 800298e:	2100      	movs	r1, #0
 8002990:	4804      	ldr	r0, [pc, #16]	; (80029a4 <MX_SPI2_Init+0xa4>)
 8002992:	f7ff ff08 	bl	80027a6 <LL_SPI_SetStandard>

}
 8002996:	bf00      	nop
 8002998:	3740      	adds	r7, #64	; 0x40
 800299a:	46bd      	mov	sp, r7
 800299c:	bd80      	pop	{r7, pc}
 800299e:	bf00      	nop
 80029a0:	40020400 	.word	0x40020400
 80029a4:	40003800 	.word	0x40003800

080029a8 <MX_SPI3_Init>:
/* SPI3 init function */
void MX_SPI3_Init(void)
{
 80029a8:	b580      	push	{r7, lr}
 80029aa:	b090      	sub	sp, #64	; 0x40
 80029ac:	af00      	add	r7, sp, #0
  LL_SPI_InitTypeDef SPI_InitStruct = {0};
 80029ae:	f107 0318 	add.w	r3, r7, #24
 80029b2:	2228      	movs	r2, #40	; 0x28
 80029b4:	2100      	movs	r1, #0
 80029b6:	4618      	mov	r0, r3
 80029b8:	f002 fc84 	bl	80052c4 <memset>

  LL_GPIO_InitTypeDef GPIO_InitStruct = {0};
 80029bc:	463b      	mov	r3, r7
 80029be:	2200      	movs	r2, #0
 80029c0:	601a      	str	r2, [r3, #0]
 80029c2:	605a      	str	r2, [r3, #4]
 80029c4:	609a      	str	r2, [r3, #8]
 80029c6:	60da      	str	r2, [r3, #12]
 80029c8:	611a      	str	r2, [r3, #16]
 80029ca:	615a      	str	r2, [r3, #20]

  /* Peripheral clock enable */
  LL_APB1_GRP1_EnableClock(LL_APB1_GRP1_PERIPH_SPI3);
 80029cc:	f44f 4000 	mov.w	r0, #32768	; 0x8000
 80029d0:	f7ff ff14 	bl	80027fc <LL_APB1_GRP1_EnableClock>
  
  LL_AHB1_GRP1_EnableClock(LL_AHB1_GRP1_PERIPH_GPIOB);
 80029d4:	2002      	movs	r0, #2
 80029d6:	f7ff fef9 	bl	80027cc <LL_AHB1_GRP1_EnableClock>
  /**SPI3 GPIO Configuration  
  PB3   ------> SPI3_SCK
  PB4   ------> SPI3_MISO
  PB5   ------> SPI3_MOSI 
  */
  GPIO_InitStruct.Pin = LL_GPIO_PIN_3|LL_GPIO_PIN_4|LL_GPIO_PIN_5;
 80029da:	2338      	movs	r3, #56	; 0x38
 80029dc:	603b      	str	r3, [r7, #0]
  GPIO_InitStruct.Mode = LL_GPIO_MODE_ALTERNATE;
 80029de:	2302      	movs	r3, #2
 80029e0:	607b      	str	r3, [r7, #4]
  GPIO_InitStruct.Speed = LL_GPIO_SPEED_FREQ_VERY_HIGH;
 80029e2:	2303      	movs	r3, #3
 80029e4:	60bb      	str	r3, [r7, #8]
  GPIO_InitStruct.OutputType = LL_GPIO_OUTPUT_PUSHPULL;
 80029e6:	2300      	movs	r3, #0
 80029e8:	60fb      	str	r3, [r7, #12]
  GPIO_InitStruct.Pull = LL_GPIO_PULL_NO;
 80029ea:	2300      	movs	r3, #0
 80029ec:	613b      	str	r3, [r7, #16]
  GPIO_InitStruct.Alternate = LL_GPIO_AF_6;
 80029ee:	2306      	movs	r3, #6
 80029f0:	617b      	str	r3, [r7, #20]
  LL_GPIO_Init(GPIOB, &GPIO_InitStruct);
 80029f2:	463b      	mov	r3, r7
 80029f4:	4619      	mov	r1, r3
 80029f6:	4813      	ldr	r0, [pc, #76]	; (8002a44 <MX_SPI3_Init+0x9c>)
 80029f8:	f001 fcce 	bl	8004398 <LL_GPIO_Init>

  SPI_InitStruct.TransferDirection = LL_SPI_FULL_DUPLEX;
 80029fc:	2300      	movs	r3, #0
 80029fe:	61bb      	str	r3, [r7, #24]
  SPI_InitStruct.Mode = LL_SPI_MODE_MASTER;
 8002a00:	f44f 7382 	mov.w	r3, #260	; 0x104
 8002a04:	61fb      	str	r3, [r7, #28]
  SPI_InitStruct.DataWidth = LL_SPI_DATAWIDTH_8BIT;
 8002a06:	2300      	movs	r3, #0
 8002a08:	623b      	str	r3, [r7, #32]
  SPI_InitStruct.ClockPolarity = LL_SPI_POLARITY_HIGH;
 8002a0a:	2302      	movs	r3, #2
 8002a0c:	627b      	str	r3, [r7, #36]	; 0x24
  SPI_InitStruct.ClockPhase = LL_SPI_PHASE_2EDGE;
 8002a0e:	2301      	movs	r3, #1
 8002a10:	62bb      	str	r3, [r7, #40]	; 0x28
  SPI_InitStruct.NSS = LL_SPI_NSS_SOFT;
 8002a12:	f44f 7300 	mov.w	r3, #512	; 0x200
 8002a16:	62fb      	str	r3, [r7, #44]	; 0x2c
  SPI_InitStruct.BaudRate = LL_SPI_BAUDRATEPRESCALER_DIV4;
 8002a18:	2308      	movs	r3, #8
 8002a1a:	633b      	str	r3, [r7, #48]	; 0x30
  SPI_InitStruct.BitOrder = LL_SPI_MSB_FIRST;
 8002a1c:	2300      	movs	r3, #0
 8002a1e:	637b      	str	r3, [r7, #52]	; 0x34
  SPI_InitStruct.CRCCalculation = LL_SPI_CRCCALCULATION_DISABLE;
 8002a20:	2300      	movs	r3, #0
 8002a22:	63bb      	str	r3, [r7, #56]	; 0x38
  SPI_InitStruct.CRCPoly = 10;
 8002a24:	230a      	movs	r3, #10
 8002a26:	63fb      	str	r3, [r7, #60]	; 0x3c
  LL_SPI_Init(SPI3, &SPI_InitStruct);
 8002a28:	f107 0318 	add.w	r3, r7, #24
 8002a2c:	4619      	mov	r1, r3
 8002a2e:	4806      	ldr	r0, [pc, #24]	; (8002a48 <MX_SPI3_Init+0xa0>)
 8002a30:	f001 fe81 	bl	8004736 <LL_SPI_Init>
  LL_SPI_SetStandard(SPI3, LL_SPI_PROTOCOL_MOTOROLA);
 8002a34:	2100      	movs	r1, #0
 8002a36:	4804      	ldr	r0, [pc, #16]	; (8002a48 <MX_SPI3_Init+0xa0>)
 8002a38:	f7ff feb5 	bl	80027a6 <LL_SPI_SetStandard>

}
 8002a3c:	bf00      	nop
 8002a3e:	3740      	adds	r7, #64	; 0x40
 8002a40:	46bd      	mov	sp, r7
 8002a42:	bd80      	pop	{r7, pc}
 8002a44:	40020400 	.word	0x40020400
 8002a48:	40003c00 	.word	0x40003c00

08002a4c <HAL_MspInit>:
/* USER CODE END 0 */
/**
  * Initializes the Global MSP.
  */
void HAL_MspInit(void)
{
 8002a4c:	b480      	push	{r7}
 8002a4e:	b083      	sub	sp, #12
 8002a50:	af00      	add	r7, sp, #0
  /* USER CODE BEGIN MspInit 0 */

  /* USER CODE END MspInit 0 */

  __HAL_RCC_SYSCFG_CLK_ENABLE();
 8002a52:	2300      	movs	r3, #0
 8002a54:	607b      	str	r3, [r7, #4]
 8002a56:	4b10      	ldr	r3, [pc, #64]	; (8002a98 <HAL_MspInit+0x4c>)
 8002a58:	6c5b      	ldr	r3, [r3, #68]	; 0x44
 8002a5a:	4a0f      	ldr	r2, [pc, #60]	; (8002a98 <HAL_MspInit+0x4c>)
 8002a5c:	f443 4380 	orr.w	r3, r3, #16384	; 0x4000
 8002a60:	6453      	str	r3, [r2, #68]	; 0x44
 8002a62:	4b0d      	ldr	r3, [pc, #52]	; (8002a98 <HAL_MspInit+0x4c>)
 8002a64:	6c5b      	ldr	r3, [r3, #68]	; 0x44
 8002a66:	f403 4380 	and.w	r3, r3, #16384	; 0x4000
 8002a6a:	607b      	str	r3, [r7, #4]
 8002a6c:	687b      	ldr	r3, [r7, #4]
  __HAL_RCC_PWR_CLK_ENABLE();
 8002a6e:	2300      	movs	r3, #0
 8002a70:	603b      	str	r3, [r7, #0]
 8002a72:	4b09      	ldr	r3, [pc, #36]	; (8002a98 <HAL_MspInit+0x4c>)
 8002a74:	6c1b      	ldr	r3, [r3, #64]	; 0x40
 8002a76:	4a08      	ldr	r2, [pc, #32]	; (8002a98 <HAL_MspInit+0x4c>)
 8002a78:	f043 5380 	orr.w	r3, r3, #268435456	; 0x10000000
 8002a7c:	6413      	str	r3, [r2, #64]	; 0x40
 8002a7e:	4b06      	ldr	r3, [pc, #24]	; (8002a98 <HAL_MspInit+0x4c>)
 8002a80:	6c1b      	ldr	r3, [r3, #64]	; 0x40
 8002a82:	f003 5380 	and.w	r3, r3, #268435456	; 0x10000000
 8002a86:	603b      	str	r3, [r7, #0]
 8002a88:	683b      	ldr	r3, [r7, #0]
  /* System interrupt init*/

  /* USER CODE BEGIN MspInit 1 */

  /* USER CODE END MspInit 1 */
}
 8002a8a:	bf00      	nop
 8002a8c:	370c      	adds	r7, #12
 8002a8e:	46bd      	mov	sp, r7
 8002a90:	f85d 7b04 	ldr.w	r7, [sp], #4
 8002a94:	4770      	bx	lr
 8002a96:	bf00      	nop
 8002a98:	40023800 	.word	0x40023800

08002a9c <LL_USART_IsActiveFlag_RXNE>:
{
 8002a9c:	b480      	push	{r7}
 8002a9e:	b083      	sub	sp, #12
 8002aa0:	af00      	add	r7, sp, #0
 8002aa2:	6078      	str	r0, [r7, #4]
  return (READ_BIT(USARTx->SR, USART_SR_RXNE) == (USART_SR_RXNE));
 8002aa4:	687b      	ldr	r3, [r7, #4]
 8002aa6:	681b      	ldr	r3, [r3, #0]
 8002aa8:	f003 0320 	and.w	r3, r3, #32
 8002aac:	2b20      	cmp	r3, #32
 8002aae:	bf0c      	ite	eq
 8002ab0:	2301      	moveq	r3, #1
 8002ab2:	2300      	movne	r3, #0
 8002ab4:	b2db      	uxtb	r3, r3
}
 8002ab6:	4618      	mov	r0, r3
 8002ab8:	370c      	adds	r7, #12
 8002aba:	46bd      	mov	sp, r7
 8002abc:	f85d 7b04 	ldr.w	r7, [sp], #4
 8002ac0:	4770      	bx	lr

08002ac2 <LL_USART_ClearFlag_RXNE>:
{
 8002ac2:	b480      	push	{r7}
 8002ac4:	b083      	sub	sp, #12
 8002ac6:	af00      	add	r7, sp, #0
 8002ac8:	6078      	str	r0, [r7, #4]
  WRITE_REG(USARTx->SR, ~(USART_SR_RXNE));
 8002aca:	687b      	ldr	r3, [r7, #4]
 8002acc:	f06f 0220 	mvn.w	r2, #32
 8002ad0:	601a      	str	r2, [r3, #0]
}
 8002ad2:	bf00      	nop
 8002ad4:	370c      	adds	r7, #12
 8002ad6:	46bd      	mov	sp, r7
 8002ad8:	f85d 7b04 	ldr.w	r7, [sp], #4
 8002adc:	4770      	bx	lr

08002ade <LL_USART_ReceiveData8>:
{
 8002ade:	b480      	push	{r7}
 8002ae0:	b083      	sub	sp, #12
 8002ae2:	af00      	add	r7, sp, #0
 8002ae4:	6078      	str	r0, [r7, #4]
  return (uint8_t)(READ_BIT(USARTx->DR, USART_DR_DR));
 8002ae6:	687b      	ldr	r3, [r7, #4]
 8002ae8:	685b      	ldr	r3, [r3, #4]
 8002aea:	b2db      	uxtb	r3, r3
}
 8002aec:	4618      	mov	r0, r3
 8002aee:	370c      	adds	r7, #12
 8002af0:	46bd      	mov	sp, r7
 8002af2:	f85d 7b04 	ldr.w	r7, [sp], #4
 8002af6:	4770      	bx	lr

08002af8 <NMI_Handler>:
/******************************************************************************/
/**
  * @brief This function handles Non maskable interrupt.
  */
void NMI_Handler(void)
{
 8002af8:	b480      	push	{r7}
 8002afa:	af00      	add	r7, sp, #0

  /* USER CODE END NonMaskableInt_IRQn 0 */
  /* USER CODE BEGIN NonMaskableInt_IRQn 1 */

  /* USER CODE END NonMaskableInt_IRQn 1 */
}
 8002afc:	bf00      	nop
 8002afe:	46bd      	mov	sp, r7
 8002b00:	f85d 7b04 	ldr.w	r7, [sp], #4
 8002b04:	4770      	bx	lr

08002b06 <HardFault_Handler>:

/**
  * @brief This function handles Hard fault interrupt.
  */
void HardFault_Handler(void)
{
 8002b06:	b480      	push	{r7}
 8002b08:	af00      	add	r7, sp, #0
  /* USER CODE BEGIN HardFault_IRQn 0 */

  /* USER CODE END HardFault_IRQn 0 */
  while (1)
 8002b0a:	e7fe      	b.n	8002b0a <HardFault_Handler+0x4>

08002b0c <MemManage_Handler>:

/**
  * @brief This function handles Memory management fault.
  */
void MemManage_Handler(void)
{
 8002b0c:	b480      	push	{r7}
 8002b0e:	af00      	add	r7, sp, #0
  /* USER CODE BEGIN MemoryManagement_IRQn 0 */

  /* USER CODE END MemoryManagement_IRQn 0 */
  while (1)
 8002b10:	e7fe      	b.n	8002b10 <MemManage_Handler+0x4>

08002b12 <BusFault_Handler>:

/**
  * @brief This function handles Pre-fetch fault, memory access fault.
  */
void BusFault_Handler(void)
{
 8002b12:	b480      	push	{r7}
 8002b14:	af00      	add	r7, sp, #0
  /* USER CODE BEGIN BusFault_IRQn 0 */

  /* USER CODE END BusFault_IRQn 0 */
  while (1)
 8002b16:	e7fe      	b.n	8002b16 <BusFault_Handler+0x4>

08002b18 <UsageFault_Handler>:

/**
  * @brief This function handles Undefined instruction or illegal state.
  */
void UsageFault_Handler(void)
{
 8002b18:	b480      	push	{r7}
 8002b1a:	af00      	add	r7, sp, #0
  /* USER CODE BEGIN UsageFault_IRQn 0 */

  /* USER CODE END UsageFault_IRQn 0 */
  while (1)
 8002b1c:	e7fe      	b.n	8002b1c <UsageFault_Handler+0x4>

08002b1e <SVC_Handler>:

/**
  * @brief This function handles System service call via SWI instruction.
  */
void SVC_Handler(void)
{
 8002b1e:	b480      	push	{r7}
 8002b20:	af00      	add	r7, sp, #0

  /* USER CODE END SVCall_IRQn 0 */
  /* USER CODE BEGIN SVCall_IRQn 1 */

  /* USER CODE END SVCall_IRQn 1 */
}
 8002b22:	bf00      	nop
 8002b24:	46bd      	mov	sp, r7
 8002b26:	f85d 7b04 	ldr.w	r7, [sp], #4
 8002b2a:	4770      	bx	lr

08002b2c <DebugMon_Handler>:

/**
  * @brief This function handles Debug monitor.
  */
void DebugMon_Handler(void)
{
 8002b2c:	b480      	push	{r7}
 8002b2e:	af00      	add	r7, sp, #0

  /* USER CODE END DebugMonitor_IRQn 0 */
  /* USER CODE BEGIN DebugMonitor_IRQn 1 */

  /* USER CODE END DebugMonitor_IRQn 1 */
}
 8002b30:	bf00      	nop
 8002b32:	46bd      	mov	sp, r7
 8002b34:	f85d 7b04 	ldr.w	r7, [sp], #4
 8002b38:	4770      	bx	lr

08002b3a <PendSV_Handler>:

/**
  * @brief This function handles Pendable request for system service.
  */
void PendSV_Handler(void)
{
 8002b3a:	b480      	push	{r7}
 8002b3c:	af00      	add	r7, sp, #0

  /* USER CODE END PendSV_IRQn 0 */
  /* USER CODE BEGIN PendSV_IRQn 1 */

  /* USER CODE END PendSV_IRQn 1 */
}
 8002b3e:	bf00      	nop
 8002b40:	46bd      	mov	sp, r7
 8002b42:	f85d 7b04 	ldr.w	r7, [sp], #4
 8002b46:	4770      	bx	lr

08002b48 <SysTick_Handler>:

/**
  * @brief This function handles System tick timer.
  */
void SysTick_Handler(void)
{
 8002b48:	b580      	push	{r7, lr}
 8002b4a:	af00      	add	r7, sp, #0
  /* USER CODE BEGIN SysTick_IRQn 0 */

  /* USER CODE END SysTick_IRQn 0 */
  HAL_IncTick();
 8002b4c:	f000 fdb4 	bl	80036b8 <HAL_IncTick>
  /* USER CODE BEGIN SysTick_IRQn 1 */

  /* USER CODE END SysTick_IRQn 1 */
}
 8002b50:	bf00      	nop
 8002b52:	bd80      	pop	{r7, pc}

08002b54 <UART4_IRQHandler>:

/**
  * @brief This function handles UART4 global interrupt.
  */
void UART4_IRQHandler(void)
{
 8002b54:	b580      	push	{r7, lr}
 8002b56:	af00      	add	r7, sp, #0
  /* USER CODE BEGIN UART4_IRQn 0 */
	static unsigned char cnt=0;
	if(LL_USART_IsActiveFlag_RXNE(UART4)){
 8002b58:	4831      	ldr	r0, [pc, #196]	; (8002c20 <UART4_IRQHandler+0xcc>)
 8002b5a:	f7ff ff9f 	bl	8002a9c <LL_USART_IsActiveFlag_RXNE>
 8002b5e:	4603      	mov	r3, r0
 8002b60:	2b00      	cmp	r3, #0
 8002b62:	d058      	beq.n	8002c16 <UART4_IRQHandler+0xc2>
		LL_USART_ClearFlag_RXNE(UART4);
 8002b64:	482e      	ldr	r0, [pc, #184]	; (8002c20 <UART4_IRQHandler+0xcc>)
 8002b66:	f7ff ffac 	bl	8002ac2 <LL_USART_ClearFlag_RXNE>
		uart4_rx_data=LL_USART_ReceiveData8(UART4);
 8002b6a:	482d      	ldr	r0, [pc, #180]	; (8002c20 <UART4_IRQHandler+0xcc>)
 8002b6c:	f7ff ffb7 	bl	8002ade <LL_USART_ReceiveData8>
 8002b70:	4603      	mov	r3, r0
 8002b72:	461a      	mov	r2, r3
 8002b74:	4b2b      	ldr	r3, [pc, #172]	; (8002c24 <UART4_IRQHandler+0xd0>)
 8002b76:	701a      	strb	r2, [r3, #0]
		uart4_rx_flag=1;
 8002b78:	4b2b      	ldr	r3, [pc, #172]	; (8002c28 <UART4_IRQHandler+0xd4>)
 8002b7a:	2201      	movs	r2, #1
 8002b7c:	701a      	strb	r2, [r3, #0]

		//LL_USART_TransmitData8(USART6, uart4_rx_data);		// Transmit as USART6 interface

		switch(cnt){
 8002b7e:	4b2b      	ldr	r3, [pc, #172]	; (8002c2c <UART4_IRQHandler+0xd8>)
 8002b80:	781b      	ldrb	r3, [r3, #0]
 8002b82:	2b01      	cmp	r3, #1
 8002b84:	d015      	beq.n	8002bb2 <UART4_IRQHandler+0x5e>
 8002b86:	2b23      	cmp	r3, #35	; 0x23
 8002b88:	d029      	beq.n	8002bde <UART4_IRQHandler+0x8a>
 8002b8a:	2b00      	cmp	r3, #0
 8002b8c:	d135      	bne.n	8002bfa <UART4_IRQHandler+0xa6>
			case 0:
				if(uart4_rx_data==0xb5){
 8002b8e:	4b25      	ldr	r3, [pc, #148]	; (8002c24 <UART4_IRQHandler+0xd0>)
 8002b90:	781b      	ldrb	r3, [r3, #0]
 8002b92:	2bb5      	cmp	r3, #181	; 0xb5
 8002b94:	d141      	bne.n	8002c1a <UART4_IRQHandler+0xc6>
					m8n_rx_buf[cnt]=uart4_rx_data;
 8002b96:	4b25      	ldr	r3, [pc, #148]	; (8002c2c <UART4_IRQHandler+0xd8>)
 8002b98:	781b      	ldrb	r3, [r3, #0]
 8002b9a:	461a      	mov	r2, r3
 8002b9c:	4b21      	ldr	r3, [pc, #132]	; (8002c24 <UART4_IRQHandler+0xd0>)
 8002b9e:	7819      	ldrb	r1, [r3, #0]
 8002ba0:	4b23      	ldr	r3, [pc, #140]	; (8002c30 <UART4_IRQHandler+0xdc>)
 8002ba2:	5499      	strb	r1, [r3, r2]
					cnt++;
 8002ba4:	4b21      	ldr	r3, [pc, #132]	; (8002c2c <UART4_IRQHandler+0xd8>)
 8002ba6:	781b      	ldrb	r3, [r3, #0]
 8002ba8:	3301      	adds	r3, #1
 8002baa:	b2da      	uxtb	r2, r3
 8002bac:	4b1f      	ldr	r3, [pc, #124]	; (8002c2c <UART4_IRQHandler+0xd8>)
 8002bae:	701a      	strb	r2, [r3, #0]
				}
				break;
 8002bb0:	e033      	b.n	8002c1a <UART4_IRQHandler+0xc6>
			case 1:
				if(uart4_rx_data==0x62){
 8002bb2:	4b1c      	ldr	r3, [pc, #112]	; (8002c24 <UART4_IRQHandler+0xd0>)
 8002bb4:	781b      	ldrb	r3, [r3, #0]
 8002bb6:	2b62      	cmp	r3, #98	; 0x62
 8002bb8:	d10d      	bne.n	8002bd6 <UART4_IRQHandler+0x82>
					m8n_rx_buf[cnt]=uart4_rx_data;
 8002bba:	4b1c      	ldr	r3, [pc, #112]	; (8002c2c <UART4_IRQHandler+0xd8>)
 8002bbc:	781b      	ldrb	r3, [r3, #0]
 8002bbe:	461a      	mov	r2, r3
 8002bc0:	4b18      	ldr	r3, [pc, #96]	; (8002c24 <UART4_IRQHandler+0xd0>)
 8002bc2:	7819      	ldrb	r1, [r3, #0]
 8002bc4:	4b1a      	ldr	r3, [pc, #104]	; (8002c30 <UART4_IRQHandler+0xdc>)
 8002bc6:	5499      	strb	r1, [r3, r2]
					cnt++;
 8002bc8:	4b18      	ldr	r3, [pc, #96]	; (8002c2c <UART4_IRQHandler+0xd8>)
 8002bca:	781b      	ldrb	r3, [r3, #0]
 8002bcc:	3301      	adds	r3, #1
 8002bce:	b2da      	uxtb	r2, r3
 8002bd0:	4b16      	ldr	r3, [pc, #88]	; (8002c2c <UART4_IRQHandler+0xd8>)
 8002bd2:	701a      	strb	r2, [r3, #0]
				}else{
					cnt=0;
				}
				break;
 8002bd4:	e022      	b.n	8002c1c <UART4_IRQHandler+0xc8>
					cnt=0;
 8002bd6:	4b15      	ldr	r3, [pc, #84]	; (8002c2c <UART4_IRQHandler+0xd8>)
 8002bd8:	2200      	movs	r2, #0
 8002bda:	701a      	strb	r2, [r3, #0]
				break;
 8002bdc:	e01e      	b.n	8002c1c <UART4_IRQHandler+0xc8>
			case 35:
				m8n_rx_buf[cnt]=uart4_rx_data;
 8002bde:	4b13      	ldr	r3, [pc, #76]	; (8002c2c <UART4_IRQHandler+0xd8>)
 8002be0:	781b      	ldrb	r3, [r3, #0]
 8002be2:	461a      	mov	r2, r3
 8002be4:	4b0f      	ldr	r3, [pc, #60]	; (8002c24 <UART4_IRQHandler+0xd0>)
 8002be6:	7819      	ldrb	r1, [r3, #0]
 8002be8:	4b11      	ldr	r3, [pc, #68]	; (8002c30 <UART4_IRQHandler+0xdc>)
 8002bea:	5499      	strb	r1, [r3, r2]
				cnt=0;
 8002bec:	4b0f      	ldr	r3, [pc, #60]	; (8002c2c <UART4_IRQHandler+0xd8>)
 8002bee:	2200      	movs	r2, #0
 8002bf0:	701a      	strb	r2, [r3, #0]
				m8n_rx_cplt_flag=1;
 8002bf2:	4b10      	ldr	r3, [pc, #64]	; (8002c34 <UART4_IRQHandler+0xe0>)
 8002bf4:	2201      	movs	r2, #1
 8002bf6:	701a      	strb	r2, [r3, #0]
				break;
 8002bf8:	e010      	b.n	8002c1c <UART4_IRQHandler+0xc8>
			default:
				m8n_rx_buf[cnt]=uart4_rx_data;
 8002bfa:	4b0c      	ldr	r3, [pc, #48]	; (8002c2c <UART4_IRQHandler+0xd8>)
 8002bfc:	781b      	ldrb	r3, [r3, #0]
 8002bfe:	461a      	mov	r2, r3
 8002c00:	4b08      	ldr	r3, [pc, #32]	; (8002c24 <UART4_IRQHandler+0xd0>)
 8002c02:	7819      	ldrb	r1, [r3, #0]
 8002c04:	4b0a      	ldr	r3, [pc, #40]	; (8002c30 <UART4_IRQHandler+0xdc>)
 8002c06:	5499      	strb	r1, [r3, r2]
				cnt++;
 8002c08:	4b08      	ldr	r3, [pc, #32]	; (8002c2c <UART4_IRQHandler+0xd8>)
 8002c0a:	781b      	ldrb	r3, [r3, #0]
 8002c0c:	3301      	adds	r3, #1
 8002c0e:	b2da      	uxtb	r2, r3
 8002c10:	4b06      	ldr	r3, [pc, #24]	; (8002c2c <UART4_IRQHandler+0xd8>)
 8002c12:	701a      	strb	r2, [r3, #0]
				break;
 8002c14:	e002      	b.n	8002c1c <UART4_IRQHandler+0xc8>
		}
	}
 8002c16:	bf00      	nop
 8002c18:	e000      	b.n	8002c1c <UART4_IRQHandler+0xc8>
				break;
 8002c1a:	bf00      	nop
  /* USER CODE END UART4_IRQn 0 */
  /* USER CODE BEGIN UART4_IRQn 1 */

  /* USER CODE END UART4_IRQn 1 */
}
 8002c1c:	bf00      	nop
 8002c1e:	bd80      	pop	{r7, pc}
 8002c20:	40004c00 	.word	0x40004c00
 8002c24:	20000201 	.word	0x20000201
 8002c28:	20000200 	.word	0x20000200
 8002c2c:	20000206 	.word	0x20000206
 8002c30:	20000334 	.word	0x20000334
 8002c34:	20000204 	.word	0x20000204

08002c38 <UART5_IRQHandler>:

/**
  * @brief This function handles UART5 global interrupt.
  */
void UART5_IRQHandler(void)
{
 8002c38:	b580      	push	{r7, lr}
 8002c3a:	af00      	add	r7, sp, #0
  /* USER CODE BEGIN UART5_IRQn 0 */
	static unsigned char cnt=0;

	if(LL_USART_IsActiveFlag_RXNE(UART5)){
 8002c3c:	4831      	ldr	r0, [pc, #196]	; (8002d04 <UART5_IRQHandler+0xcc>)
 8002c3e:	f7ff ff2d 	bl	8002a9c <LL_USART_IsActiveFlag_RXNE>
 8002c42:	4603      	mov	r3, r0
 8002c44:	2b00      	cmp	r3, #0
 8002c46:	d058      	beq.n	8002cfa <UART5_IRQHandler+0xc2>
		LL_USART_ClearFlag_RXNE(UART5);
 8002c48:	482e      	ldr	r0, [pc, #184]	; (8002d04 <UART5_IRQHandler+0xcc>)
 8002c4a:	f7ff ff3a 	bl	8002ac2 <LL_USART_ClearFlag_RXNE>
		uart5_rx_data=LL_USART_ReceiveData8(UART5);
 8002c4e:	482d      	ldr	r0, [pc, #180]	; (8002d04 <UART5_IRQHandler+0xcc>)
 8002c50:	f7ff ff45 	bl	8002ade <LL_USART_ReceiveData8>
 8002c54:	4603      	mov	r3, r0
 8002c56:	461a      	mov	r2, r3
 8002c58:	4b2b      	ldr	r3, [pc, #172]	; (8002d08 <UART5_IRQHandler+0xd0>)
 8002c5a:	701a      	strb	r2, [r3, #0]
		uart5_rx_flag=1;
 8002c5c:	4b2b      	ldr	r3, [pc, #172]	; (8002d0c <UART5_IRQHandler+0xd4>)
 8002c5e:	2201      	movs	r2, #1
 8002c60:	701a      	strb	r2, [r3, #0]

		switch(cnt){
 8002c62:	4b2b      	ldr	r3, [pc, #172]	; (8002d10 <UART5_IRQHandler+0xd8>)
 8002c64:	781b      	ldrb	r3, [r3, #0]
 8002c66:	2b01      	cmp	r3, #1
 8002c68:	d015      	beq.n	8002c96 <UART5_IRQHandler+0x5e>
 8002c6a:	2b1f      	cmp	r3, #31
 8002c6c:	d029      	beq.n	8002cc2 <UART5_IRQHandler+0x8a>
 8002c6e:	2b00      	cmp	r3, #0
 8002c70:	d135      	bne.n	8002cde <UART5_IRQHandler+0xa6>
			case 0:
				if(uart5_rx_data==0x20){
 8002c72:	4b25      	ldr	r3, [pc, #148]	; (8002d08 <UART5_IRQHandler+0xd0>)
 8002c74:	781b      	ldrb	r3, [r3, #0]
 8002c76:	2b20      	cmp	r3, #32
 8002c78:	d141      	bne.n	8002cfe <UART5_IRQHandler+0xc6>
					ibus_rx_buf[cnt]=uart5_rx_data;
 8002c7a:	4b25      	ldr	r3, [pc, #148]	; (8002d10 <UART5_IRQHandler+0xd8>)
 8002c7c:	781b      	ldrb	r3, [r3, #0]
 8002c7e:	461a      	mov	r2, r3
 8002c80:	4b21      	ldr	r3, [pc, #132]	; (8002d08 <UART5_IRQHandler+0xd0>)
 8002c82:	7819      	ldrb	r1, [r3, #0]
 8002c84:	4b23      	ldr	r3, [pc, #140]	; (8002d14 <UART5_IRQHandler+0xdc>)
 8002c86:	5499      	strb	r1, [r3, r2]
					cnt++;
 8002c88:	4b21      	ldr	r3, [pc, #132]	; (8002d10 <UART5_IRQHandler+0xd8>)
 8002c8a:	781b      	ldrb	r3, [r3, #0]
 8002c8c:	3301      	adds	r3, #1
 8002c8e:	b2da      	uxtb	r2, r3
 8002c90:	4b1f      	ldr	r3, [pc, #124]	; (8002d10 <UART5_IRQHandler+0xd8>)
 8002c92:	701a      	strb	r2, [r3, #0]
				}
				break;
 8002c94:	e033      	b.n	8002cfe <UART5_IRQHandler+0xc6>
			case 1:
				if(uart5_rx_data==0x40){
 8002c96:	4b1c      	ldr	r3, [pc, #112]	; (8002d08 <UART5_IRQHandler+0xd0>)
 8002c98:	781b      	ldrb	r3, [r3, #0]
 8002c9a:	2b40      	cmp	r3, #64	; 0x40
 8002c9c:	d10d      	bne.n	8002cba <UART5_IRQHandler+0x82>
					ibus_rx_buf[cnt]=uart5_rx_data;
 8002c9e:	4b1c      	ldr	r3, [pc, #112]	; (8002d10 <UART5_IRQHandler+0xd8>)
 8002ca0:	781b      	ldrb	r3, [r3, #0]
 8002ca2:	461a      	mov	r2, r3
 8002ca4:	4b18      	ldr	r3, [pc, #96]	; (8002d08 <UART5_IRQHandler+0xd0>)
 8002ca6:	7819      	ldrb	r1, [r3, #0]
 8002ca8:	4b1a      	ldr	r3, [pc, #104]	; (8002d14 <UART5_IRQHandler+0xdc>)
 8002caa:	5499      	strb	r1, [r3, r2]
					cnt++;
 8002cac:	4b18      	ldr	r3, [pc, #96]	; (8002d10 <UART5_IRQHandler+0xd8>)
 8002cae:	781b      	ldrb	r3, [r3, #0]
 8002cb0:	3301      	adds	r3, #1
 8002cb2:	b2da      	uxtb	r2, r3
 8002cb4:	4b16      	ldr	r3, [pc, #88]	; (8002d10 <UART5_IRQHandler+0xd8>)
 8002cb6:	701a      	strb	r2, [r3, #0]
				}else{
					cnt=0;
				}
				break;
 8002cb8:	e022      	b.n	8002d00 <UART5_IRQHandler+0xc8>
					cnt=0;
 8002cba:	4b15      	ldr	r3, [pc, #84]	; (8002d10 <UART5_IRQHandler+0xd8>)
 8002cbc:	2200      	movs	r2, #0
 8002cbe:	701a      	strb	r2, [r3, #0]
				break;
 8002cc0:	e01e      	b.n	8002d00 <UART5_IRQHandler+0xc8>
			case 31:
				ibus_rx_buf[cnt]=uart5_rx_data;
 8002cc2:	4b13      	ldr	r3, [pc, #76]	; (8002d10 <UART5_IRQHandler+0xd8>)
 8002cc4:	781b      	ldrb	r3, [r3, #0]
 8002cc6:	461a      	mov	r2, r3
 8002cc8:	4b0f      	ldr	r3, [pc, #60]	; (8002d08 <UART5_IRQHandler+0xd0>)
 8002cca:	7819      	ldrb	r1, [r3, #0]
 8002ccc:	4b11      	ldr	r3, [pc, #68]	; (8002d14 <UART5_IRQHandler+0xdc>)
 8002cce:	5499      	strb	r1, [r3, r2]
				cnt=0;
 8002cd0:	4b0f      	ldr	r3, [pc, #60]	; (8002d10 <UART5_IRQHandler+0xd8>)
 8002cd2:	2200      	movs	r2, #0
 8002cd4:	701a      	strb	r2, [r3, #0]
				ibus_rx_cplt_flag=1;
 8002cd6:	4b10      	ldr	r3, [pc, #64]	; (8002d18 <UART5_IRQHandler+0xe0>)
 8002cd8:	2201      	movs	r2, #1
 8002cda:	701a      	strb	r2, [r3, #0]
				break;
 8002cdc:	e010      	b.n	8002d00 <UART5_IRQHandler+0xc8>
			default:
				ibus_rx_buf[cnt]=uart5_rx_data;
 8002cde:	4b0c      	ldr	r3, [pc, #48]	; (8002d10 <UART5_IRQHandler+0xd8>)
 8002ce0:	781b      	ldrb	r3, [r3, #0]
 8002ce2:	461a      	mov	r2, r3
 8002ce4:	4b08      	ldr	r3, [pc, #32]	; (8002d08 <UART5_IRQHandler+0xd0>)
 8002ce6:	7819      	ldrb	r1, [r3, #0]
 8002ce8:	4b0a      	ldr	r3, [pc, #40]	; (8002d14 <UART5_IRQHandler+0xdc>)
 8002cea:	5499      	strb	r1, [r3, r2]
				cnt++;
 8002cec:	4b08      	ldr	r3, [pc, #32]	; (8002d10 <UART5_IRQHandler+0xd8>)
 8002cee:	781b      	ldrb	r3, [r3, #0]
 8002cf0:	3301      	adds	r3, #1
 8002cf2:	b2da      	uxtb	r2, r3
 8002cf4:	4b06      	ldr	r3, [pc, #24]	; (8002d10 <UART5_IRQHandler+0xd8>)
 8002cf6:	701a      	strb	r2, [r3, #0]
				break;
 8002cf8:	e002      	b.n	8002d00 <UART5_IRQHandler+0xc8>
		}

//		while(!LL_USART_IsActiveFlag_TXE(USART6));
//		LL_USART_TransmitData8(USART6, uart5_rx_data);		// Transmit as UART4 interface
	}
 8002cfa:	bf00      	nop
 8002cfc:	e000      	b.n	8002d00 <UART5_IRQHandler+0xc8>
				break;
 8002cfe:	bf00      	nop
  /* USER CODE END UART5_IRQn 0 */
  /* USER CODE BEGIN UART5_IRQn 1 */

  /* USER CODE END UART5_IRQn 1 */
}
 8002d00:	bf00      	nop
 8002d02:	bd80      	pop	{r7, pc}
 8002d04:	40005000 	.word	0x40005000
 8002d08:	20000203 	.word	0x20000203
 8002d0c:	20000202 	.word	0x20000202
 8002d10:	20000207 	.word	0x20000207
 8002d14:	20000314 	.word	0x20000314
 8002d18:	20000205 	.word	0x20000205

08002d1c <USART6_IRQHandler>:

/**
  * @brief This function handles USART6 global interrupt.
  */
void USART6_IRQHandler(void)
{
 8002d1c:	b580      	push	{r7, lr}
 8002d1e:	af00      	add	r7, sp, #0
  /* USER CODE BEGIN USART6_IRQn 0 */
	if(LL_USART_IsActiveFlag_RXNE(USART6)){
 8002d20:	480a      	ldr	r0, [pc, #40]	; (8002d4c <USART6_IRQHandler+0x30>)
 8002d22:	f7ff febb 	bl	8002a9c <LL_USART_IsActiveFlag_RXNE>
 8002d26:	4603      	mov	r3, r0
 8002d28:	2b00      	cmp	r3, #0
 8002d2a:	d00c      	beq.n	8002d46 <USART6_IRQHandler+0x2a>
		LL_USART_ClearFlag_RXNE(USART6);
 8002d2c:	4807      	ldr	r0, [pc, #28]	; (8002d4c <USART6_IRQHandler+0x30>)
 8002d2e:	f7ff fec8 	bl	8002ac2 <LL_USART_ClearFlag_RXNE>
		uart6_rx_data=LL_USART_ReceiveData8(USART6);
 8002d32:	4806      	ldr	r0, [pc, #24]	; (8002d4c <USART6_IRQHandler+0x30>)
 8002d34:	f7ff fed3 	bl	8002ade <LL_USART_ReceiveData8>
 8002d38:	4603      	mov	r3, r0
 8002d3a:	461a      	mov	r2, r3
 8002d3c:	4b04      	ldr	r3, [pc, #16]	; (8002d50 <USART6_IRQHandler+0x34>)
 8002d3e:	701a      	strb	r2, [r3, #0]
		uart6_rx_flag=1;
 8002d40:	4b04      	ldr	r3, [pc, #16]	; (8002d54 <USART6_IRQHandler+0x38>)
 8002d42:	2201      	movs	r2, #1
 8002d44:	701a      	strb	r2, [r3, #0]
	}
  /* USER CODE END USART6_IRQn 0 */
  /* USER CODE BEGIN USART6_IRQn 1 */

  /* USER CODE END USART6_IRQn 1 */
}
 8002d46:	bf00      	nop
 8002d48:	bd80      	pop	{r7, pc}
 8002d4a:	bf00      	nop
 8002d4c:	40011400 	.word	0x40011400
 8002d50:	200001ff 	.word	0x200001ff
 8002d54:	200001fe 	.word	0x200001fe

08002d58 <_read>:
	_kill(status, -1);
	while (1) {}		/* Make sure we hang here */
}

__attribute__((weak)) int _read(int file, char *ptr, int len)
{
 8002d58:	b580      	push	{r7, lr}
 8002d5a:	b086      	sub	sp, #24
 8002d5c:	af00      	add	r7, sp, #0
 8002d5e:	60f8      	str	r0, [r7, #12]
 8002d60:	60b9      	str	r1, [r7, #8]
 8002d62:	607a      	str	r2, [r7, #4]
	int DataIdx;

	for (DataIdx = 0; DataIdx < len; DataIdx++)
 8002d64:	2300      	movs	r3, #0
 8002d66:	617b      	str	r3, [r7, #20]
 8002d68:	e00a      	b.n	8002d80 <_read+0x28>
	{
		*ptr++ = __io_getchar();
 8002d6a:	f3af 8000 	nop.w
 8002d6e:	4601      	mov	r1, r0
 8002d70:	68bb      	ldr	r3, [r7, #8]
 8002d72:	1c5a      	adds	r2, r3, #1
 8002d74:	60ba      	str	r2, [r7, #8]
 8002d76:	b2ca      	uxtb	r2, r1
 8002d78:	701a      	strb	r2, [r3, #0]
	for (DataIdx = 0; DataIdx < len; DataIdx++)
 8002d7a:	697b      	ldr	r3, [r7, #20]
 8002d7c:	3301      	adds	r3, #1
 8002d7e:	617b      	str	r3, [r7, #20]
 8002d80:	697a      	ldr	r2, [r7, #20]
 8002d82:	687b      	ldr	r3, [r7, #4]
 8002d84:	429a      	cmp	r2, r3
 8002d86:	dbf0      	blt.n	8002d6a <_read+0x12>
	}

return len;
 8002d88:	687b      	ldr	r3, [r7, #4]
}
 8002d8a:	4618      	mov	r0, r3
 8002d8c:	3718      	adds	r7, #24
 8002d8e:	46bd      	mov	sp, r7
 8002d90:	bd80      	pop	{r7, pc}

08002d92 <_close>:
	}
	return len;
}

int _close(int file)
{
 8002d92:	b480      	push	{r7}
 8002d94:	b083      	sub	sp, #12
 8002d96:	af00      	add	r7, sp, #0
 8002d98:	6078      	str	r0, [r7, #4]
	return -1;
 8002d9a:	f04f 33ff 	mov.w	r3, #4294967295
}
 8002d9e:	4618      	mov	r0, r3
 8002da0:	370c      	adds	r7, #12
 8002da2:	46bd      	mov	sp, r7
 8002da4:	f85d 7b04 	ldr.w	r7, [sp], #4
 8002da8:	4770      	bx	lr

08002daa <_fstat>:


int _fstat(int file, struct stat *st)
{
 8002daa:	b480      	push	{r7}
 8002dac:	b083      	sub	sp, #12
 8002dae:	af00      	add	r7, sp, #0
 8002db0:	6078      	str	r0, [r7, #4]
 8002db2:	6039      	str	r1, [r7, #0]
	st->st_mode = S_IFCHR;
 8002db4:	683b      	ldr	r3, [r7, #0]
 8002db6:	f44f 5200 	mov.w	r2, #8192	; 0x2000
 8002dba:	605a      	str	r2, [r3, #4]
	return 0;
 8002dbc:	2300      	movs	r3, #0
}
 8002dbe:	4618      	mov	r0, r3
 8002dc0:	370c      	adds	r7, #12
 8002dc2:	46bd      	mov	sp, r7
 8002dc4:	f85d 7b04 	ldr.w	r7, [sp], #4
 8002dc8:	4770      	bx	lr

08002dca <_isatty>:

int _isatty(int file)
{
 8002dca:	b480      	push	{r7}
 8002dcc:	b083      	sub	sp, #12
 8002dce:	af00      	add	r7, sp, #0
 8002dd0:	6078      	str	r0, [r7, #4]
	return 1;
 8002dd2:	2301      	movs	r3, #1
}
 8002dd4:	4618      	mov	r0, r3
 8002dd6:	370c      	adds	r7, #12
 8002dd8:	46bd      	mov	sp, r7
 8002dda:	f85d 7b04 	ldr.w	r7, [sp], #4
 8002dde:	4770      	bx	lr

08002de0 <_lseek>:

int _lseek(int file, int ptr, int dir)
{
 8002de0:	b480      	push	{r7}
 8002de2:	b085      	sub	sp, #20
 8002de4:	af00      	add	r7, sp, #0
 8002de6:	60f8      	str	r0, [r7, #12]
 8002de8:	60b9      	str	r1, [r7, #8]
 8002dea:	607a      	str	r2, [r7, #4]
	return 0;
 8002dec:	2300      	movs	r3, #0
}
 8002dee:	4618      	mov	r0, r3
 8002df0:	3714      	adds	r7, #20
 8002df2:	46bd      	mov	sp, r7
 8002df4:	f85d 7b04 	ldr.w	r7, [sp], #4
 8002df8:	4770      	bx	lr
	...

08002dfc <_sbrk>:
/**
 _sbrk
 Increase program data space. Malloc and related functions depend on this
**/
caddr_t _sbrk(int incr)
{
 8002dfc:	b580      	push	{r7, lr}
 8002dfe:	b084      	sub	sp, #16
 8002e00:	af00      	add	r7, sp, #0
 8002e02:	6078      	str	r0, [r7, #4]
	extern char end asm("end");
	static char *heap_end;
	char *prev_heap_end;

	if (heap_end == 0)
 8002e04:	4b11      	ldr	r3, [pc, #68]	; (8002e4c <_sbrk+0x50>)
 8002e06:	681b      	ldr	r3, [r3, #0]
 8002e08:	2b00      	cmp	r3, #0
 8002e0a:	d102      	bne.n	8002e12 <_sbrk+0x16>
		heap_end = &end;
 8002e0c:	4b0f      	ldr	r3, [pc, #60]	; (8002e4c <_sbrk+0x50>)
 8002e0e:	4a10      	ldr	r2, [pc, #64]	; (8002e50 <_sbrk+0x54>)
 8002e10:	601a      	str	r2, [r3, #0]

	prev_heap_end = heap_end;
 8002e12:	4b0e      	ldr	r3, [pc, #56]	; (8002e4c <_sbrk+0x50>)
 8002e14:	681b      	ldr	r3, [r3, #0]
 8002e16:	60fb      	str	r3, [r7, #12]
	if (heap_end + incr > stack_ptr)
 8002e18:	4b0c      	ldr	r3, [pc, #48]	; (8002e4c <_sbrk+0x50>)
 8002e1a:	681a      	ldr	r2, [r3, #0]
 8002e1c:	687b      	ldr	r3, [r7, #4]
 8002e1e:	4413      	add	r3, r2
 8002e20:	466a      	mov	r2, sp
 8002e22:	4293      	cmp	r3, r2
 8002e24:	d907      	bls.n	8002e36 <_sbrk+0x3a>
	{
		errno = ENOMEM;
 8002e26:	f002 fa23 	bl	8005270 <__errno>
 8002e2a:	4602      	mov	r2, r0
 8002e2c:	230c      	movs	r3, #12
 8002e2e:	6013      	str	r3, [r2, #0]
		return (caddr_t) -1;
 8002e30:	f04f 33ff 	mov.w	r3, #4294967295
 8002e34:	e006      	b.n	8002e44 <_sbrk+0x48>
	}

	heap_end += incr;
 8002e36:	4b05      	ldr	r3, [pc, #20]	; (8002e4c <_sbrk+0x50>)
 8002e38:	681a      	ldr	r2, [r3, #0]
 8002e3a:	687b      	ldr	r3, [r7, #4]
 8002e3c:	4413      	add	r3, r2
 8002e3e:	4a03      	ldr	r2, [pc, #12]	; (8002e4c <_sbrk+0x50>)
 8002e40:	6013      	str	r3, [r2, #0]

	return (caddr_t) prev_heap_end;
 8002e42:	68fb      	ldr	r3, [r7, #12]
}
 8002e44:	4618      	mov	r0, r3
 8002e46:	3710      	adds	r7, #16
 8002e48:	46bd      	mov	sp, r7
 8002e4a:	bd80      	pop	{r7, pc}
 8002e4c:	20000208 	.word	0x20000208
 8002e50:	20000360 	.word	0x20000360

08002e54 <SystemInit>:
  *         configuration.
  * @param  None
  * @retval None
  */
void SystemInit(void)
{
 8002e54:	b480      	push	{r7}
 8002e56:	af00      	add	r7, sp, #0
  /* FPU settings ------------------------------------------------------------*/
  #if (__FPU_PRESENT == 1) && (__FPU_USED == 1)
    SCB->CPACR |= ((3UL << 10*2)|(3UL << 11*2));  /* set CP10 and CP11 Full Access */
 8002e58:	4b08      	ldr	r3, [pc, #32]	; (8002e7c <SystemInit+0x28>)
 8002e5a:	f8d3 3088 	ldr.w	r3, [r3, #136]	; 0x88
 8002e5e:	4a07      	ldr	r2, [pc, #28]	; (8002e7c <SystemInit+0x28>)
 8002e60:	f443 0370 	orr.w	r3, r3, #15728640	; 0xf00000
 8002e64:	f8c2 3088 	str.w	r3, [r2, #136]	; 0x88

  /* Configure the Vector Table location add offset address ------------------*/
#ifdef VECT_TAB_SRAM
  SCB->VTOR = SRAM_BASE | VECT_TAB_OFFSET; /* Vector Table Relocation in Internal SRAM */
#else
  SCB->VTOR = FLASH_BASE | VECT_TAB_OFFSET; /* Vector Table Relocation in Internal FLASH */
 8002e68:	4b04      	ldr	r3, [pc, #16]	; (8002e7c <SystemInit+0x28>)
 8002e6a:	f04f 6200 	mov.w	r2, #134217728	; 0x8000000
 8002e6e:	609a      	str	r2, [r3, #8]
#endif
}
 8002e70:	bf00      	nop
 8002e72:	46bd      	mov	sp, r7
 8002e74:	f85d 7b04 	ldr.w	r7, [sp], #4
 8002e78:	4770      	bx	lr
 8002e7a:	bf00      	nop
 8002e7c:	e000ed00 	.word	0xe000ed00

08002e80 <LL_TIM_EnableARRPreload>:
{
 8002e80:	b480      	push	{r7}
 8002e82:	b083      	sub	sp, #12
 8002e84:	af00      	add	r7, sp, #0
 8002e86:	6078      	str	r0, [r7, #4]
  SET_BIT(TIMx->CR1, TIM_CR1_ARPE);
 8002e88:	687b      	ldr	r3, [r7, #4]
 8002e8a:	681b      	ldr	r3, [r3, #0]
 8002e8c:	f043 0280 	orr.w	r2, r3, #128	; 0x80
 8002e90:	687b      	ldr	r3, [r7, #4]
 8002e92:	601a      	str	r2, [r3, #0]
}
 8002e94:	bf00      	nop
 8002e96:	370c      	adds	r7, #12
 8002e98:	46bd      	mov	sp, r7
 8002e9a:	f85d 7b04 	ldr.w	r7, [sp], #4
 8002e9e:	4770      	bx	lr

08002ea0 <LL_TIM_OC_DisableFast>:
  *         @arg @ref LL_TIM_CHANNEL_CH3
  *         @arg @ref LL_TIM_CHANNEL_CH4
  * @retval None
  */
__STATIC_INLINE void LL_TIM_OC_DisableFast(TIM_TypeDef *TIMx, uint32_t Channel)
{
 8002ea0:	b4b0      	push	{r4, r5, r7}
 8002ea2:	b083      	sub	sp, #12
 8002ea4:	af00      	add	r7, sp, #0
 8002ea6:	6078      	str	r0, [r7, #4]
 8002ea8:	6039      	str	r1, [r7, #0]
  register uint8_t iChannel = TIM_GET_CHANNEL_INDEX(Channel);
 8002eaa:	683b      	ldr	r3, [r7, #0]
 8002eac:	2b01      	cmp	r3, #1
 8002eae:	d01c      	beq.n	8002eea <LL_TIM_OC_DisableFast+0x4a>
 8002eb0:	683b      	ldr	r3, [r7, #0]
 8002eb2:	2b04      	cmp	r3, #4
 8002eb4:	d017      	beq.n	8002ee6 <LL_TIM_OC_DisableFast+0x46>
 8002eb6:	683b      	ldr	r3, [r7, #0]
 8002eb8:	2b10      	cmp	r3, #16
 8002eba:	d012      	beq.n	8002ee2 <LL_TIM_OC_DisableFast+0x42>
 8002ebc:	683b      	ldr	r3, [r7, #0]
 8002ebe:	2b40      	cmp	r3, #64	; 0x40
 8002ec0:	d00d      	beq.n	8002ede <LL_TIM_OC_DisableFast+0x3e>
 8002ec2:	683b      	ldr	r3, [r7, #0]
 8002ec4:	f5b3 7f80 	cmp.w	r3, #256	; 0x100
 8002ec8:	d007      	beq.n	8002eda <LL_TIM_OC_DisableFast+0x3a>
 8002eca:	683b      	ldr	r3, [r7, #0]
 8002ecc:	f5b3 6f80 	cmp.w	r3, #1024	; 0x400
 8002ed0:	d101      	bne.n	8002ed6 <LL_TIM_OC_DisableFast+0x36>
 8002ed2:	2305      	movs	r3, #5
 8002ed4:	e00a      	b.n	8002eec <LL_TIM_OC_DisableFast+0x4c>
 8002ed6:	2306      	movs	r3, #6
 8002ed8:	e008      	b.n	8002eec <LL_TIM_OC_DisableFast+0x4c>
 8002eda:	2304      	movs	r3, #4
 8002edc:	e006      	b.n	8002eec <LL_TIM_OC_DisableFast+0x4c>
 8002ede:	2303      	movs	r3, #3
 8002ee0:	e004      	b.n	8002eec <LL_TIM_OC_DisableFast+0x4c>
 8002ee2:	2302      	movs	r3, #2
 8002ee4:	e002      	b.n	8002eec <LL_TIM_OC_DisableFast+0x4c>
 8002ee6:	2301      	movs	r3, #1
 8002ee8:	e000      	b.n	8002eec <LL_TIM_OC_DisableFast+0x4c>
 8002eea:	2300      	movs	r3, #0
 8002eec:	461d      	mov	r5, r3
  register __IO uint32_t *pReg = (__IO uint32_t *)((uint32_t)((uint32_t)(&TIMx->CCMR1) + OFFSET_TAB_CCMRx[iChannel]));
 8002eee:	687b      	ldr	r3, [r7, #4]
 8002ef0:	3318      	adds	r3, #24
 8002ef2:	461a      	mov	r2, r3
 8002ef4:	4629      	mov	r1, r5
 8002ef6:	4b09      	ldr	r3, [pc, #36]	; (8002f1c <LL_TIM_OC_DisableFast+0x7c>)
 8002ef8:	5c5b      	ldrb	r3, [r3, r1]
 8002efa:	4413      	add	r3, r2
 8002efc:	461c      	mov	r4, r3
  CLEAR_BIT(*pReg, (TIM_CCMR1_OC1FE << SHIFT_TAB_OCxx[iChannel]));
 8002efe:	6822      	ldr	r2, [r4, #0]
 8002f00:	4629      	mov	r1, r5
 8002f02:	4b07      	ldr	r3, [pc, #28]	; (8002f20 <LL_TIM_OC_DisableFast+0x80>)
 8002f04:	5c5b      	ldrb	r3, [r3, r1]
 8002f06:	4619      	mov	r1, r3
 8002f08:	2304      	movs	r3, #4
 8002f0a:	408b      	lsls	r3, r1
 8002f0c:	43db      	mvns	r3, r3
 8002f0e:	4013      	ands	r3, r2
 8002f10:	6023      	str	r3, [r4, #0]

}
 8002f12:	bf00      	nop
 8002f14:	370c      	adds	r7, #12
 8002f16:	46bd      	mov	sp, r7
 8002f18:	bcb0      	pop	{r4, r5, r7}
 8002f1a:	4770      	bx	lr
 8002f1c:	08007c08 	.word	0x08007c08
 8002f20:	08007c10 	.word	0x08007c10

08002f24 <LL_TIM_OC_EnablePreload>:
  *         @arg @ref LL_TIM_CHANNEL_CH3
  *         @arg @ref LL_TIM_CHANNEL_CH4
  * @retval None
  */
__STATIC_INLINE void LL_TIM_OC_EnablePreload(TIM_TypeDef *TIMx, uint32_t Channel)
{
 8002f24:	b4b0      	push	{r4, r5, r7}
 8002f26:	b083      	sub	sp, #12
 8002f28:	af00      	add	r7, sp, #0
 8002f2a:	6078      	str	r0, [r7, #4]
 8002f2c:	6039      	str	r1, [r7, #0]
  register uint8_t iChannel = TIM_GET_CHANNEL_INDEX(Channel);
 8002f2e:	683b      	ldr	r3, [r7, #0]
 8002f30:	2b01      	cmp	r3, #1
 8002f32:	d01c      	beq.n	8002f6e <LL_TIM_OC_EnablePreload+0x4a>
 8002f34:	683b      	ldr	r3, [r7, #0]
 8002f36:	2b04      	cmp	r3, #4
 8002f38:	d017      	beq.n	8002f6a <LL_TIM_OC_EnablePreload+0x46>
 8002f3a:	683b      	ldr	r3, [r7, #0]
 8002f3c:	2b10      	cmp	r3, #16
 8002f3e:	d012      	beq.n	8002f66 <LL_TIM_OC_EnablePreload+0x42>
 8002f40:	683b      	ldr	r3, [r7, #0]
 8002f42:	2b40      	cmp	r3, #64	; 0x40
 8002f44:	d00d      	beq.n	8002f62 <LL_TIM_OC_EnablePreload+0x3e>
 8002f46:	683b      	ldr	r3, [r7, #0]
 8002f48:	f5b3 7f80 	cmp.w	r3, #256	; 0x100
 8002f4c:	d007      	beq.n	8002f5e <LL_TIM_OC_EnablePreload+0x3a>
 8002f4e:	683b      	ldr	r3, [r7, #0]
 8002f50:	f5b3 6f80 	cmp.w	r3, #1024	; 0x400
 8002f54:	d101      	bne.n	8002f5a <LL_TIM_OC_EnablePreload+0x36>
 8002f56:	2305      	movs	r3, #5
 8002f58:	e00a      	b.n	8002f70 <LL_TIM_OC_EnablePreload+0x4c>
 8002f5a:	2306      	movs	r3, #6
 8002f5c:	e008      	b.n	8002f70 <LL_TIM_OC_EnablePreload+0x4c>
 8002f5e:	2304      	movs	r3, #4
 8002f60:	e006      	b.n	8002f70 <LL_TIM_OC_EnablePreload+0x4c>
 8002f62:	2303      	movs	r3, #3
 8002f64:	e004      	b.n	8002f70 <LL_TIM_OC_EnablePreload+0x4c>
 8002f66:	2302      	movs	r3, #2
 8002f68:	e002      	b.n	8002f70 <LL_TIM_OC_EnablePreload+0x4c>
 8002f6a:	2301      	movs	r3, #1
 8002f6c:	e000      	b.n	8002f70 <LL_TIM_OC_EnablePreload+0x4c>
 8002f6e:	2300      	movs	r3, #0
 8002f70:	461d      	mov	r5, r3
  register __IO uint32_t *pReg = (__IO uint32_t *)((uint32_t)((uint32_t)(&TIMx->CCMR1) + OFFSET_TAB_CCMRx[iChannel]));
 8002f72:	687b      	ldr	r3, [r7, #4]
 8002f74:	3318      	adds	r3, #24
 8002f76:	461a      	mov	r2, r3
 8002f78:	4629      	mov	r1, r5
 8002f7a:	4b09      	ldr	r3, [pc, #36]	; (8002fa0 <LL_TIM_OC_EnablePreload+0x7c>)
 8002f7c:	5c5b      	ldrb	r3, [r3, r1]
 8002f7e:	4413      	add	r3, r2
 8002f80:	461c      	mov	r4, r3
  SET_BIT(*pReg, (TIM_CCMR1_OC1PE << SHIFT_TAB_OCxx[iChannel]));
 8002f82:	6822      	ldr	r2, [r4, #0]
 8002f84:	4629      	mov	r1, r5
 8002f86:	4b07      	ldr	r3, [pc, #28]	; (8002fa4 <LL_TIM_OC_EnablePreload+0x80>)
 8002f88:	5c5b      	ldrb	r3, [r3, r1]
 8002f8a:	4619      	mov	r1, r3
 8002f8c:	2308      	movs	r3, #8
 8002f8e:	408b      	lsls	r3, r1
 8002f90:	4313      	orrs	r3, r2
 8002f92:	6023      	str	r3, [r4, #0]
}
 8002f94:	bf00      	nop
 8002f96:	370c      	adds	r7, #12
 8002f98:	46bd      	mov	sp, r7
 8002f9a:	bcb0      	pop	{r4, r5, r7}
 8002f9c:	4770      	bx	lr
 8002f9e:	bf00      	nop
 8002fa0:	08007c08 	.word	0x08007c08
 8002fa4:	08007c10 	.word	0x08007c10

08002fa8 <LL_TIM_SetClockSource>:
  *         @arg @ref LL_TIM_CLOCKSOURCE_EXT_MODE1
  *         @arg @ref LL_TIM_CLOCKSOURCE_EXT_MODE2
  * @retval None
  */
__STATIC_INLINE void LL_TIM_SetClockSource(TIM_TypeDef *TIMx, uint32_t ClockSource)
{
 8002fa8:	b480      	push	{r7}
 8002faa:	b083      	sub	sp, #12
 8002fac:	af00      	add	r7, sp, #0
 8002fae:	6078      	str	r0, [r7, #4]
 8002fb0:	6039      	str	r1, [r7, #0]
  MODIFY_REG(TIMx->SMCR, TIM_SMCR_SMS | TIM_SMCR_ECE, ClockSource);
 8002fb2:	687b      	ldr	r3, [r7, #4]
 8002fb4:	689b      	ldr	r3, [r3, #8]
 8002fb6:	f423 4380 	bic.w	r3, r3, #16384	; 0x4000
 8002fba:	f023 0307 	bic.w	r3, r3, #7
 8002fbe:	683a      	ldr	r2, [r7, #0]
 8002fc0:	431a      	orrs	r2, r3
 8002fc2:	687b      	ldr	r3, [r7, #4]
 8002fc4:	609a      	str	r2, [r3, #8]
}
 8002fc6:	bf00      	nop
 8002fc8:	370c      	adds	r7, #12
 8002fca:	46bd      	mov	sp, r7
 8002fcc:	f85d 7b04 	ldr.w	r7, [sp], #4
 8002fd0:	4770      	bx	lr

08002fd2 <LL_TIM_SetTriggerOutput>:
  *         @arg @ref LL_TIM_TRGO_OC3REF
  *         @arg @ref LL_TIM_TRGO_OC4REF
  * @retval None
  */
__STATIC_INLINE void LL_TIM_SetTriggerOutput(TIM_TypeDef *TIMx, uint32_t TimerSynchronization)
{
 8002fd2:	b480      	push	{r7}
 8002fd4:	b083      	sub	sp, #12
 8002fd6:	af00      	add	r7, sp, #0
 8002fd8:	6078      	str	r0, [r7, #4]
 8002fda:	6039      	str	r1, [r7, #0]
  MODIFY_REG(TIMx->CR2, TIM_CR2_MMS, TimerSynchronization);
 8002fdc:	687b      	ldr	r3, [r7, #4]
 8002fde:	685b      	ldr	r3, [r3, #4]
 8002fe0:	f023 0270 	bic.w	r2, r3, #112	; 0x70
 8002fe4:	683b      	ldr	r3, [r7, #0]
 8002fe6:	431a      	orrs	r2, r3
 8002fe8:	687b      	ldr	r3, [r7, #4]
 8002fea:	605a      	str	r2, [r3, #4]
}
 8002fec:	bf00      	nop
 8002fee:	370c      	adds	r7, #12
 8002ff0:	46bd      	mov	sp, r7
 8002ff2:	f85d 7b04 	ldr.w	r7, [sp], #4
 8002ff6:	4770      	bx	lr

08002ff8 <LL_TIM_DisableMasterSlaveMode>:
  * @rmtoll SMCR         MSM           LL_TIM_DisableMasterSlaveMode
  * @param  TIMx Timer instance
  * @retval None
  */
__STATIC_INLINE void LL_TIM_DisableMasterSlaveMode(TIM_TypeDef *TIMx)
{
 8002ff8:	b480      	push	{r7}
 8002ffa:	b083      	sub	sp, #12
 8002ffc:	af00      	add	r7, sp, #0
 8002ffe:	6078      	str	r0, [r7, #4]
  CLEAR_BIT(TIMx->SMCR, TIM_SMCR_MSM);
 8003000:	687b      	ldr	r3, [r7, #4]
 8003002:	689b      	ldr	r3, [r3, #8]
 8003004:	f023 0280 	bic.w	r2, r3, #128	; 0x80
 8003008:	687b      	ldr	r3, [r7, #4]
 800300a:	609a      	str	r2, [r3, #8]
}
 800300c:	bf00      	nop
 800300e:	370c      	adds	r7, #12
 8003010:	46bd      	mov	sp, r7
 8003012:	f85d 7b04 	ldr.w	r7, [sp], #4
 8003016:	4770      	bx	lr

08003018 <LL_AHB1_GRP1_EnableClock>:
{
 8003018:	b480      	push	{r7}
 800301a:	b085      	sub	sp, #20
 800301c:	af00      	add	r7, sp, #0
 800301e:	6078      	str	r0, [r7, #4]
  SET_BIT(RCC->AHB1ENR, Periphs);
 8003020:	4b08      	ldr	r3, [pc, #32]	; (8003044 <LL_AHB1_GRP1_EnableClock+0x2c>)
 8003022:	6b1a      	ldr	r2, [r3, #48]	; 0x30
 8003024:	4907      	ldr	r1, [pc, #28]	; (8003044 <LL_AHB1_GRP1_EnableClock+0x2c>)
 8003026:	687b      	ldr	r3, [r7, #4]
 8003028:	4313      	orrs	r3, r2
 800302a:	630b      	str	r3, [r1, #48]	; 0x30
  tmpreg = READ_BIT(RCC->AHB1ENR, Periphs);
 800302c:	4b05      	ldr	r3, [pc, #20]	; (8003044 <LL_AHB1_GRP1_EnableClock+0x2c>)
 800302e:	6b1a      	ldr	r2, [r3, #48]	; 0x30
 8003030:	687b      	ldr	r3, [r7, #4]
 8003032:	4013      	ands	r3, r2
 8003034:	60fb      	str	r3, [r7, #12]
  (void)tmpreg;
 8003036:	68fb      	ldr	r3, [r7, #12]
}
 8003038:	bf00      	nop
 800303a:	3714      	adds	r7, #20
 800303c:	46bd      	mov	sp, r7
 800303e:	f85d 7b04 	ldr.w	r7, [sp], #4
 8003042:	4770      	bx	lr
 8003044:	40023800 	.word	0x40023800

08003048 <LL_APB1_GRP1_EnableClock>:
{
 8003048:	b480      	push	{r7}
 800304a:	b085      	sub	sp, #20
 800304c:	af00      	add	r7, sp, #0
 800304e:	6078      	str	r0, [r7, #4]
  SET_BIT(RCC->APB1ENR, Periphs);
 8003050:	4b08      	ldr	r3, [pc, #32]	; (8003074 <LL_APB1_GRP1_EnableClock+0x2c>)
 8003052:	6c1a      	ldr	r2, [r3, #64]	; 0x40
 8003054:	4907      	ldr	r1, [pc, #28]	; (8003074 <LL_APB1_GRP1_EnableClock+0x2c>)
 8003056:	687b      	ldr	r3, [r7, #4]
 8003058:	4313      	orrs	r3, r2
 800305a:	640b      	str	r3, [r1, #64]	; 0x40
  tmpreg = READ_BIT(RCC->APB1ENR, Periphs);
 800305c:	4b05      	ldr	r3, [pc, #20]	; (8003074 <LL_APB1_GRP1_EnableClock+0x2c>)
 800305e:	6c1a      	ldr	r2, [r3, #64]	; 0x40
 8003060:	687b      	ldr	r3, [r7, #4]
 8003062:	4013      	ands	r3, r2
 8003064:	60fb      	str	r3, [r7, #12]
  (void)tmpreg;
 8003066:	68fb      	ldr	r3, [r7, #12]
}
 8003068:	bf00      	nop
 800306a:	3714      	adds	r7, #20
 800306c:	46bd      	mov	sp, r7
 800306e:	f85d 7b04 	ldr.w	r7, [sp], #4
 8003072:	4770      	bx	lr
 8003074:	40023800 	.word	0x40023800

08003078 <MX_TIM3_Init>:

/* USER CODE END 0 */

/* TIM3 init function */
void MX_TIM3_Init(void)
{
 8003078:	b580      	push	{r7, lr}
 800307a:	b094      	sub	sp, #80	; 0x50
 800307c:	af00      	add	r7, sp, #0
  LL_TIM_InitTypeDef TIM_InitStruct = {0};
 800307e:	f107 033c 	add.w	r3, r7, #60	; 0x3c
 8003082:	2200      	movs	r2, #0
 8003084:	601a      	str	r2, [r3, #0]
 8003086:	605a      	str	r2, [r3, #4]
 8003088:	609a      	str	r2, [r3, #8]
 800308a:	60da      	str	r2, [r3, #12]
 800308c:	611a      	str	r2, [r3, #16]
  LL_TIM_OC_InitTypeDef TIM_OC_InitStruct = {0};
 800308e:	f107 031c 	add.w	r3, r7, #28
 8003092:	2220      	movs	r2, #32
 8003094:	2100      	movs	r1, #0
 8003096:	4618      	mov	r0, r3
 8003098:	f002 f914 	bl	80052c4 <memset>

  LL_GPIO_InitTypeDef GPIO_InitStruct = {0};
 800309c:	1d3b      	adds	r3, r7, #4
 800309e:	2200      	movs	r2, #0
 80030a0:	601a      	str	r2, [r3, #0]
 80030a2:	605a      	str	r2, [r3, #4]
 80030a4:	609a      	str	r2, [r3, #8]
 80030a6:	60da      	str	r2, [r3, #12]
 80030a8:	611a      	str	r2, [r3, #16]
 80030aa:	615a      	str	r2, [r3, #20]
  /* Peripheral clock enable */
  LL_APB1_GRP1_EnableClock(LL_APB1_GRP1_PERIPH_TIM3);
 80030ac:	2002      	movs	r0, #2
 80030ae:	f7ff ffcb 	bl	8003048 <LL_APB1_GRP1_EnableClock>

  TIM_InitStruct.Prescaler = 999;
 80030b2:	f240 33e7 	movw	r3, #999	; 0x3e7
 80030b6:	87bb      	strh	r3, [r7, #60]	; 0x3c
  TIM_InitStruct.CounterMode = LL_TIM_COUNTERMODE_UP;
 80030b8:	2300      	movs	r3, #0
 80030ba:	643b      	str	r3, [r7, #64]	; 0x40
  TIM_InitStruct.Autoreload = 20;
 80030bc:	2314      	movs	r3, #20
 80030be:	647b      	str	r3, [r7, #68]	; 0x44
  TIM_InitStruct.ClockDivision = LL_TIM_CLOCKDIVISION_DIV1;
 80030c0:	2300      	movs	r3, #0
 80030c2:	64bb      	str	r3, [r7, #72]	; 0x48
  LL_TIM_Init(TIM3, &TIM_InitStruct);
 80030c4:	f107 033c 	add.w	r3, r7, #60	; 0x3c
 80030c8:	4619      	mov	r1, r3
 80030ca:	4822      	ldr	r0, [pc, #136]	; (8003154 <MX_TIM3_Init+0xdc>)
 80030cc:	f001 fbf8 	bl	80048c0 <LL_TIM_Init>
  LL_TIM_EnableARRPreload(TIM3);
 80030d0:	4820      	ldr	r0, [pc, #128]	; (8003154 <MX_TIM3_Init+0xdc>)
 80030d2:	f7ff fed5 	bl	8002e80 <LL_TIM_EnableARRPreload>
  LL_TIM_SetClockSource(TIM3, LL_TIM_CLOCKSOURCE_INTERNAL);
 80030d6:	2100      	movs	r1, #0
 80030d8:	481e      	ldr	r0, [pc, #120]	; (8003154 <MX_TIM3_Init+0xdc>)
 80030da:	f7ff ff65 	bl	8002fa8 <LL_TIM_SetClockSource>
  LL_TIM_OC_EnablePreload(TIM3, LL_TIM_CHANNEL_CH4);
 80030de:	f44f 5180 	mov.w	r1, #4096	; 0x1000
 80030e2:	481c      	ldr	r0, [pc, #112]	; (8003154 <MX_TIM3_Init+0xdc>)
 80030e4:	f7ff ff1e 	bl	8002f24 <LL_TIM_OC_EnablePreload>
  TIM_OC_InitStruct.OCMode = LL_TIM_OCMODE_PWM1;
 80030e8:	2360      	movs	r3, #96	; 0x60
 80030ea:	61fb      	str	r3, [r7, #28]
  TIM_OC_InitStruct.OCState = LL_TIM_OCSTATE_DISABLE;
 80030ec:	2300      	movs	r3, #0
 80030ee:	623b      	str	r3, [r7, #32]
  TIM_OC_InitStruct.OCNState = LL_TIM_OCSTATE_DISABLE;
 80030f0:	2300      	movs	r3, #0
 80030f2:	627b      	str	r3, [r7, #36]	; 0x24
  TIM_OC_InitStruct.CompareValue = 10;
 80030f4:	230a      	movs	r3, #10
 80030f6:	62bb      	str	r3, [r7, #40]	; 0x28
  TIM_OC_InitStruct.OCPolarity = LL_TIM_OCPOLARITY_HIGH;
 80030f8:	2300      	movs	r3, #0
 80030fa:	62fb      	str	r3, [r7, #44]	; 0x2c
  LL_TIM_OC_Init(TIM3, LL_TIM_CHANNEL_CH4, &TIM_OC_InitStruct);
 80030fc:	f107 031c 	add.w	r3, r7, #28
 8003100:	461a      	mov	r2, r3
 8003102:	f44f 5180 	mov.w	r1, #4096	; 0x1000
 8003106:	4813      	ldr	r0, [pc, #76]	; (8003154 <MX_TIM3_Init+0xdc>)
 8003108:	f001 fc74 	bl	80049f4 <LL_TIM_OC_Init>
  LL_TIM_OC_DisableFast(TIM3, LL_TIM_CHANNEL_CH4);
 800310c:	f44f 5180 	mov.w	r1, #4096	; 0x1000
 8003110:	4810      	ldr	r0, [pc, #64]	; (8003154 <MX_TIM3_Init+0xdc>)
 8003112:	f7ff fec5 	bl	8002ea0 <LL_TIM_OC_DisableFast>
  LL_TIM_SetTriggerOutput(TIM3, LL_TIM_TRGO_RESET);
 8003116:	2100      	movs	r1, #0
 8003118:	480e      	ldr	r0, [pc, #56]	; (8003154 <MX_TIM3_Init+0xdc>)
 800311a:	f7ff ff5a 	bl	8002fd2 <LL_TIM_SetTriggerOutput>
  LL_TIM_DisableMasterSlaveMode(TIM3);
 800311e:	480d      	ldr	r0, [pc, #52]	; (8003154 <MX_TIM3_Init+0xdc>)
 8003120:	f7ff ff6a 	bl	8002ff8 <LL_TIM_DisableMasterSlaveMode>
  LL_AHB1_GRP1_EnableClock(LL_AHB1_GRP1_PERIPH_GPIOB);
 8003124:	2002      	movs	r0, #2
 8003126:	f7ff ff77 	bl	8003018 <LL_AHB1_GRP1_EnableClock>
    /**TIM3 GPIO Configuration    
    PB1     ------> TIM3_CH4 
    */
  GPIO_InitStruct.Pin = LL_GPIO_PIN_1;
 800312a:	2302      	movs	r3, #2
 800312c:	607b      	str	r3, [r7, #4]
  GPIO_InitStruct.Mode = LL_GPIO_MODE_ALTERNATE;
 800312e:	2302      	movs	r3, #2
 8003130:	60bb      	str	r3, [r7, #8]
  GPIO_InitStruct.Speed = LL_GPIO_SPEED_FREQ_LOW;
 8003132:	2300      	movs	r3, #0
 8003134:	60fb      	str	r3, [r7, #12]
  GPIO_InitStruct.OutputType = LL_GPIO_OUTPUT_PUSHPULL;
 8003136:	2300      	movs	r3, #0
 8003138:	613b      	str	r3, [r7, #16]
  GPIO_InitStruct.Pull = LL_GPIO_PULL_NO;
 800313a:	2300      	movs	r3, #0
 800313c:	617b      	str	r3, [r7, #20]
  GPIO_InitStruct.Alternate = LL_GPIO_AF_2;
 800313e:	2302      	movs	r3, #2
 8003140:	61bb      	str	r3, [r7, #24]
  LL_GPIO_Init(GPIOB, &GPIO_InitStruct);
 8003142:	1d3b      	adds	r3, r7, #4
 8003144:	4619      	mov	r1, r3
 8003146:	4804      	ldr	r0, [pc, #16]	; (8003158 <MX_TIM3_Init+0xe0>)
 8003148:	f001 f926 	bl	8004398 <LL_GPIO_Init>

}
 800314c:	bf00      	nop
 800314e:	3750      	adds	r7, #80	; 0x50
 8003150:	46bd      	mov	sp, r7
 8003152:	bd80      	pop	{r7, pc}
 8003154:	40000400 	.word	0x40000400
 8003158:	40020400 	.word	0x40020400

0800315c <__NVIC_GetPriorityGrouping>:
{
 800315c:	b480      	push	{r7}
 800315e:	af00      	add	r7, sp, #0
  return ((uint32_t)((SCB->AIRCR & SCB_AIRCR_PRIGROUP_Msk) >> SCB_AIRCR_PRIGROUP_Pos));
 8003160:	4b04      	ldr	r3, [pc, #16]	; (8003174 <__NVIC_GetPriorityGrouping+0x18>)
 8003162:	68db      	ldr	r3, [r3, #12]
 8003164:	0a1b      	lsrs	r3, r3, #8
 8003166:	f003 0307 	and.w	r3, r3, #7
}
 800316a:	4618      	mov	r0, r3
 800316c:	46bd      	mov	sp, r7
 800316e:	f85d 7b04 	ldr.w	r7, [sp], #4
 8003172:	4770      	bx	lr
 8003174:	e000ed00 	.word	0xe000ed00

08003178 <__NVIC_EnableIRQ>:
{
 8003178:	b480      	push	{r7}
 800317a:	b083      	sub	sp, #12
 800317c:	af00      	add	r7, sp, #0
 800317e:	4603      	mov	r3, r0
 8003180:	71fb      	strb	r3, [r7, #7]
  if ((int32_t)(IRQn) >= 0)
 8003182:	f997 3007 	ldrsb.w	r3, [r7, #7]
 8003186:	2b00      	cmp	r3, #0
 8003188:	db0b      	blt.n	80031a2 <__NVIC_EnableIRQ+0x2a>
    NVIC->ISER[(((uint32_t)IRQn) >> 5UL)] = (uint32_t)(1UL << (((uint32_t)IRQn) & 0x1FUL));
 800318a:	79fb      	ldrb	r3, [r7, #7]
 800318c:	f003 021f 	and.w	r2, r3, #31
 8003190:	4907      	ldr	r1, [pc, #28]	; (80031b0 <__NVIC_EnableIRQ+0x38>)
 8003192:	f997 3007 	ldrsb.w	r3, [r7, #7]
 8003196:	095b      	lsrs	r3, r3, #5
 8003198:	2001      	movs	r0, #1
 800319a:	fa00 f202 	lsl.w	r2, r0, r2
 800319e:	f841 2023 	str.w	r2, [r1, r3, lsl #2]
}
 80031a2:	bf00      	nop
 80031a4:	370c      	adds	r7, #12
 80031a6:	46bd      	mov	sp, r7
 80031a8:	f85d 7b04 	ldr.w	r7, [sp], #4
 80031ac:	4770      	bx	lr
 80031ae:	bf00      	nop
 80031b0:	e000e100 	.word	0xe000e100

080031b4 <__NVIC_SetPriority>:
{
 80031b4:	b480      	push	{r7}
 80031b6:	b083      	sub	sp, #12
 80031b8:	af00      	add	r7, sp, #0
 80031ba:	4603      	mov	r3, r0
 80031bc:	6039      	str	r1, [r7, #0]
 80031be:	71fb      	strb	r3, [r7, #7]
  if ((int32_t)(IRQn) >= 0)
 80031c0:	f997 3007 	ldrsb.w	r3, [r7, #7]
 80031c4:	2b00      	cmp	r3, #0
 80031c6:	db0a      	blt.n	80031de <__NVIC_SetPriority+0x2a>
    NVIC->IP[((uint32_t)IRQn)]               = (uint8_t)((priority << (8U - __NVIC_PRIO_BITS)) & (uint32_t)0xFFUL);
 80031c8:	683b      	ldr	r3, [r7, #0]
 80031ca:	b2da      	uxtb	r2, r3
 80031cc:	490c      	ldr	r1, [pc, #48]	; (8003200 <__NVIC_SetPriority+0x4c>)
 80031ce:	f997 3007 	ldrsb.w	r3, [r7, #7]
 80031d2:	0112      	lsls	r2, r2, #4
 80031d4:	b2d2      	uxtb	r2, r2
 80031d6:	440b      	add	r3, r1
 80031d8:	f883 2300 	strb.w	r2, [r3, #768]	; 0x300
}
 80031dc:	e00a      	b.n	80031f4 <__NVIC_SetPriority+0x40>
    SCB->SHP[(((uint32_t)IRQn) & 0xFUL)-4UL] = (uint8_t)((priority << (8U - __NVIC_PRIO_BITS)) & (uint32_t)0xFFUL);
 80031de:	683b      	ldr	r3, [r7, #0]
 80031e0:	b2da      	uxtb	r2, r3
 80031e2:	4908      	ldr	r1, [pc, #32]	; (8003204 <__NVIC_SetPriority+0x50>)
 80031e4:	79fb      	ldrb	r3, [r7, #7]
 80031e6:	f003 030f 	and.w	r3, r3, #15
 80031ea:	3b04      	subs	r3, #4
 80031ec:	0112      	lsls	r2, r2, #4
 80031ee:	b2d2      	uxtb	r2, r2
 80031f0:	440b      	add	r3, r1
 80031f2:	761a      	strb	r2, [r3, #24]
}
 80031f4:	bf00      	nop
 80031f6:	370c      	adds	r7, #12
 80031f8:	46bd      	mov	sp, r7
 80031fa:	f85d 7b04 	ldr.w	r7, [sp], #4
 80031fe:	4770      	bx	lr
 8003200:	e000e100 	.word	0xe000e100
 8003204:	e000ed00 	.word	0xe000ed00

08003208 <NVIC_EncodePriority>:
{
 8003208:	b480      	push	{r7}
 800320a:	b089      	sub	sp, #36	; 0x24
 800320c:	af00      	add	r7, sp, #0
 800320e:	60f8      	str	r0, [r7, #12]
 8003210:	60b9      	str	r1, [r7, #8]
 8003212:	607a      	str	r2, [r7, #4]
  uint32_t PriorityGroupTmp = (PriorityGroup & (uint32_t)0x07UL);   /* only values 0..7 are used          */
 8003214:	68fb      	ldr	r3, [r7, #12]
 8003216:	f003 0307 	and.w	r3, r3, #7
 800321a:	61fb      	str	r3, [r7, #28]
  PreemptPriorityBits = ((7UL - PriorityGroupTmp) > (uint32_t)(__NVIC_PRIO_BITS)) ? (uint32_t)(__NVIC_PRIO_BITS) : (uint32_t)(7UL - PriorityGroupTmp);
 800321c:	69fb      	ldr	r3, [r7, #28]
 800321e:	f1c3 0307 	rsb	r3, r3, #7
 8003222:	2b04      	cmp	r3, #4
 8003224:	bf28      	it	cs
 8003226:	2304      	movcs	r3, #4
 8003228:	61bb      	str	r3, [r7, #24]
  SubPriorityBits     = ((PriorityGroupTmp + (uint32_t)(__NVIC_PRIO_BITS)) < (uint32_t)7UL) ? (uint32_t)0UL : (uint32_t)((PriorityGroupTmp - 7UL) + (uint32_t)(__NVIC_PRIO_BITS));
 800322a:	69fb      	ldr	r3, [r7, #28]
 800322c:	3304      	adds	r3, #4
 800322e:	2b06      	cmp	r3, #6
 8003230:	d902      	bls.n	8003238 <NVIC_EncodePriority+0x30>
 8003232:	69fb      	ldr	r3, [r7, #28]
 8003234:	3b03      	subs	r3, #3
 8003236:	e000      	b.n	800323a <NVIC_EncodePriority+0x32>
 8003238:	2300      	movs	r3, #0
 800323a:	617b      	str	r3, [r7, #20]
           ((PreemptPriority & (uint32_t)((1UL << (PreemptPriorityBits)) - 1UL)) << SubPriorityBits) |
 800323c:	f04f 32ff 	mov.w	r2, #4294967295
 8003240:	69bb      	ldr	r3, [r7, #24]
 8003242:	fa02 f303 	lsl.w	r3, r2, r3
 8003246:	43da      	mvns	r2, r3
 8003248:	68bb      	ldr	r3, [r7, #8]
 800324a:	401a      	ands	r2, r3
 800324c:	697b      	ldr	r3, [r7, #20]
 800324e:	409a      	lsls	r2, r3
           ((SubPriority     & (uint32_t)((1UL << (SubPriorityBits    )) - 1UL)))
 8003250:	f04f 31ff 	mov.w	r1, #4294967295
 8003254:	697b      	ldr	r3, [r7, #20]
 8003256:	fa01 f303 	lsl.w	r3, r1, r3
 800325a:	43d9      	mvns	r1, r3
 800325c:	687b      	ldr	r3, [r7, #4]
 800325e:	400b      	ands	r3, r1
           ((PreemptPriority & (uint32_t)((1UL << (PreemptPriorityBits)) - 1UL)) << SubPriorityBits) |
 8003260:	4313      	orrs	r3, r2
}
 8003262:	4618      	mov	r0, r3
 8003264:	3724      	adds	r7, #36	; 0x24
 8003266:	46bd      	mov	sp, r7
 8003268:	f85d 7b04 	ldr.w	r7, [sp], #4
 800326c:	4770      	bx	lr

0800326e <LL_USART_Enable>:
{
 800326e:	b480      	push	{r7}
 8003270:	b083      	sub	sp, #12
 8003272:	af00      	add	r7, sp, #0
 8003274:	6078      	str	r0, [r7, #4]
  SET_BIT(USARTx->CR1, USART_CR1_UE);
 8003276:	687b      	ldr	r3, [r7, #4]
 8003278:	68db      	ldr	r3, [r3, #12]
 800327a:	f443 5200 	orr.w	r2, r3, #8192	; 0x2000
 800327e:	687b      	ldr	r3, [r7, #4]
 8003280:	60da      	str	r2, [r3, #12]
}
 8003282:	bf00      	nop
 8003284:	370c      	adds	r7, #12
 8003286:	46bd      	mov	sp, r7
 8003288:	f85d 7b04 	ldr.w	r7, [sp], #4
 800328c:	4770      	bx	lr

0800328e <LL_USART_ConfigAsyncMode>:
{
 800328e:	b480      	push	{r7}
 8003290:	b083      	sub	sp, #12
 8003292:	af00      	add	r7, sp, #0
 8003294:	6078      	str	r0, [r7, #4]
  CLEAR_BIT(USARTx->CR2, (USART_CR2_LINEN | USART_CR2_CLKEN));
 8003296:	687b      	ldr	r3, [r7, #4]
 8003298:	691b      	ldr	r3, [r3, #16]
 800329a:	f423 4290 	bic.w	r2, r3, #18432	; 0x4800
 800329e:	687b      	ldr	r3, [r7, #4]
 80032a0:	611a      	str	r2, [r3, #16]
  CLEAR_BIT(USARTx->CR3, (USART_CR3_SCEN | USART_CR3_IREN | USART_CR3_HDSEL));
 80032a2:	687b      	ldr	r3, [r7, #4]
 80032a4:	695b      	ldr	r3, [r3, #20]
 80032a6:	f023 022a 	bic.w	r2, r3, #42	; 0x2a
 80032aa:	687b      	ldr	r3, [r7, #4]
 80032ac:	615a      	str	r2, [r3, #20]
}
 80032ae:	bf00      	nop
 80032b0:	370c      	adds	r7, #12
 80032b2:	46bd      	mov	sp, r7
 80032b4:	f85d 7b04 	ldr.w	r7, [sp], #4
 80032b8:	4770      	bx	lr
	...

080032bc <LL_AHB1_GRP1_EnableClock>:
{
 80032bc:	b480      	push	{r7}
 80032be:	b085      	sub	sp, #20
 80032c0:	af00      	add	r7, sp, #0
 80032c2:	6078      	str	r0, [r7, #4]
  SET_BIT(RCC->AHB1ENR, Periphs);
 80032c4:	4b08      	ldr	r3, [pc, #32]	; (80032e8 <LL_AHB1_GRP1_EnableClock+0x2c>)
 80032c6:	6b1a      	ldr	r2, [r3, #48]	; 0x30
 80032c8:	4907      	ldr	r1, [pc, #28]	; (80032e8 <LL_AHB1_GRP1_EnableClock+0x2c>)
 80032ca:	687b      	ldr	r3, [r7, #4]
 80032cc:	4313      	orrs	r3, r2
 80032ce:	630b      	str	r3, [r1, #48]	; 0x30
  tmpreg = READ_BIT(RCC->AHB1ENR, Periphs);
 80032d0:	4b05      	ldr	r3, [pc, #20]	; (80032e8 <LL_AHB1_GRP1_EnableClock+0x2c>)
 80032d2:	6b1a      	ldr	r2, [r3, #48]	; 0x30
 80032d4:	687b      	ldr	r3, [r7, #4]
 80032d6:	4013      	ands	r3, r2
 80032d8:	60fb      	str	r3, [r7, #12]
  (void)tmpreg;
 80032da:	68fb      	ldr	r3, [r7, #12]
}
 80032dc:	bf00      	nop
 80032de:	3714      	adds	r7, #20
 80032e0:	46bd      	mov	sp, r7
 80032e2:	f85d 7b04 	ldr.w	r7, [sp], #4
 80032e6:	4770      	bx	lr
 80032e8:	40023800 	.word	0x40023800

080032ec <LL_APB1_GRP1_EnableClock>:
{
 80032ec:	b480      	push	{r7}
 80032ee:	b085      	sub	sp, #20
 80032f0:	af00      	add	r7, sp, #0
 80032f2:	6078      	str	r0, [r7, #4]
  SET_BIT(RCC->APB1ENR, Periphs);
 80032f4:	4b08      	ldr	r3, [pc, #32]	; (8003318 <LL_APB1_GRP1_EnableClock+0x2c>)
 80032f6:	6c1a      	ldr	r2, [r3, #64]	; 0x40
 80032f8:	4907      	ldr	r1, [pc, #28]	; (8003318 <LL_APB1_GRP1_EnableClock+0x2c>)
 80032fa:	687b      	ldr	r3, [r7, #4]
 80032fc:	4313      	orrs	r3, r2
 80032fe:	640b      	str	r3, [r1, #64]	; 0x40
  tmpreg = READ_BIT(RCC->APB1ENR, Periphs);
 8003300:	4b05      	ldr	r3, [pc, #20]	; (8003318 <LL_APB1_GRP1_EnableClock+0x2c>)
 8003302:	6c1a      	ldr	r2, [r3, #64]	; 0x40
 8003304:	687b      	ldr	r3, [r7, #4]
 8003306:	4013      	ands	r3, r2
 8003308:	60fb      	str	r3, [r7, #12]
  (void)tmpreg;
 800330a:	68fb      	ldr	r3, [r7, #12]
}
 800330c:	bf00      	nop
 800330e:	3714      	adds	r7, #20
 8003310:	46bd      	mov	sp, r7
 8003312:	f85d 7b04 	ldr.w	r7, [sp], #4
 8003316:	4770      	bx	lr
 8003318:	40023800 	.word	0x40023800

0800331c <LL_APB2_GRP1_EnableClock>:
{
 800331c:	b480      	push	{r7}
 800331e:	b085      	sub	sp, #20
 8003320:	af00      	add	r7, sp, #0
 8003322:	6078      	str	r0, [r7, #4]
  SET_BIT(RCC->APB2ENR, Periphs);
 8003324:	4b08      	ldr	r3, [pc, #32]	; (8003348 <LL_APB2_GRP1_EnableClock+0x2c>)
 8003326:	6c5a      	ldr	r2, [r3, #68]	; 0x44
 8003328:	4907      	ldr	r1, [pc, #28]	; (8003348 <LL_APB2_GRP1_EnableClock+0x2c>)
 800332a:	687b      	ldr	r3, [r7, #4]
 800332c:	4313      	orrs	r3, r2
 800332e:	644b      	str	r3, [r1, #68]	; 0x44
  tmpreg = READ_BIT(RCC->APB2ENR, Periphs);
 8003330:	4b05      	ldr	r3, [pc, #20]	; (8003348 <LL_APB2_GRP1_EnableClock+0x2c>)
 8003332:	6c5a      	ldr	r2, [r3, #68]	; 0x44
 8003334:	687b      	ldr	r3, [r7, #4]
 8003336:	4013      	ands	r3, r2
 8003338:	60fb      	str	r3, [r7, #12]
  (void)tmpreg;
 800333a:	68fb      	ldr	r3, [r7, #12]
}
 800333c:	bf00      	nop
 800333e:	3714      	adds	r7, #20
 8003340:	46bd      	mov	sp, r7
 8003342:	f85d 7b04 	ldr.w	r7, [sp], #4
 8003346:	4770      	bx	lr
 8003348:	40023800 	.word	0x40023800

0800334c <MX_UART4_Init>:

/* USER CODE END 0 */

/* UART4 init function */
void MX_UART4_Init(void)
{
 800334c:	b580      	push	{r7, lr}
 800334e:	b08e      	sub	sp, #56	; 0x38
 8003350:	af00      	add	r7, sp, #0
  LL_USART_InitTypeDef USART_InitStruct = {0};
 8003352:	f107 031c 	add.w	r3, r7, #28
 8003356:	2200      	movs	r2, #0
 8003358:	601a      	str	r2, [r3, #0]
 800335a:	605a      	str	r2, [r3, #4]
 800335c:	609a      	str	r2, [r3, #8]
 800335e:	60da      	str	r2, [r3, #12]
 8003360:	611a      	str	r2, [r3, #16]
 8003362:	615a      	str	r2, [r3, #20]
 8003364:	619a      	str	r2, [r3, #24]

  LL_GPIO_InitTypeDef GPIO_InitStruct = {0};
 8003366:	1d3b      	adds	r3, r7, #4
 8003368:	2200      	movs	r2, #0
 800336a:	601a      	str	r2, [r3, #0]
 800336c:	605a      	str	r2, [r3, #4]
 800336e:	609a      	str	r2, [r3, #8]
 8003370:	60da      	str	r2, [r3, #12]
 8003372:	611a      	str	r2, [r3, #16]
 8003374:	615a      	str	r2, [r3, #20]

  /* Peripheral clock enable */
  LL_APB1_GRP1_EnableClock(LL_APB1_GRP1_PERIPH_UART4);
 8003376:	f44f 2000 	mov.w	r0, #524288	; 0x80000
 800337a:	f7ff ffb7 	bl	80032ec <LL_APB1_GRP1_EnableClock>
  
  LL_AHB1_GRP1_EnableClock(LL_AHB1_GRP1_PERIPH_GPIOC);
 800337e:	2004      	movs	r0, #4
 8003380:	f7ff ff9c 	bl	80032bc <LL_AHB1_GRP1_EnableClock>
  /**UART4 GPIO Configuration  
  PC10   ------> UART4_TX
  PC11   ------> UART4_RX 
  */
  GPIO_InitStruct.Pin = MBN_TX4_Pin|MBN_RX4_Pin;
 8003384:	f44f 6340 	mov.w	r3, #3072	; 0xc00
 8003388:	607b      	str	r3, [r7, #4]
  GPIO_InitStruct.Mode = LL_GPIO_MODE_ALTERNATE;
 800338a:	2302      	movs	r3, #2
 800338c:	60bb      	str	r3, [r7, #8]
  GPIO_InitStruct.Speed = LL_GPIO_SPEED_FREQ_VERY_HIGH;
 800338e:	2303      	movs	r3, #3
 8003390:	60fb      	str	r3, [r7, #12]
  GPIO_InitStruct.OutputType = LL_GPIO_OUTPUT_PUSHPULL;
 8003392:	2300      	movs	r3, #0
 8003394:	613b      	str	r3, [r7, #16]
  GPIO_InitStruct.Pull = LL_GPIO_PULL_UP;
 8003396:	2301      	movs	r3, #1
 8003398:	617b      	str	r3, [r7, #20]
  GPIO_InitStruct.Alternate = LL_GPIO_AF_8;
 800339a:	2308      	movs	r3, #8
 800339c:	61bb      	str	r3, [r7, #24]
  LL_GPIO_Init(GPIOC, &GPIO_InitStruct);
 800339e:	1d3b      	adds	r3, r7, #4
 80033a0:	4619      	mov	r1, r3
 80033a2:	4819      	ldr	r0, [pc, #100]	; (8003408 <MX_UART4_Init+0xbc>)
 80033a4:	f000 fff8 	bl	8004398 <LL_GPIO_Init>

  /* UART4 interrupt Init */
  NVIC_SetPriority(UART4_IRQn, NVIC_EncodePriority(NVIC_GetPriorityGrouping(),0, 0));
 80033a8:	f7ff fed8 	bl	800315c <__NVIC_GetPriorityGrouping>
 80033ac:	4603      	mov	r3, r0
 80033ae:	2200      	movs	r2, #0
 80033b0:	2100      	movs	r1, #0
 80033b2:	4618      	mov	r0, r3
 80033b4:	f7ff ff28 	bl	8003208 <NVIC_EncodePriority>
 80033b8:	4603      	mov	r3, r0
 80033ba:	4619      	mov	r1, r3
 80033bc:	2034      	movs	r0, #52	; 0x34
 80033be:	f7ff fef9 	bl	80031b4 <__NVIC_SetPriority>
  NVIC_EnableIRQ(UART4_IRQn);
 80033c2:	2034      	movs	r0, #52	; 0x34
 80033c4:	f7ff fed8 	bl	8003178 <__NVIC_EnableIRQ>

  USART_InitStruct.BaudRate = 9600;
 80033c8:	f44f 5316 	mov.w	r3, #9600	; 0x2580
 80033cc:	61fb      	str	r3, [r7, #28]
  USART_InitStruct.DataWidth = LL_USART_DATAWIDTH_8B;
 80033ce:	2300      	movs	r3, #0
 80033d0:	623b      	str	r3, [r7, #32]
  USART_InitStruct.StopBits = LL_USART_STOPBITS_1;
 80033d2:	2300      	movs	r3, #0
 80033d4:	627b      	str	r3, [r7, #36]	; 0x24
  USART_InitStruct.Parity = LL_USART_PARITY_NONE;
 80033d6:	2300      	movs	r3, #0
 80033d8:	62bb      	str	r3, [r7, #40]	; 0x28
  USART_InitStruct.TransferDirection = LL_USART_DIRECTION_TX_RX;
 80033da:	230c      	movs	r3, #12
 80033dc:	62fb      	str	r3, [r7, #44]	; 0x2c
  USART_InitStruct.HardwareFlowControl = LL_USART_HWCONTROL_NONE;
 80033de:	2300      	movs	r3, #0
 80033e0:	633b      	str	r3, [r7, #48]	; 0x30
  USART_InitStruct.OverSampling = LL_USART_OVERSAMPLING_16;
 80033e2:	2300      	movs	r3, #0
 80033e4:	637b      	str	r3, [r7, #52]	; 0x34
  LL_USART_Init(UART4, &USART_InitStruct);
 80033e6:	f107 031c 	add.w	r3, r7, #28
 80033ea:	4619      	mov	r1, r3
 80033ec:	4807      	ldr	r0, [pc, #28]	; (800340c <MX_UART4_Init+0xc0>)
 80033ee:	f001 febf 	bl	8005170 <LL_USART_Init>
  LL_USART_ConfigAsyncMode(UART4);
 80033f2:	4806      	ldr	r0, [pc, #24]	; (800340c <MX_UART4_Init+0xc0>)
 80033f4:	f7ff ff4b 	bl	800328e <LL_USART_ConfigAsyncMode>
  LL_USART_Enable(UART4);
 80033f8:	4804      	ldr	r0, [pc, #16]	; (800340c <MX_UART4_Init+0xc0>)
 80033fa:	f7ff ff38 	bl	800326e <LL_USART_Enable>

}
 80033fe:	bf00      	nop
 8003400:	3738      	adds	r7, #56	; 0x38
 8003402:	46bd      	mov	sp, r7
 8003404:	bd80      	pop	{r7, pc}
 8003406:	bf00      	nop
 8003408:	40020800 	.word	0x40020800
 800340c:	40004c00 	.word	0x40004c00

08003410 <MX_UART5_Init>:
/* UART5 init function */
void MX_UART5_Init(void)
{
 8003410:	b580      	push	{r7, lr}
 8003412:	b08e      	sub	sp, #56	; 0x38
 8003414:	af00      	add	r7, sp, #0
  LL_USART_InitTypeDef USART_InitStruct = {0};
 8003416:	f107 031c 	add.w	r3, r7, #28
 800341a:	2200      	movs	r2, #0
 800341c:	601a      	str	r2, [r3, #0]
 800341e:	605a      	str	r2, [r3, #4]
 8003420:	609a      	str	r2, [r3, #8]
 8003422:	60da      	str	r2, [r3, #12]
 8003424:	611a      	str	r2, [r3, #16]
 8003426:	615a      	str	r2, [r3, #20]
 8003428:	619a      	str	r2, [r3, #24]

  LL_GPIO_InitTypeDef GPIO_InitStruct = {0};
 800342a:	1d3b      	adds	r3, r7, #4
 800342c:	2200      	movs	r2, #0
 800342e:	601a      	str	r2, [r3, #0]
 8003430:	605a      	str	r2, [r3, #4]
 8003432:	609a      	str	r2, [r3, #8]
 8003434:	60da      	str	r2, [r3, #12]
 8003436:	611a      	str	r2, [r3, #16]
 8003438:	615a      	str	r2, [r3, #20]

  /* Peripheral clock enable */
  LL_APB1_GRP1_EnableClock(LL_APB1_GRP1_PERIPH_UART5);
 800343a:	f44f 1080 	mov.w	r0, #1048576	; 0x100000
 800343e:	f7ff ff55 	bl	80032ec <LL_APB1_GRP1_EnableClock>
  
  LL_AHB1_GRP1_EnableClock(LL_AHB1_GRP1_PERIPH_GPIOC);
 8003442:	2004      	movs	r0, #4
 8003444:	f7ff ff3a 	bl	80032bc <LL_AHB1_GRP1_EnableClock>
  LL_AHB1_GRP1_EnableClock(LL_AHB1_GRP1_PERIPH_GPIOD);
 8003448:	2008      	movs	r0, #8
 800344a:	f7ff ff37 	bl	80032bc <LL_AHB1_GRP1_EnableClock>
  /**UART5 GPIO Configuration  
  PC12   ------> UART5_TX
  PD2   ------> UART5_RX 
  */
  GPIO_InitStruct.Pin = LL_GPIO_PIN_12;
 800344e:	f44f 5380 	mov.w	r3, #4096	; 0x1000
 8003452:	607b      	str	r3, [r7, #4]
  GPIO_InitStruct.Mode = LL_GPIO_MODE_ALTERNATE;
 8003454:	2302      	movs	r3, #2
 8003456:	60bb      	str	r3, [r7, #8]
  GPIO_InitStruct.Speed = LL_GPIO_SPEED_FREQ_VERY_HIGH;
 8003458:	2303      	movs	r3, #3
 800345a:	60fb      	str	r3, [r7, #12]
  GPIO_InitStruct.OutputType = LL_GPIO_OUTPUT_PUSHPULL;
 800345c:	2300      	movs	r3, #0
 800345e:	613b      	str	r3, [r7, #16]
  GPIO_InitStruct.Pull = LL_GPIO_PULL_UP;
 8003460:	2301      	movs	r3, #1
 8003462:	617b      	str	r3, [r7, #20]
  GPIO_InitStruct.Alternate = LL_GPIO_AF_8;
 8003464:	2308      	movs	r3, #8
 8003466:	61bb      	str	r3, [r7, #24]
  LL_GPIO_Init(GPIOC, &GPIO_InitStruct);
 8003468:	1d3b      	adds	r3, r7, #4
 800346a:	4619      	mov	r1, r3
 800346c:	4821      	ldr	r0, [pc, #132]	; (80034f4 <MX_UART5_Init+0xe4>)
 800346e:	f000 ff93 	bl	8004398 <LL_GPIO_Init>

  GPIO_InitStruct.Pin = LL_GPIO_PIN_2;
 8003472:	2304      	movs	r3, #4
 8003474:	607b      	str	r3, [r7, #4]
  GPIO_InitStruct.Mode = LL_GPIO_MODE_ALTERNATE;
 8003476:	2302      	movs	r3, #2
 8003478:	60bb      	str	r3, [r7, #8]
  GPIO_InitStruct.Speed = LL_GPIO_SPEED_FREQ_VERY_HIGH;
 800347a:	2303      	movs	r3, #3
 800347c:	60fb      	str	r3, [r7, #12]
  GPIO_InitStruct.OutputType = LL_GPIO_OUTPUT_PUSHPULL;
 800347e:	2300      	movs	r3, #0
 8003480:	613b      	str	r3, [r7, #16]
  GPIO_InitStruct.Pull = LL_GPIO_PULL_UP;
 8003482:	2301      	movs	r3, #1
 8003484:	617b      	str	r3, [r7, #20]
  GPIO_InitStruct.Alternate = LL_GPIO_AF_8;
 8003486:	2308      	movs	r3, #8
 8003488:	61bb      	str	r3, [r7, #24]
  LL_GPIO_Init(GPIOD, &GPIO_InitStruct);
 800348a:	1d3b      	adds	r3, r7, #4
 800348c:	4619      	mov	r1, r3
 800348e:	481a      	ldr	r0, [pc, #104]	; (80034f8 <MX_UART5_Init+0xe8>)
 8003490:	f000 ff82 	bl	8004398 <LL_GPIO_Init>

  /* UART5 interrupt Init */
  NVIC_SetPriority(UART5_IRQn, NVIC_EncodePriority(NVIC_GetPriorityGrouping(),0, 0));
 8003494:	f7ff fe62 	bl	800315c <__NVIC_GetPriorityGrouping>
 8003498:	4603      	mov	r3, r0
 800349a:	2200      	movs	r2, #0
 800349c:	2100      	movs	r1, #0
 800349e:	4618      	mov	r0, r3
 80034a0:	f7ff feb2 	bl	8003208 <NVIC_EncodePriority>
 80034a4:	4603      	mov	r3, r0
 80034a6:	4619      	mov	r1, r3
 80034a8:	2035      	movs	r0, #53	; 0x35
 80034aa:	f7ff fe83 	bl	80031b4 <__NVIC_SetPriority>
  NVIC_EnableIRQ(UART5_IRQn);
 80034ae:	2035      	movs	r0, #53	; 0x35
 80034b0:	f7ff fe62 	bl	8003178 <__NVIC_EnableIRQ>

  USART_InitStruct.BaudRate = 115200;
 80034b4:	f44f 33e1 	mov.w	r3, #115200	; 0x1c200
 80034b8:	61fb      	str	r3, [r7, #28]
  USART_InitStruct.DataWidth = LL_USART_DATAWIDTH_8B;
 80034ba:	2300      	movs	r3, #0
 80034bc:	623b      	str	r3, [r7, #32]
  USART_InitStruct.StopBits = LL_USART_STOPBITS_1;
 80034be:	2300      	movs	r3, #0
 80034c0:	627b      	str	r3, [r7, #36]	; 0x24
  USART_InitStruct.Parity = LL_USART_PARITY_NONE;
 80034c2:	2300      	movs	r3, #0
 80034c4:	62bb      	str	r3, [r7, #40]	; 0x28
  USART_InitStruct.TransferDirection = LL_USART_DIRECTION_RX;
 80034c6:	2304      	movs	r3, #4
 80034c8:	62fb      	str	r3, [r7, #44]	; 0x2c
  USART_InitStruct.HardwareFlowControl = LL_USART_HWCONTROL_NONE;
 80034ca:	2300      	movs	r3, #0
 80034cc:	633b      	str	r3, [r7, #48]	; 0x30
  USART_InitStruct.OverSampling = LL_USART_OVERSAMPLING_16;
 80034ce:	2300      	movs	r3, #0
 80034d0:	637b      	str	r3, [r7, #52]	; 0x34
  LL_USART_Init(UART5, &USART_InitStruct);
 80034d2:	f107 031c 	add.w	r3, r7, #28
 80034d6:	4619      	mov	r1, r3
 80034d8:	4808      	ldr	r0, [pc, #32]	; (80034fc <MX_UART5_Init+0xec>)
 80034da:	f001 fe49 	bl	8005170 <LL_USART_Init>
  LL_USART_ConfigAsyncMode(UART5);
 80034de:	4807      	ldr	r0, [pc, #28]	; (80034fc <MX_UART5_Init+0xec>)
 80034e0:	f7ff fed5 	bl	800328e <LL_USART_ConfigAsyncMode>
  LL_USART_Enable(UART5);
 80034e4:	4805      	ldr	r0, [pc, #20]	; (80034fc <MX_UART5_Init+0xec>)
 80034e6:	f7ff fec2 	bl	800326e <LL_USART_Enable>

}
 80034ea:	bf00      	nop
 80034ec:	3738      	adds	r7, #56	; 0x38
 80034ee:	46bd      	mov	sp, r7
 80034f0:	bd80      	pop	{r7, pc}
 80034f2:	bf00      	nop
 80034f4:	40020800 	.word	0x40020800
 80034f8:	40020c00 	.word	0x40020c00
 80034fc:	40005000 	.word	0x40005000

08003500 <MX_USART6_UART_Init>:
/* USART6 init function */

void MX_USART6_UART_Init(void)
{
 8003500:	b580      	push	{r7, lr}
 8003502:	b08e      	sub	sp, #56	; 0x38
 8003504:	af00      	add	r7, sp, #0
  LL_USART_InitTypeDef USART_InitStruct = {0};
 8003506:	f107 031c 	add.w	r3, r7, #28
 800350a:	2200      	movs	r2, #0
 800350c:	601a      	str	r2, [r3, #0]
 800350e:	605a      	str	r2, [r3, #4]
 8003510:	609a      	str	r2, [r3, #8]
 8003512:	60da      	str	r2, [r3, #12]
 8003514:	611a      	str	r2, [r3, #16]
 8003516:	615a      	str	r2, [r3, #20]
 8003518:	619a      	str	r2, [r3, #24]

  LL_GPIO_InitTypeDef GPIO_InitStruct = {0};
 800351a:	1d3b      	adds	r3, r7, #4
 800351c:	2200      	movs	r2, #0
 800351e:	601a      	str	r2, [r3, #0]
 8003520:	605a      	str	r2, [r3, #4]
 8003522:	609a      	str	r2, [r3, #8]
 8003524:	60da      	str	r2, [r3, #12]
 8003526:	611a      	str	r2, [r3, #16]
 8003528:	615a      	str	r2, [r3, #20]

  /* Peripheral clock enable */
  LL_APB2_GRP1_EnableClock(LL_APB2_GRP1_PERIPH_USART6);
 800352a:	2020      	movs	r0, #32
 800352c:	f7ff fef6 	bl	800331c <LL_APB2_GRP1_EnableClock>
  
  LL_AHB1_GRP1_EnableClock(LL_AHB1_GRP1_PERIPH_GPIOC);
 8003530:	2004      	movs	r0, #4
 8003532:	f7ff fec3 	bl	80032bc <LL_AHB1_GRP1_EnableClock>
  /**USART6 GPIO Configuration  
  PC6   ------> USART6_TX
  PC7   ------> USART6_RX 
  */
  GPIO_InitStruct.Pin = LL_GPIO_PIN_6|LL_GPIO_PIN_7;
 8003536:	23c0      	movs	r3, #192	; 0xc0
 8003538:	607b      	str	r3, [r7, #4]
  GPIO_InitStruct.Mode = LL_GPIO_MODE_ALTERNATE;
 800353a:	2302      	movs	r3, #2
 800353c:	60bb      	str	r3, [r7, #8]
  GPIO_InitStruct.Speed = LL_GPIO_SPEED_FREQ_VERY_HIGH;
 800353e:	2303      	movs	r3, #3
 8003540:	60fb      	str	r3, [r7, #12]
  GPIO_InitStruct.OutputType = LL_GPIO_OUTPUT_PUSHPULL;
 8003542:	2300      	movs	r3, #0
 8003544:	613b      	str	r3, [r7, #16]
  GPIO_InitStruct.Pull = LL_GPIO_PULL_UP;
 8003546:	2301      	movs	r3, #1
 8003548:	617b      	str	r3, [r7, #20]
  GPIO_InitStruct.Alternate = LL_GPIO_AF_8;
 800354a:	2308      	movs	r3, #8
 800354c:	61bb      	str	r3, [r7, #24]
  LL_GPIO_Init(GPIOC, &GPIO_InitStruct);
 800354e:	1d3b      	adds	r3, r7, #4
 8003550:	4619      	mov	r1, r3
 8003552:	4819      	ldr	r0, [pc, #100]	; (80035b8 <MX_USART6_UART_Init+0xb8>)
 8003554:	f000 ff20 	bl	8004398 <LL_GPIO_Init>

  /* USART6 interrupt Init */
  NVIC_SetPriority(USART6_IRQn, NVIC_EncodePriority(NVIC_GetPriorityGrouping(),0, 0));
 8003558:	f7ff fe00 	bl	800315c <__NVIC_GetPriorityGrouping>
 800355c:	4603      	mov	r3, r0
 800355e:	2200      	movs	r2, #0
 8003560:	2100      	movs	r1, #0
 8003562:	4618      	mov	r0, r3
 8003564:	f7ff fe50 	bl	8003208 <NVIC_EncodePriority>
 8003568:	4603      	mov	r3, r0
 800356a:	4619      	mov	r1, r3
 800356c:	2047      	movs	r0, #71	; 0x47
 800356e:	f7ff fe21 	bl	80031b4 <__NVIC_SetPriority>
  NVIC_EnableIRQ(USART6_IRQn);
 8003572:	2047      	movs	r0, #71	; 0x47
 8003574:	f7ff fe00 	bl	8003178 <__NVIC_EnableIRQ>

  USART_InitStruct.BaudRate = 115200;
 8003578:	f44f 33e1 	mov.w	r3, #115200	; 0x1c200
 800357c:	61fb      	str	r3, [r7, #28]
  USART_InitStruct.DataWidth = LL_USART_DATAWIDTH_8B;
 800357e:	2300      	movs	r3, #0
 8003580:	623b      	str	r3, [r7, #32]
  USART_InitStruct.StopBits = LL_USART_STOPBITS_1;
 8003582:	2300      	movs	r3, #0
 8003584:	627b      	str	r3, [r7, #36]	; 0x24
  USART_InitStruct.Parity = LL_USART_PARITY_NONE;
 8003586:	2300      	movs	r3, #0
 8003588:	62bb      	str	r3, [r7, #40]	; 0x28
  USART_InitStruct.TransferDirection = LL_USART_DIRECTION_TX_RX;
 800358a:	230c      	movs	r3, #12
 800358c:	62fb      	str	r3, [r7, #44]	; 0x2c
  USART_InitStruct.HardwareFlowControl = LL_USART_HWCONTROL_NONE;
 800358e:	2300      	movs	r3, #0
 8003590:	633b      	str	r3, [r7, #48]	; 0x30
  USART_InitStruct.OverSampling = LL_USART_OVERSAMPLING_16;
 8003592:	2300      	movs	r3, #0
 8003594:	637b      	str	r3, [r7, #52]	; 0x34
  LL_USART_Init(USART6, &USART_InitStruct);
 8003596:	f107 031c 	add.w	r3, r7, #28
 800359a:	4619      	mov	r1, r3
 800359c:	4807      	ldr	r0, [pc, #28]	; (80035bc <MX_USART6_UART_Init+0xbc>)
 800359e:	f001 fde7 	bl	8005170 <LL_USART_Init>
  LL_USART_ConfigAsyncMode(USART6);
 80035a2:	4806      	ldr	r0, [pc, #24]	; (80035bc <MX_USART6_UART_Init+0xbc>)
 80035a4:	f7ff fe73 	bl	800328e <LL_USART_ConfigAsyncMode>
  LL_USART_Enable(USART6);
 80035a8:	4804      	ldr	r0, [pc, #16]	; (80035bc <MX_USART6_UART_Init+0xbc>)
 80035aa:	f7ff fe60 	bl	800326e <LL_USART_Enable>

}
 80035ae:	bf00      	nop
 80035b0:	3738      	adds	r7, #56	; 0x38
 80035b2:	46bd      	mov	sp, r7
 80035b4:	bd80      	pop	{r7, pc}
 80035b6:	bf00      	nop
 80035b8:	40020800 	.word	0x40020800
 80035bc:	40011400 	.word	0x40011400

080035c0 <Reset_Handler>:

    .section  .text.Reset_Handler
  .weak  Reset_Handler
  .type  Reset_Handler, %function
Reset_Handler:  
  ldr   sp, =_estack     /* set stack pointer */
 80035c0:	f8df d034 	ldr.w	sp, [pc, #52]	; 80035f8 <LoopFillZerobss+0x14>

/* Copy the data segment initializers from flash to SRAM */  
  movs  r1, #0
 80035c4:	2100      	movs	r1, #0
  b  LoopCopyDataInit
 80035c6:	e003      	b.n	80035d0 <LoopCopyDataInit>

080035c8 <CopyDataInit>:

CopyDataInit:
  ldr  r3, =_sidata
 80035c8:	4b0c      	ldr	r3, [pc, #48]	; (80035fc <LoopFillZerobss+0x18>)
  ldr  r3, [r3, r1]
 80035ca:	585b      	ldr	r3, [r3, r1]
  str  r3, [r0, r1]
 80035cc:	5043      	str	r3, [r0, r1]
  adds  r1, r1, #4
 80035ce:	3104      	adds	r1, #4

080035d0 <LoopCopyDataInit>:
    
LoopCopyDataInit:
  ldr  r0, =_sdata
 80035d0:	480b      	ldr	r0, [pc, #44]	; (8003600 <LoopFillZerobss+0x1c>)
  ldr  r3, =_edata
 80035d2:	4b0c      	ldr	r3, [pc, #48]	; (8003604 <LoopFillZerobss+0x20>)
  adds  r2, r0, r1
 80035d4:	1842      	adds	r2, r0, r1
  cmp  r2, r3
 80035d6:	429a      	cmp	r2, r3
  bcc  CopyDataInit
 80035d8:	d3f6      	bcc.n	80035c8 <CopyDataInit>
  ldr  r2, =_sbss
 80035da:	4a0b      	ldr	r2, [pc, #44]	; (8003608 <LoopFillZerobss+0x24>)
  b  LoopFillZerobss
 80035dc:	e002      	b.n	80035e4 <LoopFillZerobss>

080035de <FillZerobss>:
/* Zero fill the bss segment. */  
FillZerobss:
  movs  r3, #0
 80035de:	2300      	movs	r3, #0
  str  r3, [r2], #4
 80035e0:	f842 3b04 	str.w	r3, [r2], #4

080035e4 <LoopFillZerobss>:
    
LoopFillZerobss:
  ldr  r3, = _ebss
 80035e4:	4b09      	ldr	r3, [pc, #36]	; (800360c <LoopFillZerobss+0x28>)
  cmp  r2, r3
 80035e6:	429a      	cmp	r2, r3
  bcc  FillZerobss
 80035e8:	d3f9      	bcc.n	80035de <FillZerobss>

/* Call the clock system intitialization function.*/
  bl  SystemInit   
 80035ea:	f7ff fc33 	bl	8002e54 <SystemInit>
/* Call static constructors */
    bl __libc_init_array
 80035ee:	f001 fe45 	bl	800527c <__libc_init_array>
/* Call the application's entry point.*/
  bl  main
 80035f2:	f7fe ffb3 	bl	800255c <main>
  bx  lr    
 80035f6:	4770      	bx	lr
  ldr   sp, =_estack     /* set stack pointer */
 80035f8:	20020000 	.word	0x20020000
  ldr  r3, =_sidata
 80035fc:	08007ee8 	.word	0x08007ee8
  ldr  r0, =_sdata
 8003600:	20000000 	.word	0x20000000
  ldr  r3, =_edata
 8003604:	200001dc 	.word	0x200001dc
  ldr  r2, =_sbss
 8003608:	200001dc 	.word	0x200001dc
  ldr  r3, = _ebss
 800360c:	20000360 	.word	0x20000360

08003610 <ADC_IRQHandler>:
 * @retval None       
*/
    .section  .text.Default_Handler,"ax",%progbits
Default_Handler:
Infinite_Loop:
  b  Infinite_Loop
 8003610:	e7fe      	b.n	8003610 <ADC_IRQHandler>
	...

08003614 <HAL_Init>:
  *         need to ensure that the SysTick time base is always set to 1 millisecond
  *         to have correct HAL operation.
  * @retval HAL status
  */
HAL_StatusTypeDef HAL_Init(void)
{
 8003614:	b580      	push	{r7, lr}
 8003616:	af00      	add	r7, sp, #0
  /* Configure Flash prefetch, Instruction cache, Data cache */ 
#if (INSTRUCTION_CACHE_ENABLE != 0U)
  __HAL_FLASH_INSTRUCTION_CACHE_ENABLE();
 8003618:	4b0e      	ldr	r3, [pc, #56]	; (8003654 <HAL_Init+0x40>)
 800361a:	681b      	ldr	r3, [r3, #0]
 800361c:	4a0d      	ldr	r2, [pc, #52]	; (8003654 <HAL_Init+0x40>)
 800361e:	f443 7300 	orr.w	r3, r3, #512	; 0x200
 8003622:	6013      	str	r3, [r2, #0]
#endif /* INSTRUCTION_CACHE_ENABLE */

#if (DATA_CACHE_ENABLE != 0U)
  __HAL_FLASH_DATA_CACHE_ENABLE();
 8003624:	4b0b      	ldr	r3, [pc, #44]	; (8003654 <HAL_Init+0x40>)
 8003626:	681b      	ldr	r3, [r3, #0]
 8003628:	4a0a      	ldr	r2, [pc, #40]	; (8003654 <HAL_Init+0x40>)
 800362a:	f443 6380 	orr.w	r3, r3, #1024	; 0x400
 800362e:	6013      	str	r3, [r2, #0]
#endif /* DATA_CACHE_ENABLE */

#if (PREFETCH_ENABLE != 0U)
  __HAL_FLASH_PREFETCH_BUFFER_ENABLE();
 8003630:	4b08      	ldr	r3, [pc, #32]	; (8003654 <HAL_Init+0x40>)
 8003632:	681b      	ldr	r3, [r3, #0]
 8003634:	4a07      	ldr	r2, [pc, #28]	; (8003654 <HAL_Init+0x40>)
 8003636:	f443 7380 	orr.w	r3, r3, #256	; 0x100
 800363a:	6013      	str	r3, [r2, #0]
#endif /* PREFETCH_ENABLE */

  /* Set Interrupt Group Priority */
  HAL_NVIC_SetPriorityGrouping(NVIC_PRIORITYGROUP_4);
 800363c:	2003      	movs	r0, #3
 800363e:	f000 f92f 	bl	80038a0 <HAL_NVIC_SetPriorityGrouping>

  /* Use systick as time base source and configure 1ms tick (default clock after Reset is HSI) */
  HAL_InitTick(TICK_INT_PRIORITY);
 8003642:	2000      	movs	r0, #0
 8003644:	f000 f808 	bl	8003658 <HAL_InitTick>

  /* Init the low level hardware */
  HAL_MspInit();
 8003648:	f7ff fa00 	bl	8002a4c <HAL_MspInit>

  /* Return function status */
  return HAL_OK;
 800364c:	2300      	movs	r3, #0
}
 800364e:	4618      	mov	r0, r3
 8003650:	bd80      	pop	{r7, pc}
 8003652:	bf00      	nop
 8003654:	40023c00 	.word	0x40023c00

08003658 <HAL_InitTick>:
  *       implementation  in user file.
  * @param TickPriority Tick interrupt priority.
  * @retval HAL status
  */
__weak HAL_StatusTypeDef HAL_InitTick(uint32_t TickPriority)
{
 8003658:	b580      	push	{r7, lr}
 800365a:	b082      	sub	sp, #8
 800365c:	af00      	add	r7, sp, #0
 800365e:	6078      	str	r0, [r7, #4]
  /* Configure the SysTick to have interrupt in 1ms time basis*/
  if (HAL_SYSTICK_Config(SystemCoreClock / (1000U / uwTickFreq)) > 0U)
 8003660:	4b12      	ldr	r3, [pc, #72]	; (80036ac <HAL_InitTick+0x54>)
 8003662:	681a      	ldr	r2, [r3, #0]
 8003664:	4b12      	ldr	r3, [pc, #72]	; (80036b0 <HAL_InitTick+0x58>)
 8003666:	781b      	ldrb	r3, [r3, #0]
 8003668:	4619      	mov	r1, r3
 800366a:	f44f 737a 	mov.w	r3, #1000	; 0x3e8
 800366e:	fbb3 f3f1 	udiv	r3, r3, r1
 8003672:	fbb2 f3f3 	udiv	r3, r2, r3
 8003676:	4618      	mov	r0, r3
 8003678:	f000 f939 	bl	80038ee <HAL_SYSTICK_Config>
 800367c:	4603      	mov	r3, r0
 800367e:	2b00      	cmp	r3, #0
 8003680:	d001      	beq.n	8003686 <HAL_InitTick+0x2e>
  {
    return HAL_ERROR;
 8003682:	2301      	movs	r3, #1
 8003684:	e00e      	b.n	80036a4 <HAL_InitTick+0x4c>
  }

  /* Configure the SysTick IRQ priority */
  if (TickPriority < (1UL << __NVIC_PRIO_BITS))
 8003686:	687b      	ldr	r3, [r7, #4]
 8003688:	2b0f      	cmp	r3, #15
 800368a:	d80a      	bhi.n	80036a2 <HAL_InitTick+0x4a>
  {
    HAL_NVIC_SetPriority(SysTick_IRQn, TickPriority, 0U);
 800368c:	2200      	movs	r2, #0
 800368e:	6879      	ldr	r1, [r7, #4]
 8003690:	f04f 30ff 	mov.w	r0, #4294967295
 8003694:	f000 f90f 	bl	80038b6 <HAL_NVIC_SetPriority>
    uwTickPrio = TickPriority;
 8003698:	4a06      	ldr	r2, [pc, #24]	; (80036b4 <HAL_InitTick+0x5c>)
 800369a:	687b      	ldr	r3, [r7, #4]
 800369c:	6013      	str	r3, [r2, #0]
  {
    return HAL_ERROR;
  }

  /* Return function status */
  return HAL_OK;
 800369e:	2300      	movs	r3, #0
 80036a0:	e000      	b.n	80036a4 <HAL_InitTick+0x4c>
    return HAL_ERROR;
 80036a2:	2301      	movs	r3, #1
}
 80036a4:	4618      	mov	r0, r3
 80036a6:	3708      	adds	r7, #8
 80036a8:	46bd      	mov	sp, r7
 80036aa:	bd80      	pop	{r7, pc}
 80036ac:	20000000 	.word	0x20000000
 80036b0:	20000008 	.word	0x20000008
 80036b4:	20000004 	.word	0x20000004

080036b8 <HAL_IncTick>:
 * @note This function is declared as __weak to be overwritten in case of other 
  *      implementations in user file.
  * @retval None
  */
__weak void HAL_IncTick(void)
{
 80036b8:	b480      	push	{r7}
 80036ba:	af00      	add	r7, sp, #0
  uwTick += uwTickFreq;
 80036bc:	4b06      	ldr	r3, [pc, #24]	; (80036d8 <HAL_IncTick+0x20>)
 80036be:	781b      	ldrb	r3, [r3, #0]
 80036c0:	461a      	mov	r2, r3
 80036c2:	4b06      	ldr	r3, [pc, #24]	; (80036dc <HAL_IncTick+0x24>)
 80036c4:	681b      	ldr	r3, [r3, #0]
 80036c6:	4413      	add	r3, r2
 80036c8:	4a04      	ldr	r2, [pc, #16]	; (80036dc <HAL_IncTick+0x24>)
 80036ca:	6013      	str	r3, [r2, #0]
}
 80036cc:	bf00      	nop
 80036ce:	46bd      	mov	sp, r7
 80036d0:	f85d 7b04 	ldr.w	r7, [sp], #4
 80036d4:	4770      	bx	lr
 80036d6:	bf00      	nop
 80036d8:	20000008 	.word	0x20000008
 80036dc:	20000358 	.word	0x20000358

080036e0 <HAL_GetTick>:
  * @note This function is declared as __weak to be overwritten in case of other 
  *       implementations in user file.
  * @retval tick value
  */
__weak uint32_t HAL_GetTick(void)
{
 80036e0:	b480      	push	{r7}
 80036e2:	af00      	add	r7, sp, #0
  return uwTick;
 80036e4:	4b03      	ldr	r3, [pc, #12]	; (80036f4 <HAL_GetTick+0x14>)
 80036e6:	681b      	ldr	r3, [r3, #0]
}
 80036e8:	4618      	mov	r0, r3
 80036ea:	46bd      	mov	sp, r7
 80036ec:	f85d 7b04 	ldr.w	r7, [sp], #4
 80036f0:	4770      	bx	lr
 80036f2:	bf00      	nop
 80036f4:	20000358 	.word	0x20000358

080036f8 <HAL_Delay>:
  *       implementations in user file.
  * @param Delay specifies the delay time length, in milliseconds.
  * @retval None
  */
__weak void HAL_Delay(uint32_t Delay)
{
 80036f8:	b580      	push	{r7, lr}
 80036fa:	b084      	sub	sp, #16
 80036fc:	af00      	add	r7, sp, #0
 80036fe:	6078      	str	r0, [r7, #4]
  uint32_t tickstart = HAL_GetTick();
 8003700:	f7ff ffee 	bl	80036e0 <HAL_GetTick>
 8003704:	60b8      	str	r0, [r7, #8]
  uint32_t wait = Delay;
 8003706:	687b      	ldr	r3, [r7, #4]
 8003708:	60fb      	str	r3, [r7, #12]

  /* Add a freq to guarantee minimum wait */
  if (wait < HAL_MAX_DELAY)
 800370a:	68fb      	ldr	r3, [r7, #12]
 800370c:	f1b3 3fff 	cmp.w	r3, #4294967295
 8003710:	d005      	beq.n	800371e <HAL_Delay+0x26>
  {
    wait += (uint32_t)(uwTickFreq);
 8003712:	4b09      	ldr	r3, [pc, #36]	; (8003738 <HAL_Delay+0x40>)
 8003714:	781b      	ldrb	r3, [r3, #0]
 8003716:	461a      	mov	r2, r3
 8003718:	68fb      	ldr	r3, [r7, #12]
 800371a:	4413      	add	r3, r2
 800371c:	60fb      	str	r3, [r7, #12]
  }

  while((HAL_GetTick() - tickstart) < wait)
 800371e:	bf00      	nop
 8003720:	f7ff ffde 	bl	80036e0 <HAL_GetTick>
 8003724:	4602      	mov	r2, r0
 8003726:	68bb      	ldr	r3, [r7, #8]
 8003728:	1ad3      	subs	r3, r2, r3
 800372a:	68fa      	ldr	r2, [r7, #12]
 800372c:	429a      	cmp	r2, r3
 800372e:	d8f7      	bhi.n	8003720 <HAL_Delay+0x28>
  {
  }
}
 8003730:	bf00      	nop
 8003732:	3710      	adds	r7, #16
 8003734:	46bd      	mov	sp, r7
 8003736:	bd80      	pop	{r7, pc}
 8003738:	20000008 	.word	0x20000008

0800373c <__NVIC_SetPriorityGrouping>:
{
 800373c:	b480      	push	{r7}
 800373e:	b085      	sub	sp, #20
 8003740:	af00      	add	r7, sp, #0
 8003742:	6078      	str	r0, [r7, #4]
  uint32_t PriorityGroupTmp = (PriorityGroup & (uint32_t)0x07UL);             /* only values 0..7 are used          */
 8003744:	687b      	ldr	r3, [r7, #4]
 8003746:	f003 0307 	and.w	r3, r3, #7
 800374a:	60fb      	str	r3, [r7, #12]
  reg_value  =  SCB->AIRCR;                                                   /* read old register configuration    */
 800374c:	4b0c      	ldr	r3, [pc, #48]	; (8003780 <__NVIC_SetPriorityGrouping+0x44>)
 800374e:	68db      	ldr	r3, [r3, #12]
 8003750:	60bb      	str	r3, [r7, #8]
  reg_value &= ~((uint32_t)(SCB_AIRCR_VECTKEY_Msk | SCB_AIRCR_PRIGROUP_Msk)); /* clear bits to change               */
 8003752:	68ba      	ldr	r2, [r7, #8]
 8003754:	f64f 03ff 	movw	r3, #63743	; 0xf8ff
 8003758:	4013      	ands	r3, r2
 800375a:	60bb      	str	r3, [r7, #8]
                (PriorityGroupTmp << SCB_AIRCR_PRIGROUP_Pos)  );              /* Insert write key and priority group */
 800375c:	68fb      	ldr	r3, [r7, #12]
 800375e:	021a      	lsls	r2, r3, #8
                ((uint32_t)0x5FAUL << SCB_AIRCR_VECTKEY_Pos) |
 8003760:	68bb      	ldr	r3, [r7, #8]
 8003762:	4313      	orrs	r3, r2
  reg_value  =  (reg_value                                   |
 8003764:	f043 63bf 	orr.w	r3, r3, #100139008	; 0x5f80000
 8003768:	f443 3300 	orr.w	r3, r3, #131072	; 0x20000
 800376c:	60bb      	str	r3, [r7, #8]
  SCB->AIRCR =  reg_value;
 800376e:	4a04      	ldr	r2, [pc, #16]	; (8003780 <__NVIC_SetPriorityGrouping+0x44>)
 8003770:	68bb      	ldr	r3, [r7, #8]
 8003772:	60d3      	str	r3, [r2, #12]
}
 8003774:	bf00      	nop
 8003776:	3714      	adds	r7, #20
 8003778:	46bd      	mov	sp, r7
 800377a:	f85d 7b04 	ldr.w	r7, [sp], #4
 800377e:	4770      	bx	lr
 8003780:	e000ed00 	.word	0xe000ed00

08003784 <__NVIC_GetPriorityGrouping>:
{
 8003784:	b480      	push	{r7}
 8003786:	af00      	add	r7, sp, #0
  return ((uint32_t)((SCB->AIRCR & SCB_AIRCR_PRIGROUP_Msk) >> SCB_AIRCR_PRIGROUP_Pos));
 8003788:	4b04      	ldr	r3, [pc, #16]	; (800379c <__NVIC_GetPriorityGrouping+0x18>)
 800378a:	68db      	ldr	r3, [r3, #12]
 800378c:	0a1b      	lsrs	r3, r3, #8
 800378e:	f003 0307 	and.w	r3, r3, #7
}
 8003792:	4618      	mov	r0, r3
 8003794:	46bd      	mov	sp, r7
 8003796:	f85d 7b04 	ldr.w	r7, [sp], #4
 800379a:	4770      	bx	lr
 800379c:	e000ed00 	.word	0xe000ed00

080037a0 <__NVIC_SetPriority>:
{
 80037a0:	b480      	push	{r7}
 80037a2:	b083      	sub	sp, #12
 80037a4:	af00      	add	r7, sp, #0
 80037a6:	4603      	mov	r3, r0
 80037a8:	6039      	str	r1, [r7, #0]
 80037aa:	71fb      	strb	r3, [r7, #7]
  if ((int32_t)(IRQn) >= 0)
 80037ac:	f997 3007 	ldrsb.w	r3, [r7, #7]
 80037b0:	2b00      	cmp	r3, #0
 80037b2:	db0a      	blt.n	80037ca <__NVIC_SetPriority+0x2a>
    NVIC->IP[((uint32_t)IRQn)]               = (uint8_t)((priority << (8U - __NVIC_PRIO_BITS)) & (uint32_t)0xFFUL);
 80037b4:	683b      	ldr	r3, [r7, #0]
 80037b6:	b2da      	uxtb	r2, r3
 80037b8:	490c      	ldr	r1, [pc, #48]	; (80037ec <__NVIC_SetPriority+0x4c>)
 80037ba:	f997 3007 	ldrsb.w	r3, [r7, #7]
 80037be:	0112      	lsls	r2, r2, #4
 80037c0:	b2d2      	uxtb	r2, r2
 80037c2:	440b      	add	r3, r1
 80037c4:	f883 2300 	strb.w	r2, [r3, #768]	; 0x300
}
 80037c8:	e00a      	b.n	80037e0 <__NVIC_SetPriority+0x40>
    SCB->SHP[(((uint32_t)IRQn) & 0xFUL)-4UL] = (uint8_t)((priority << (8U - __NVIC_PRIO_BITS)) & (uint32_t)0xFFUL);
 80037ca:	683b      	ldr	r3, [r7, #0]
 80037cc:	b2da      	uxtb	r2, r3
 80037ce:	4908      	ldr	r1, [pc, #32]	; (80037f0 <__NVIC_SetPriority+0x50>)
 80037d0:	79fb      	ldrb	r3, [r7, #7]
 80037d2:	f003 030f 	and.w	r3, r3, #15
 80037d6:	3b04      	subs	r3, #4
 80037d8:	0112      	lsls	r2, r2, #4
 80037da:	b2d2      	uxtb	r2, r2
 80037dc:	440b      	add	r3, r1
 80037de:	761a      	strb	r2, [r3, #24]
}
 80037e0:	bf00      	nop
 80037e2:	370c      	adds	r7, #12
 80037e4:	46bd      	mov	sp, r7
 80037e6:	f85d 7b04 	ldr.w	r7, [sp], #4
 80037ea:	4770      	bx	lr
 80037ec:	e000e100 	.word	0xe000e100
 80037f0:	e000ed00 	.word	0xe000ed00

080037f4 <NVIC_EncodePriority>:
{
 80037f4:	b480      	push	{r7}
 80037f6:	b089      	sub	sp, #36	; 0x24
 80037f8:	af00      	add	r7, sp, #0
 80037fa:	60f8      	str	r0, [r7, #12]
 80037fc:	60b9      	str	r1, [r7, #8]
 80037fe:	607a      	str	r2, [r7, #4]
  uint32_t PriorityGroupTmp = (PriorityGroup & (uint32_t)0x07UL);   /* only values 0..7 are used          */
 8003800:	68fb      	ldr	r3, [r7, #12]
 8003802:	f003 0307 	and.w	r3, r3, #7
 8003806:	61fb      	str	r3, [r7, #28]
  PreemptPriorityBits = ((7UL - PriorityGroupTmp) > (uint32_t)(__NVIC_PRIO_BITS)) ? (uint32_t)(__NVIC_PRIO_BITS) : (uint32_t)(7UL - PriorityGroupTmp);
 8003808:	69fb      	ldr	r3, [r7, #28]
 800380a:	f1c3 0307 	rsb	r3, r3, #7
 800380e:	2b04      	cmp	r3, #4
 8003810:	bf28      	it	cs
 8003812:	2304      	movcs	r3, #4
 8003814:	61bb      	str	r3, [r7, #24]
  SubPriorityBits     = ((PriorityGroupTmp + (uint32_t)(__NVIC_PRIO_BITS)) < (uint32_t)7UL) ? (uint32_t)0UL : (uint32_t)((PriorityGroupTmp - 7UL) + (uint32_t)(__NVIC_PRIO_BITS));
 8003816:	69fb      	ldr	r3, [r7, #28]
 8003818:	3304      	adds	r3, #4
 800381a:	2b06      	cmp	r3, #6
 800381c:	d902      	bls.n	8003824 <NVIC_EncodePriority+0x30>
 800381e:	69fb      	ldr	r3, [r7, #28]
 8003820:	3b03      	subs	r3, #3
 8003822:	e000      	b.n	8003826 <NVIC_EncodePriority+0x32>
 8003824:	2300      	movs	r3, #0
 8003826:	617b      	str	r3, [r7, #20]
           ((PreemptPriority & (uint32_t)((1UL << (PreemptPriorityBits)) - 1UL)) << SubPriorityBits) |
 8003828:	f04f 32ff 	mov.w	r2, #4294967295
 800382c:	69bb      	ldr	r3, [r7, #24]
 800382e:	fa02 f303 	lsl.w	r3, r2, r3
 8003832:	43da      	mvns	r2, r3
 8003834:	68bb      	ldr	r3, [r7, #8]
 8003836:	401a      	ands	r2, r3
 8003838:	697b      	ldr	r3, [r7, #20]
 800383a:	409a      	lsls	r2, r3
           ((SubPriority     & (uint32_t)((1UL << (SubPriorityBits    )) - 1UL)))
 800383c:	f04f 31ff 	mov.w	r1, #4294967295
 8003840:	697b      	ldr	r3, [r7, #20]
 8003842:	fa01 f303 	lsl.w	r3, r1, r3
 8003846:	43d9      	mvns	r1, r3
 8003848:	687b      	ldr	r3, [r7, #4]
 800384a:	400b      	ands	r3, r1
           ((PreemptPriority & (uint32_t)((1UL << (PreemptPriorityBits)) - 1UL)) << SubPriorityBits) |
 800384c:	4313      	orrs	r3, r2
}
 800384e:	4618      	mov	r0, r3
 8003850:	3724      	adds	r7, #36	; 0x24
 8003852:	46bd      	mov	sp, r7
 8003854:	f85d 7b04 	ldr.w	r7, [sp], #4
 8003858:	4770      	bx	lr
	...

0800385c <SysTick_Config>:
  \note    When the variable <b>__Vendor_SysTickConfig</b> is set to 1, then the
           function <b>SysTick_Config</b> is not included. In this case, the file <b><i>device</i>.h</b>
           must contain a vendor-specific implementation of this function.
 */
__STATIC_INLINE uint32_t SysTick_Config(uint32_t ticks)
{
 800385c:	b580      	push	{r7, lr}
 800385e:	b082      	sub	sp, #8
 8003860:	af00      	add	r7, sp, #0
 8003862:	6078      	str	r0, [r7, #4]
  if ((ticks - 1UL) > SysTick_LOAD_RELOAD_Msk)
 8003864:	687b      	ldr	r3, [r7, #4]
 8003866:	3b01      	subs	r3, #1
 8003868:	f1b3 7f80 	cmp.w	r3, #16777216	; 0x1000000
 800386c:	d301      	bcc.n	8003872 <SysTick_Config+0x16>
  {
    return (1UL);                                                   /* Reload value impossible */
 800386e:	2301      	movs	r3, #1
 8003870:	e00f      	b.n	8003892 <SysTick_Config+0x36>
  }

  SysTick->LOAD  = (uint32_t)(ticks - 1UL);                         /* set reload register */
 8003872:	4a0a      	ldr	r2, [pc, #40]	; (800389c <SysTick_Config+0x40>)
 8003874:	687b      	ldr	r3, [r7, #4]
 8003876:	3b01      	subs	r3, #1
 8003878:	6053      	str	r3, [r2, #4]
  NVIC_SetPriority (SysTick_IRQn, (1UL << __NVIC_PRIO_BITS) - 1UL); /* set Priority for Systick Interrupt */
 800387a:	210f      	movs	r1, #15
 800387c:	f04f 30ff 	mov.w	r0, #4294967295
 8003880:	f7ff ff8e 	bl	80037a0 <__NVIC_SetPriority>
  SysTick->VAL   = 0UL;                                             /* Load the SysTick Counter Value */
 8003884:	4b05      	ldr	r3, [pc, #20]	; (800389c <SysTick_Config+0x40>)
 8003886:	2200      	movs	r2, #0
 8003888:	609a      	str	r2, [r3, #8]
  SysTick->CTRL  = SysTick_CTRL_CLKSOURCE_Msk |
 800388a:	4b04      	ldr	r3, [pc, #16]	; (800389c <SysTick_Config+0x40>)
 800388c:	2207      	movs	r2, #7
 800388e:	601a      	str	r2, [r3, #0]
                   SysTick_CTRL_TICKINT_Msk   |
                   SysTick_CTRL_ENABLE_Msk;                         /* Enable SysTick IRQ and SysTick Timer */
  return (0UL);                                                     /* Function successful */
 8003890:	2300      	movs	r3, #0
}
 8003892:	4618      	mov	r0, r3
 8003894:	3708      	adds	r7, #8
 8003896:	46bd      	mov	sp, r7
 8003898:	bd80      	pop	{r7, pc}
 800389a:	bf00      	nop
 800389c:	e000e010 	.word	0xe000e010

080038a0 <HAL_NVIC_SetPriorityGrouping>:
  * @note   When the NVIC_PriorityGroup_0 is selected, IRQ preemption is no more possible. 
  *         The pending IRQ priority will be managed only by the subpriority. 
  * @retval None
  */
void HAL_NVIC_SetPriorityGrouping(uint32_t PriorityGroup)
{
 80038a0:	b580      	push	{r7, lr}
 80038a2:	b082      	sub	sp, #8
 80038a4:	af00      	add	r7, sp, #0
 80038a6:	6078      	str	r0, [r7, #4]
  /* Check the parameters */
  assert_param(IS_NVIC_PRIORITY_GROUP(PriorityGroup));
  
  /* Set the PRIGROUP[10:8] bits according to the PriorityGroup parameter value */
  NVIC_SetPriorityGrouping(PriorityGroup);
 80038a8:	6878      	ldr	r0, [r7, #4]
 80038aa:	f7ff ff47 	bl	800373c <__NVIC_SetPriorityGrouping>
}
 80038ae:	bf00      	nop
 80038b0:	3708      	adds	r7, #8
 80038b2:	46bd      	mov	sp, r7
 80038b4:	bd80      	pop	{r7, pc}

080038b6 <HAL_NVIC_SetPriority>:
  *         This parameter can be a value between 0 and 15
  *         A lower priority value indicates a higher priority.          
  * @retval None
  */
void HAL_NVIC_SetPriority(IRQn_Type IRQn, uint32_t PreemptPriority, uint32_t SubPriority)
{ 
 80038b6:	b580      	push	{r7, lr}
 80038b8:	b086      	sub	sp, #24
 80038ba:	af00      	add	r7, sp, #0
 80038bc:	4603      	mov	r3, r0
 80038be:	60b9      	str	r1, [r7, #8]
 80038c0:	607a      	str	r2, [r7, #4]
 80038c2:	73fb      	strb	r3, [r7, #15]
  uint32_t prioritygroup = 0x00U;
 80038c4:	2300      	movs	r3, #0
 80038c6:	617b      	str	r3, [r7, #20]
  
  /* Check the parameters */
  assert_param(IS_NVIC_SUB_PRIORITY(SubPriority));
  assert_param(IS_NVIC_PREEMPTION_PRIORITY(PreemptPriority));
  
  prioritygroup = NVIC_GetPriorityGrouping();
 80038c8:	f7ff ff5c 	bl	8003784 <__NVIC_GetPriorityGrouping>
 80038cc:	6178      	str	r0, [r7, #20]
  
  NVIC_SetPriority(IRQn, NVIC_EncodePriority(prioritygroup, PreemptPriority, SubPriority));
 80038ce:	687a      	ldr	r2, [r7, #4]
 80038d0:	68b9      	ldr	r1, [r7, #8]
 80038d2:	6978      	ldr	r0, [r7, #20]
 80038d4:	f7ff ff8e 	bl	80037f4 <NVIC_EncodePriority>
 80038d8:	4602      	mov	r2, r0
 80038da:	f997 300f 	ldrsb.w	r3, [r7, #15]
 80038de:	4611      	mov	r1, r2
 80038e0:	4618      	mov	r0, r3
 80038e2:	f7ff ff5d 	bl	80037a0 <__NVIC_SetPriority>
}
 80038e6:	bf00      	nop
 80038e8:	3718      	adds	r7, #24
 80038ea:	46bd      	mov	sp, r7
 80038ec:	bd80      	pop	{r7, pc}

080038ee <HAL_SYSTICK_Config>:
  * @param  TicksNumb Specifies the ticks Number of ticks between two interrupts.
  * @retval status:  - 0  Function succeeded.
  *                  - 1  Function failed.
  */
uint32_t HAL_SYSTICK_Config(uint32_t TicksNumb)
{
 80038ee:	b580      	push	{r7, lr}
 80038f0:	b082      	sub	sp, #8
 80038f2:	af00      	add	r7, sp, #0
 80038f4:	6078      	str	r0, [r7, #4]
   return SysTick_Config(TicksNumb);
 80038f6:	6878      	ldr	r0, [r7, #4]
 80038f8:	f7ff ffb0 	bl	800385c <SysTick_Config>
 80038fc:	4603      	mov	r3, r0
}
 80038fe:	4618      	mov	r0, r3
 8003900:	3708      	adds	r7, #8
 8003902:	46bd      	mov	sp, r7
 8003904:	bd80      	pop	{r7, pc}
	...

08003908 <HAL_RCC_OscConfig>:
  *         supported by this API. User should request a transition to HSE Off
  *         first and then HSE On or HSE Bypass.
  * @retval HAL status
  */
__weak HAL_StatusTypeDef HAL_RCC_OscConfig(RCC_OscInitTypeDef  *RCC_OscInitStruct)
{
 8003908:	b580      	push	{r7, lr}
 800390a:	b086      	sub	sp, #24
 800390c:	af00      	add	r7, sp, #0
 800390e:	6078      	str	r0, [r7, #4]
  uint32_t tickstart, pll_config;

  /* Check Null pointer */
  if(RCC_OscInitStruct == NULL)
 8003910:	687b      	ldr	r3, [r7, #4]
 8003912:	2b00      	cmp	r3, #0
 8003914:	d101      	bne.n	800391a <HAL_RCC_OscConfig+0x12>
  {
    return HAL_ERROR;
 8003916:	2301      	movs	r3, #1
 8003918:	e25b      	b.n	8003dd2 <HAL_RCC_OscConfig+0x4ca>
  }

  /* Check the parameters */
  assert_param(IS_RCC_OSCILLATORTYPE(RCC_OscInitStruct->OscillatorType));
  /*------------------------------- HSE Configuration ------------------------*/
  if(((RCC_OscInitStruct->OscillatorType) & RCC_OSCILLATORTYPE_HSE) == RCC_OSCILLATORTYPE_HSE)
 800391a:	687b      	ldr	r3, [r7, #4]
 800391c:	681b      	ldr	r3, [r3, #0]
 800391e:	f003 0301 	and.w	r3, r3, #1
 8003922:	2b00      	cmp	r3, #0
 8003924:	d075      	beq.n	8003a12 <HAL_RCC_OscConfig+0x10a>
  {
    /* Check the parameters */
    assert_param(IS_RCC_HSE(RCC_OscInitStruct->HSEState));
    /* When the HSE is used as system clock or clock source for PLL in these cases HSE will not disabled */
    if((__HAL_RCC_GET_SYSCLK_SOURCE() == RCC_CFGR_SWS_HSE) ||\
 8003926:	4ba3      	ldr	r3, [pc, #652]	; (8003bb4 <HAL_RCC_OscConfig+0x2ac>)
 8003928:	689b      	ldr	r3, [r3, #8]
 800392a:	f003 030c 	and.w	r3, r3, #12
 800392e:	2b04      	cmp	r3, #4
 8003930:	d00c      	beq.n	800394c <HAL_RCC_OscConfig+0x44>
      ((__HAL_RCC_GET_SYSCLK_SOURCE() == RCC_CFGR_SWS_PLL) && ((RCC->PLLCFGR & RCC_PLLCFGR_PLLSRC) == RCC_PLLCFGR_PLLSRC_HSE)))
 8003932:	4ba0      	ldr	r3, [pc, #640]	; (8003bb4 <HAL_RCC_OscConfig+0x2ac>)
 8003934:	689b      	ldr	r3, [r3, #8]
 8003936:	f003 030c 	and.w	r3, r3, #12
    if((__HAL_RCC_GET_SYSCLK_SOURCE() == RCC_CFGR_SWS_HSE) ||\
 800393a:	2b08      	cmp	r3, #8
 800393c:	d112      	bne.n	8003964 <HAL_RCC_OscConfig+0x5c>
      ((__HAL_RCC_GET_SYSCLK_SOURCE() == RCC_CFGR_SWS_PLL) && ((RCC->PLLCFGR & RCC_PLLCFGR_PLLSRC) == RCC_PLLCFGR_PLLSRC_HSE)))
 800393e:	4b9d      	ldr	r3, [pc, #628]	; (8003bb4 <HAL_RCC_OscConfig+0x2ac>)
 8003940:	685b      	ldr	r3, [r3, #4]
 8003942:	f403 0380 	and.w	r3, r3, #4194304	; 0x400000
 8003946:	f5b3 0f80 	cmp.w	r3, #4194304	; 0x400000
 800394a:	d10b      	bne.n	8003964 <HAL_RCC_OscConfig+0x5c>
    {
      if((__HAL_RCC_GET_FLAG(RCC_FLAG_HSERDY) != RESET) && (RCC_OscInitStruct->HSEState == RCC_HSE_OFF))
 800394c:	4b99      	ldr	r3, [pc, #612]	; (8003bb4 <HAL_RCC_OscConfig+0x2ac>)
 800394e:	681b      	ldr	r3, [r3, #0]
 8003950:	f403 3300 	and.w	r3, r3, #131072	; 0x20000
 8003954:	2b00      	cmp	r3, #0
 8003956:	d05b      	beq.n	8003a10 <HAL_RCC_OscConfig+0x108>
 8003958:	687b      	ldr	r3, [r7, #4]
 800395a:	685b      	ldr	r3, [r3, #4]
 800395c:	2b00      	cmp	r3, #0
 800395e:	d157      	bne.n	8003a10 <HAL_RCC_OscConfig+0x108>
      {
        return HAL_ERROR;
 8003960:	2301      	movs	r3, #1
 8003962:	e236      	b.n	8003dd2 <HAL_RCC_OscConfig+0x4ca>
      }
    }
    else
    {
      /* Set the new HSE configuration ---------------------------------------*/
      __HAL_RCC_HSE_CONFIG(RCC_OscInitStruct->HSEState);
 8003964:	687b      	ldr	r3, [r7, #4]
 8003966:	685b      	ldr	r3, [r3, #4]
 8003968:	f5b3 3f80 	cmp.w	r3, #65536	; 0x10000
 800396c:	d106      	bne.n	800397c <HAL_RCC_OscConfig+0x74>
 800396e:	4b91      	ldr	r3, [pc, #580]	; (8003bb4 <HAL_RCC_OscConfig+0x2ac>)
 8003970:	681b      	ldr	r3, [r3, #0]
 8003972:	4a90      	ldr	r2, [pc, #576]	; (8003bb4 <HAL_RCC_OscConfig+0x2ac>)
 8003974:	f443 3380 	orr.w	r3, r3, #65536	; 0x10000
 8003978:	6013      	str	r3, [r2, #0]
 800397a:	e01d      	b.n	80039b8 <HAL_RCC_OscConfig+0xb0>
 800397c:	687b      	ldr	r3, [r7, #4]
 800397e:	685b      	ldr	r3, [r3, #4]
 8003980:	f5b3 2fa0 	cmp.w	r3, #327680	; 0x50000
 8003984:	d10c      	bne.n	80039a0 <HAL_RCC_OscConfig+0x98>
 8003986:	4b8b      	ldr	r3, [pc, #556]	; (8003bb4 <HAL_RCC_OscConfig+0x2ac>)
 8003988:	681b      	ldr	r3, [r3, #0]
 800398a:	4a8a      	ldr	r2, [pc, #552]	; (8003bb4 <HAL_RCC_OscConfig+0x2ac>)
 800398c:	f443 2380 	orr.w	r3, r3, #262144	; 0x40000
 8003990:	6013      	str	r3, [r2, #0]
 8003992:	4b88      	ldr	r3, [pc, #544]	; (8003bb4 <HAL_RCC_OscConfig+0x2ac>)
 8003994:	681b      	ldr	r3, [r3, #0]
 8003996:	4a87      	ldr	r2, [pc, #540]	; (8003bb4 <HAL_RCC_OscConfig+0x2ac>)
 8003998:	f443 3380 	orr.w	r3, r3, #65536	; 0x10000
 800399c:	6013      	str	r3, [r2, #0]
 800399e:	e00b      	b.n	80039b8 <HAL_RCC_OscConfig+0xb0>
 80039a0:	4b84      	ldr	r3, [pc, #528]	; (8003bb4 <HAL_RCC_OscConfig+0x2ac>)
 80039a2:	681b      	ldr	r3, [r3, #0]
 80039a4:	4a83      	ldr	r2, [pc, #524]	; (8003bb4 <HAL_RCC_OscConfig+0x2ac>)
 80039a6:	f423 3380 	bic.w	r3, r3, #65536	; 0x10000
 80039aa:	6013      	str	r3, [r2, #0]
 80039ac:	4b81      	ldr	r3, [pc, #516]	; (8003bb4 <HAL_RCC_OscConfig+0x2ac>)
 80039ae:	681b      	ldr	r3, [r3, #0]
 80039b0:	4a80      	ldr	r2, [pc, #512]	; (8003bb4 <HAL_RCC_OscConfig+0x2ac>)
 80039b2:	f423 2380 	bic.w	r3, r3, #262144	; 0x40000
 80039b6:	6013      	str	r3, [r2, #0]

      /* Check the HSE State */
      if((RCC_OscInitStruct->HSEState) != RCC_HSE_OFF)
 80039b8:	687b      	ldr	r3, [r7, #4]
 80039ba:	685b      	ldr	r3, [r3, #4]
 80039bc:	2b00      	cmp	r3, #0
 80039be:	d013      	beq.n	80039e8 <HAL_RCC_OscConfig+0xe0>
      {
        /* Get Start Tick */
        tickstart = HAL_GetTick();
 80039c0:	f7ff fe8e 	bl	80036e0 <HAL_GetTick>
 80039c4:	6138      	str	r0, [r7, #16]

        /* Wait till HSE is ready */
        while(__HAL_RCC_GET_FLAG(RCC_FLAG_HSERDY) == RESET)
 80039c6:	e008      	b.n	80039da <HAL_RCC_OscConfig+0xd2>
        {
          if((HAL_GetTick() - tickstart ) > HSE_TIMEOUT_VALUE)
 80039c8:	f7ff fe8a 	bl	80036e0 <HAL_GetTick>
 80039cc:	4602      	mov	r2, r0
 80039ce:	693b      	ldr	r3, [r7, #16]
 80039d0:	1ad3      	subs	r3, r2, r3
 80039d2:	2b64      	cmp	r3, #100	; 0x64
 80039d4:	d901      	bls.n	80039da <HAL_RCC_OscConfig+0xd2>
          {
            return HAL_TIMEOUT;
 80039d6:	2303      	movs	r3, #3
 80039d8:	e1fb      	b.n	8003dd2 <HAL_RCC_OscConfig+0x4ca>
        while(__HAL_RCC_GET_FLAG(RCC_FLAG_HSERDY) == RESET)
 80039da:	4b76      	ldr	r3, [pc, #472]	; (8003bb4 <HAL_RCC_OscConfig+0x2ac>)
 80039dc:	681b      	ldr	r3, [r3, #0]
 80039de:	f403 3300 	and.w	r3, r3, #131072	; 0x20000
 80039e2:	2b00      	cmp	r3, #0
 80039e4:	d0f0      	beq.n	80039c8 <HAL_RCC_OscConfig+0xc0>
 80039e6:	e014      	b.n	8003a12 <HAL_RCC_OscConfig+0x10a>
        }
      }
      else
      {
        /* Get Start Tick */
        tickstart = HAL_GetTick();
 80039e8:	f7ff fe7a 	bl	80036e0 <HAL_GetTick>
 80039ec:	6138      	str	r0, [r7, #16]

        /* Wait till HSE is bypassed or disabled */
        while(__HAL_RCC_GET_FLAG(RCC_FLAG_HSERDY) != RESET)
 80039ee:	e008      	b.n	8003a02 <HAL_RCC_OscConfig+0xfa>
        {
          if((HAL_GetTick() - tickstart ) > HSE_TIMEOUT_VALUE)
 80039f0:	f7ff fe76 	bl	80036e0 <HAL_GetTick>
 80039f4:	4602      	mov	r2, r0
 80039f6:	693b      	ldr	r3, [r7, #16]
 80039f8:	1ad3      	subs	r3, r2, r3
 80039fa:	2b64      	cmp	r3, #100	; 0x64
 80039fc:	d901      	bls.n	8003a02 <HAL_RCC_OscConfig+0xfa>
          {
            return HAL_TIMEOUT;
 80039fe:	2303      	movs	r3, #3
 8003a00:	e1e7      	b.n	8003dd2 <HAL_RCC_OscConfig+0x4ca>
        while(__HAL_RCC_GET_FLAG(RCC_FLAG_HSERDY) != RESET)
 8003a02:	4b6c      	ldr	r3, [pc, #432]	; (8003bb4 <HAL_RCC_OscConfig+0x2ac>)
 8003a04:	681b      	ldr	r3, [r3, #0]
 8003a06:	f403 3300 	and.w	r3, r3, #131072	; 0x20000
 8003a0a:	2b00      	cmp	r3, #0
 8003a0c:	d1f0      	bne.n	80039f0 <HAL_RCC_OscConfig+0xe8>
 8003a0e:	e000      	b.n	8003a12 <HAL_RCC_OscConfig+0x10a>
      if((__HAL_RCC_GET_FLAG(RCC_FLAG_HSERDY) != RESET) && (RCC_OscInitStruct->HSEState == RCC_HSE_OFF))
 8003a10:	bf00      	nop
        }
      }
    }
  }
  /*----------------------------- HSI Configuration --------------------------*/
  if(((RCC_OscInitStruct->OscillatorType) & RCC_OSCILLATORTYPE_HSI) == RCC_OSCILLATORTYPE_HSI)
 8003a12:	687b      	ldr	r3, [r7, #4]
 8003a14:	681b      	ldr	r3, [r3, #0]
 8003a16:	f003 0302 	and.w	r3, r3, #2
 8003a1a:	2b00      	cmp	r3, #0
 8003a1c:	d063      	beq.n	8003ae6 <HAL_RCC_OscConfig+0x1de>
    /* Check the parameters */
    assert_param(IS_RCC_HSI(RCC_OscInitStruct->HSIState));
    assert_param(IS_RCC_CALIBRATION_VALUE(RCC_OscInitStruct->HSICalibrationValue));

    /* Check if HSI is used as system clock or as PLL source when PLL is selected as system clock */
    if((__HAL_RCC_GET_SYSCLK_SOURCE() == RCC_CFGR_SWS_HSI) ||\
 8003a1e:	4b65      	ldr	r3, [pc, #404]	; (8003bb4 <HAL_RCC_OscConfig+0x2ac>)
 8003a20:	689b      	ldr	r3, [r3, #8]
 8003a22:	f003 030c 	and.w	r3, r3, #12
 8003a26:	2b00      	cmp	r3, #0
 8003a28:	d00b      	beq.n	8003a42 <HAL_RCC_OscConfig+0x13a>
      ((__HAL_RCC_GET_SYSCLK_SOURCE() == RCC_CFGR_SWS_PLL) && ((RCC->PLLCFGR & RCC_PLLCFGR_PLLSRC) == RCC_PLLCFGR_PLLSRC_HSI)))
 8003a2a:	4b62      	ldr	r3, [pc, #392]	; (8003bb4 <HAL_RCC_OscConfig+0x2ac>)
 8003a2c:	689b      	ldr	r3, [r3, #8]
 8003a2e:	f003 030c 	and.w	r3, r3, #12
    if((__HAL_RCC_GET_SYSCLK_SOURCE() == RCC_CFGR_SWS_HSI) ||\
 8003a32:	2b08      	cmp	r3, #8
 8003a34:	d11c      	bne.n	8003a70 <HAL_RCC_OscConfig+0x168>
      ((__HAL_RCC_GET_SYSCLK_SOURCE() == RCC_CFGR_SWS_PLL) && ((RCC->PLLCFGR & RCC_PLLCFGR_PLLSRC) == RCC_PLLCFGR_PLLSRC_HSI)))
 8003a36:	4b5f      	ldr	r3, [pc, #380]	; (8003bb4 <HAL_RCC_OscConfig+0x2ac>)
 8003a38:	685b      	ldr	r3, [r3, #4]
 8003a3a:	f403 0380 	and.w	r3, r3, #4194304	; 0x400000
 8003a3e:	2b00      	cmp	r3, #0
 8003a40:	d116      	bne.n	8003a70 <HAL_RCC_OscConfig+0x168>
    {
      /* When HSI is used as system clock it will not disabled */
      if((__HAL_RCC_GET_FLAG(RCC_FLAG_HSIRDY) != RESET) && (RCC_OscInitStruct->HSIState != RCC_HSI_ON))
 8003a42:	4b5c      	ldr	r3, [pc, #368]	; (8003bb4 <HAL_RCC_OscConfig+0x2ac>)
 8003a44:	681b      	ldr	r3, [r3, #0]
 8003a46:	f003 0302 	and.w	r3, r3, #2
 8003a4a:	2b00      	cmp	r3, #0
 8003a4c:	d005      	beq.n	8003a5a <HAL_RCC_OscConfig+0x152>
 8003a4e:	687b      	ldr	r3, [r7, #4]
 8003a50:	68db      	ldr	r3, [r3, #12]
 8003a52:	2b01      	cmp	r3, #1
 8003a54:	d001      	beq.n	8003a5a <HAL_RCC_OscConfig+0x152>
      {
        return HAL_ERROR;
 8003a56:	2301      	movs	r3, #1
 8003a58:	e1bb      	b.n	8003dd2 <HAL_RCC_OscConfig+0x4ca>
      }
      /* Otherwise, just the calibration is allowed */
      else
      {
        /* Adjusts the Internal High Speed oscillator (HSI) calibration value.*/
        __HAL_RCC_HSI_CALIBRATIONVALUE_ADJUST(RCC_OscInitStruct->HSICalibrationValue);
 8003a5a:	4b56      	ldr	r3, [pc, #344]	; (8003bb4 <HAL_RCC_OscConfig+0x2ac>)
 8003a5c:	681b      	ldr	r3, [r3, #0]
 8003a5e:	f023 02f8 	bic.w	r2, r3, #248	; 0xf8
 8003a62:	687b      	ldr	r3, [r7, #4]
 8003a64:	691b      	ldr	r3, [r3, #16]
 8003a66:	00db      	lsls	r3, r3, #3
 8003a68:	4952      	ldr	r1, [pc, #328]	; (8003bb4 <HAL_RCC_OscConfig+0x2ac>)
 8003a6a:	4313      	orrs	r3, r2
 8003a6c:	600b      	str	r3, [r1, #0]
      if((__HAL_RCC_GET_FLAG(RCC_FLAG_HSIRDY) != RESET) && (RCC_OscInitStruct->HSIState != RCC_HSI_ON))
 8003a6e:	e03a      	b.n	8003ae6 <HAL_RCC_OscConfig+0x1de>
      }
    }
    else
    {
      /* Check the HSI State */
      if((RCC_OscInitStruct->HSIState)!= RCC_HSI_OFF)
 8003a70:	687b      	ldr	r3, [r7, #4]
 8003a72:	68db      	ldr	r3, [r3, #12]
 8003a74:	2b00      	cmp	r3, #0
 8003a76:	d020      	beq.n	8003aba <HAL_RCC_OscConfig+0x1b2>
      {
        /* Enable the Internal High Speed oscillator (HSI). */
        __HAL_RCC_HSI_ENABLE();
 8003a78:	4b4f      	ldr	r3, [pc, #316]	; (8003bb8 <HAL_RCC_OscConfig+0x2b0>)
 8003a7a:	2201      	movs	r2, #1
 8003a7c:	601a      	str	r2, [r3, #0]

        /* Get Start Tick*/
        tickstart = HAL_GetTick();
 8003a7e:	f7ff fe2f 	bl	80036e0 <HAL_GetTick>
 8003a82:	6138      	str	r0, [r7, #16]

        /* Wait till HSI is ready */
        while(__HAL_RCC_GET_FLAG(RCC_FLAG_HSIRDY) == RESET)
 8003a84:	e008      	b.n	8003a98 <HAL_RCC_OscConfig+0x190>
        {
          if((HAL_GetTick() - tickstart ) > HSI_TIMEOUT_VALUE)
 8003a86:	f7ff fe2b 	bl	80036e0 <HAL_GetTick>
 8003a8a:	4602      	mov	r2, r0
 8003a8c:	693b      	ldr	r3, [r7, #16]
 8003a8e:	1ad3      	subs	r3, r2, r3
 8003a90:	2b02      	cmp	r3, #2
 8003a92:	d901      	bls.n	8003a98 <HAL_RCC_OscConfig+0x190>
          {
            return HAL_TIMEOUT;
 8003a94:	2303      	movs	r3, #3
 8003a96:	e19c      	b.n	8003dd2 <HAL_RCC_OscConfig+0x4ca>
        while(__HAL_RCC_GET_FLAG(RCC_FLAG_HSIRDY) == RESET)
 8003a98:	4b46      	ldr	r3, [pc, #280]	; (8003bb4 <HAL_RCC_OscConfig+0x2ac>)
 8003a9a:	681b      	ldr	r3, [r3, #0]
 8003a9c:	f003 0302 	and.w	r3, r3, #2
 8003aa0:	2b00      	cmp	r3, #0
 8003aa2:	d0f0      	beq.n	8003a86 <HAL_RCC_OscConfig+0x17e>
          }
        }

        /* Adjusts the Internal High Speed oscillator (HSI) calibration value. */
        __HAL_RCC_HSI_CALIBRATIONVALUE_ADJUST(RCC_OscInitStruct->HSICalibrationValue);
 8003aa4:	4b43      	ldr	r3, [pc, #268]	; (8003bb4 <HAL_RCC_OscConfig+0x2ac>)
 8003aa6:	681b      	ldr	r3, [r3, #0]
 8003aa8:	f023 02f8 	bic.w	r2, r3, #248	; 0xf8
 8003aac:	687b      	ldr	r3, [r7, #4]
 8003aae:	691b      	ldr	r3, [r3, #16]
 8003ab0:	00db      	lsls	r3, r3, #3
 8003ab2:	4940      	ldr	r1, [pc, #256]	; (8003bb4 <HAL_RCC_OscConfig+0x2ac>)
 8003ab4:	4313      	orrs	r3, r2
 8003ab6:	600b      	str	r3, [r1, #0]
 8003ab8:	e015      	b.n	8003ae6 <HAL_RCC_OscConfig+0x1de>
      }
      else
      {
        /* Disable the Internal High Speed oscillator (HSI). */
        __HAL_RCC_HSI_DISABLE();
 8003aba:	4b3f      	ldr	r3, [pc, #252]	; (8003bb8 <HAL_RCC_OscConfig+0x2b0>)
 8003abc:	2200      	movs	r2, #0
 8003abe:	601a      	str	r2, [r3, #0]

        /* Get Start Tick*/
        tickstart = HAL_GetTick();
 8003ac0:	f7ff fe0e 	bl	80036e0 <HAL_GetTick>
 8003ac4:	6138      	str	r0, [r7, #16]

        /* Wait till HSI is ready */
        while(__HAL_RCC_GET_FLAG(RCC_FLAG_HSIRDY) != RESET)
 8003ac6:	e008      	b.n	8003ada <HAL_RCC_OscConfig+0x1d2>
        {
          if((HAL_GetTick() - tickstart ) > HSI_TIMEOUT_VALUE)
 8003ac8:	f7ff fe0a 	bl	80036e0 <HAL_GetTick>
 8003acc:	4602      	mov	r2, r0
 8003ace:	693b      	ldr	r3, [r7, #16]
 8003ad0:	1ad3      	subs	r3, r2, r3
 8003ad2:	2b02      	cmp	r3, #2
 8003ad4:	d901      	bls.n	8003ada <HAL_RCC_OscConfig+0x1d2>
          {
            return HAL_TIMEOUT;
 8003ad6:	2303      	movs	r3, #3
 8003ad8:	e17b      	b.n	8003dd2 <HAL_RCC_OscConfig+0x4ca>
        while(__HAL_RCC_GET_FLAG(RCC_FLAG_HSIRDY) != RESET)
 8003ada:	4b36      	ldr	r3, [pc, #216]	; (8003bb4 <HAL_RCC_OscConfig+0x2ac>)
 8003adc:	681b      	ldr	r3, [r3, #0]
 8003ade:	f003 0302 	and.w	r3, r3, #2
 8003ae2:	2b00      	cmp	r3, #0
 8003ae4:	d1f0      	bne.n	8003ac8 <HAL_RCC_OscConfig+0x1c0>
        }
      }
    }
  }
  /*------------------------------ LSI Configuration -------------------------*/
  if(((RCC_OscInitStruct->OscillatorType) & RCC_OSCILLATORTYPE_LSI) == RCC_OSCILLATORTYPE_LSI)
 8003ae6:	687b      	ldr	r3, [r7, #4]
 8003ae8:	681b      	ldr	r3, [r3, #0]
 8003aea:	f003 0308 	and.w	r3, r3, #8
 8003aee:	2b00      	cmp	r3, #0
 8003af0:	d030      	beq.n	8003b54 <HAL_RCC_OscConfig+0x24c>
  {
    /* Check the parameters */
    assert_param(IS_RCC_LSI(RCC_OscInitStruct->LSIState));

    /* Check the LSI State */
    if((RCC_OscInitStruct->LSIState)!= RCC_LSI_OFF)
 8003af2:	687b      	ldr	r3, [r7, #4]
 8003af4:	695b      	ldr	r3, [r3, #20]
 8003af6:	2b00      	cmp	r3, #0
 8003af8:	d016      	beq.n	8003b28 <HAL_RCC_OscConfig+0x220>
    {
      /* Enable the Internal Low Speed oscillator (LSI). */
      __HAL_RCC_LSI_ENABLE();
 8003afa:	4b30      	ldr	r3, [pc, #192]	; (8003bbc <HAL_RCC_OscConfig+0x2b4>)
 8003afc:	2201      	movs	r2, #1
 8003afe:	601a      	str	r2, [r3, #0]

      /* Get Start Tick*/
      tickstart = HAL_GetTick();
 8003b00:	f7ff fdee 	bl	80036e0 <HAL_GetTick>
 8003b04:	6138      	str	r0, [r7, #16]

      /* Wait till LSI is ready */
      while(__HAL_RCC_GET_FLAG(RCC_FLAG_LSIRDY) == RESET)
 8003b06:	e008      	b.n	8003b1a <HAL_RCC_OscConfig+0x212>
      {
        if((HAL_GetTick() - tickstart ) > LSI_TIMEOUT_VALUE)
 8003b08:	f7ff fdea 	bl	80036e0 <HAL_GetTick>
 8003b0c:	4602      	mov	r2, r0
 8003b0e:	693b      	ldr	r3, [r7, #16]
 8003b10:	1ad3      	subs	r3, r2, r3
 8003b12:	2b02      	cmp	r3, #2
 8003b14:	d901      	bls.n	8003b1a <HAL_RCC_OscConfig+0x212>
        {
          return HAL_TIMEOUT;
 8003b16:	2303      	movs	r3, #3
 8003b18:	e15b      	b.n	8003dd2 <HAL_RCC_OscConfig+0x4ca>
      while(__HAL_RCC_GET_FLAG(RCC_FLAG_LSIRDY) == RESET)
 8003b1a:	4b26      	ldr	r3, [pc, #152]	; (8003bb4 <HAL_RCC_OscConfig+0x2ac>)
 8003b1c:	6f5b      	ldr	r3, [r3, #116]	; 0x74
 8003b1e:	f003 0302 	and.w	r3, r3, #2
 8003b22:	2b00      	cmp	r3, #0
 8003b24:	d0f0      	beq.n	8003b08 <HAL_RCC_OscConfig+0x200>
 8003b26:	e015      	b.n	8003b54 <HAL_RCC_OscConfig+0x24c>
      }
    }
    else
    {
      /* Disable the Internal Low Speed oscillator (LSI). */
      __HAL_RCC_LSI_DISABLE();
 8003b28:	4b24      	ldr	r3, [pc, #144]	; (8003bbc <HAL_RCC_OscConfig+0x2b4>)
 8003b2a:	2200      	movs	r2, #0
 8003b2c:	601a      	str	r2, [r3, #0]

      /* Get Start Tick */
      tickstart = HAL_GetTick();
 8003b2e:	f7ff fdd7 	bl	80036e0 <HAL_GetTick>
 8003b32:	6138      	str	r0, [r7, #16]

      /* Wait till LSI is ready */
      while(__HAL_RCC_GET_FLAG(RCC_FLAG_LSIRDY) != RESET)
 8003b34:	e008      	b.n	8003b48 <HAL_RCC_OscConfig+0x240>
      {
        if((HAL_GetTick() - tickstart ) > LSI_TIMEOUT_VALUE)
 8003b36:	f7ff fdd3 	bl	80036e0 <HAL_GetTick>
 8003b3a:	4602      	mov	r2, r0
 8003b3c:	693b      	ldr	r3, [r7, #16]
 8003b3e:	1ad3      	subs	r3, r2, r3
 8003b40:	2b02      	cmp	r3, #2
 8003b42:	d901      	bls.n	8003b48 <HAL_RCC_OscConfig+0x240>
        {
          return HAL_TIMEOUT;
 8003b44:	2303      	movs	r3, #3
 8003b46:	e144      	b.n	8003dd2 <HAL_RCC_OscConfig+0x4ca>
      while(__HAL_RCC_GET_FLAG(RCC_FLAG_LSIRDY) != RESET)
 8003b48:	4b1a      	ldr	r3, [pc, #104]	; (8003bb4 <HAL_RCC_OscConfig+0x2ac>)
 8003b4a:	6f5b      	ldr	r3, [r3, #116]	; 0x74
 8003b4c:	f003 0302 	and.w	r3, r3, #2
 8003b50:	2b00      	cmp	r3, #0
 8003b52:	d1f0      	bne.n	8003b36 <HAL_RCC_OscConfig+0x22e>
        }
      }
    }
  }
  /*------------------------------ LSE Configuration -------------------------*/
  if(((RCC_OscInitStruct->OscillatorType) & RCC_OSCILLATORTYPE_LSE) == RCC_OSCILLATORTYPE_LSE)
 8003b54:	687b      	ldr	r3, [r7, #4]
 8003b56:	681b      	ldr	r3, [r3, #0]
 8003b58:	f003 0304 	and.w	r3, r3, #4
 8003b5c:	2b00      	cmp	r3, #0
 8003b5e:	f000 80a0 	beq.w	8003ca2 <HAL_RCC_OscConfig+0x39a>
  {
    FlagStatus       pwrclkchanged = RESET;
 8003b62:	2300      	movs	r3, #0
 8003b64:	75fb      	strb	r3, [r7, #23]
    /* Check the parameters */
    assert_param(IS_RCC_LSE(RCC_OscInitStruct->LSEState));

    /* Update LSE configuration in Backup Domain control register    */
    /* Requires to enable write access to Backup Domain of necessary */
    if(__HAL_RCC_PWR_IS_CLK_DISABLED())
 8003b66:	4b13      	ldr	r3, [pc, #76]	; (8003bb4 <HAL_RCC_OscConfig+0x2ac>)
 8003b68:	6c1b      	ldr	r3, [r3, #64]	; 0x40
 8003b6a:	f003 5380 	and.w	r3, r3, #268435456	; 0x10000000
 8003b6e:	2b00      	cmp	r3, #0
 8003b70:	d10f      	bne.n	8003b92 <HAL_RCC_OscConfig+0x28a>
    {
      __HAL_RCC_PWR_CLK_ENABLE();
 8003b72:	2300      	movs	r3, #0
 8003b74:	60bb      	str	r3, [r7, #8]
 8003b76:	4b0f      	ldr	r3, [pc, #60]	; (8003bb4 <HAL_RCC_OscConfig+0x2ac>)
 8003b78:	6c1b      	ldr	r3, [r3, #64]	; 0x40
 8003b7a:	4a0e      	ldr	r2, [pc, #56]	; (8003bb4 <HAL_RCC_OscConfig+0x2ac>)
 8003b7c:	f043 5380 	orr.w	r3, r3, #268435456	; 0x10000000
 8003b80:	6413      	str	r3, [r2, #64]	; 0x40
 8003b82:	4b0c      	ldr	r3, [pc, #48]	; (8003bb4 <HAL_RCC_OscConfig+0x2ac>)
 8003b84:	6c1b      	ldr	r3, [r3, #64]	; 0x40
 8003b86:	f003 5380 	and.w	r3, r3, #268435456	; 0x10000000
 8003b8a:	60bb      	str	r3, [r7, #8]
 8003b8c:	68bb      	ldr	r3, [r7, #8]
      pwrclkchanged = SET;
 8003b8e:	2301      	movs	r3, #1
 8003b90:	75fb      	strb	r3, [r7, #23]
    }

    if(HAL_IS_BIT_CLR(PWR->CR, PWR_CR_DBP))
 8003b92:	4b0b      	ldr	r3, [pc, #44]	; (8003bc0 <HAL_RCC_OscConfig+0x2b8>)
 8003b94:	681b      	ldr	r3, [r3, #0]
 8003b96:	f403 7380 	and.w	r3, r3, #256	; 0x100
 8003b9a:	2b00      	cmp	r3, #0
 8003b9c:	d121      	bne.n	8003be2 <HAL_RCC_OscConfig+0x2da>
    {
      /* Enable write access to Backup domain */
      SET_BIT(PWR->CR, PWR_CR_DBP);
 8003b9e:	4b08      	ldr	r3, [pc, #32]	; (8003bc0 <HAL_RCC_OscConfig+0x2b8>)
 8003ba0:	681b      	ldr	r3, [r3, #0]
 8003ba2:	4a07      	ldr	r2, [pc, #28]	; (8003bc0 <HAL_RCC_OscConfig+0x2b8>)
 8003ba4:	f443 7380 	orr.w	r3, r3, #256	; 0x100
 8003ba8:	6013      	str	r3, [r2, #0]

      /* Wait for Backup domain Write protection disable */
      tickstart = HAL_GetTick();
 8003baa:	f7ff fd99 	bl	80036e0 <HAL_GetTick>
 8003bae:	6138      	str	r0, [r7, #16]

      while(HAL_IS_BIT_CLR(PWR->CR, PWR_CR_DBP))
 8003bb0:	e011      	b.n	8003bd6 <HAL_RCC_OscConfig+0x2ce>
 8003bb2:	bf00      	nop
 8003bb4:	40023800 	.word	0x40023800
 8003bb8:	42470000 	.word	0x42470000
 8003bbc:	42470e80 	.word	0x42470e80
 8003bc0:	40007000 	.word	0x40007000
      {
        if((HAL_GetTick() - tickstart) > RCC_DBP_TIMEOUT_VALUE)
 8003bc4:	f7ff fd8c 	bl	80036e0 <HAL_GetTick>
 8003bc8:	4602      	mov	r2, r0
 8003bca:	693b      	ldr	r3, [r7, #16]
 8003bcc:	1ad3      	subs	r3, r2, r3
 8003bce:	2b02      	cmp	r3, #2
 8003bd0:	d901      	bls.n	8003bd6 <HAL_RCC_OscConfig+0x2ce>
        {
          return HAL_TIMEOUT;
 8003bd2:	2303      	movs	r3, #3
 8003bd4:	e0fd      	b.n	8003dd2 <HAL_RCC_OscConfig+0x4ca>
      while(HAL_IS_BIT_CLR(PWR->CR, PWR_CR_DBP))
 8003bd6:	4b81      	ldr	r3, [pc, #516]	; (8003ddc <HAL_RCC_OscConfig+0x4d4>)
 8003bd8:	681b      	ldr	r3, [r3, #0]
 8003bda:	f403 7380 	and.w	r3, r3, #256	; 0x100
 8003bde:	2b00      	cmp	r3, #0
 8003be0:	d0f0      	beq.n	8003bc4 <HAL_RCC_OscConfig+0x2bc>
        }
      }
    }

    /* Set the new LSE configuration -----------------------------------------*/
    __HAL_RCC_LSE_CONFIG(RCC_OscInitStruct->LSEState);
 8003be2:	687b      	ldr	r3, [r7, #4]
 8003be4:	689b      	ldr	r3, [r3, #8]
 8003be6:	2b01      	cmp	r3, #1
 8003be8:	d106      	bne.n	8003bf8 <HAL_RCC_OscConfig+0x2f0>
 8003bea:	4b7d      	ldr	r3, [pc, #500]	; (8003de0 <HAL_RCC_OscConfig+0x4d8>)
 8003bec:	6f1b      	ldr	r3, [r3, #112]	; 0x70
 8003bee:	4a7c      	ldr	r2, [pc, #496]	; (8003de0 <HAL_RCC_OscConfig+0x4d8>)
 8003bf0:	f043 0301 	orr.w	r3, r3, #1
 8003bf4:	6713      	str	r3, [r2, #112]	; 0x70
 8003bf6:	e01c      	b.n	8003c32 <HAL_RCC_OscConfig+0x32a>
 8003bf8:	687b      	ldr	r3, [r7, #4]
 8003bfa:	689b      	ldr	r3, [r3, #8]
 8003bfc:	2b05      	cmp	r3, #5
 8003bfe:	d10c      	bne.n	8003c1a <HAL_RCC_OscConfig+0x312>
 8003c00:	4b77      	ldr	r3, [pc, #476]	; (8003de0 <HAL_RCC_OscConfig+0x4d8>)
 8003c02:	6f1b      	ldr	r3, [r3, #112]	; 0x70
 8003c04:	4a76      	ldr	r2, [pc, #472]	; (8003de0 <HAL_RCC_OscConfig+0x4d8>)
 8003c06:	f043 0304 	orr.w	r3, r3, #4
 8003c0a:	6713      	str	r3, [r2, #112]	; 0x70
 8003c0c:	4b74      	ldr	r3, [pc, #464]	; (8003de0 <HAL_RCC_OscConfig+0x4d8>)
 8003c0e:	6f1b      	ldr	r3, [r3, #112]	; 0x70
 8003c10:	4a73      	ldr	r2, [pc, #460]	; (8003de0 <HAL_RCC_OscConfig+0x4d8>)
 8003c12:	f043 0301 	orr.w	r3, r3, #1
 8003c16:	6713      	str	r3, [r2, #112]	; 0x70
 8003c18:	e00b      	b.n	8003c32 <HAL_RCC_OscConfig+0x32a>
 8003c1a:	4b71      	ldr	r3, [pc, #452]	; (8003de0 <HAL_RCC_OscConfig+0x4d8>)
 8003c1c:	6f1b      	ldr	r3, [r3, #112]	; 0x70
 8003c1e:	4a70      	ldr	r2, [pc, #448]	; (8003de0 <HAL_RCC_OscConfig+0x4d8>)
 8003c20:	f023 0301 	bic.w	r3, r3, #1
 8003c24:	6713      	str	r3, [r2, #112]	; 0x70
 8003c26:	4b6e      	ldr	r3, [pc, #440]	; (8003de0 <HAL_RCC_OscConfig+0x4d8>)
 8003c28:	6f1b      	ldr	r3, [r3, #112]	; 0x70
 8003c2a:	4a6d      	ldr	r2, [pc, #436]	; (8003de0 <HAL_RCC_OscConfig+0x4d8>)
 8003c2c:	f023 0304 	bic.w	r3, r3, #4
 8003c30:	6713      	str	r3, [r2, #112]	; 0x70
    /* Check the LSE State */
    if((RCC_OscInitStruct->LSEState) != RCC_LSE_OFF)
 8003c32:	687b      	ldr	r3, [r7, #4]
 8003c34:	689b      	ldr	r3, [r3, #8]
 8003c36:	2b00      	cmp	r3, #0
 8003c38:	d015      	beq.n	8003c66 <HAL_RCC_OscConfig+0x35e>
    {
      /* Get Start Tick*/
      tickstart = HAL_GetTick();
 8003c3a:	f7ff fd51 	bl	80036e0 <HAL_GetTick>
 8003c3e:	6138      	str	r0, [r7, #16]

      /* Wait till LSE is ready */
      while(__HAL_RCC_GET_FLAG(RCC_FLAG_LSERDY) == RESET)
 8003c40:	e00a      	b.n	8003c58 <HAL_RCC_OscConfig+0x350>
      {
        if((HAL_GetTick() - tickstart ) > RCC_LSE_TIMEOUT_VALUE)
 8003c42:	f7ff fd4d 	bl	80036e0 <HAL_GetTick>
 8003c46:	4602      	mov	r2, r0
 8003c48:	693b      	ldr	r3, [r7, #16]
 8003c4a:	1ad3      	subs	r3, r2, r3
 8003c4c:	f241 3288 	movw	r2, #5000	; 0x1388
 8003c50:	4293      	cmp	r3, r2
 8003c52:	d901      	bls.n	8003c58 <HAL_RCC_OscConfig+0x350>
        {
          return HAL_TIMEOUT;
 8003c54:	2303      	movs	r3, #3
 8003c56:	e0bc      	b.n	8003dd2 <HAL_RCC_OscConfig+0x4ca>
      while(__HAL_RCC_GET_FLAG(RCC_FLAG_LSERDY) == RESET)
 8003c58:	4b61      	ldr	r3, [pc, #388]	; (8003de0 <HAL_RCC_OscConfig+0x4d8>)
 8003c5a:	6f1b      	ldr	r3, [r3, #112]	; 0x70
 8003c5c:	f003 0302 	and.w	r3, r3, #2
 8003c60:	2b00      	cmp	r3, #0
 8003c62:	d0ee      	beq.n	8003c42 <HAL_RCC_OscConfig+0x33a>
 8003c64:	e014      	b.n	8003c90 <HAL_RCC_OscConfig+0x388>
      }
    }
    else
    {
      /* Get Start Tick */
      tickstart = HAL_GetTick();
 8003c66:	f7ff fd3b 	bl	80036e0 <HAL_GetTick>
 8003c6a:	6138      	str	r0, [r7, #16]

      /* Wait till LSE is ready */
      while(__HAL_RCC_GET_FLAG(RCC_FLAG_LSERDY) != RESET)
 8003c6c:	e00a      	b.n	8003c84 <HAL_RCC_OscConfig+0x37c>
      {
        if((HAL_GetTick() - tickstart ) > RCC_LSE_TIMEOUT_VALUE)
 8003c6e:	f7ff fd37 	bl	80036e0 <HAL_GetTick>
 8003c72:	4602      	mov	r2, r0
 8003c74:	693b      	ldr	r3, [r7, #16]
 8003c76:	1ad3      	subs	r3, r2, r3
 8003c78:	f241 3288 	movw	r2, #5000	; 0x1388
 8003c7c:	4293      	cmp	r3, r2
 8003c7e:	d901      	bls.n	8003c84 <HAL_RCC_OscConfig+0x37c>
        {
          return HAL_TIMEOUT;
 8003c80:	2303      	movs	r3, #3
 8003c82:	e0a6      	b.n	8003dd2 <HAL_RCC_OscConfig+0x4ca>
      while(__HAL_RCC_GET_FLAG(RCC_FLAG_LSERDY) != RESET)
 8003c84:	4b56      	ldr	r3, [pc, #344]	; (8003de0 <HAL_RCC_OscConfig+0x4d8>)
 8003c86:	6f1b      	ldr	r3, [r3, #112]	; 0x70
 8003c88:	f003 0302 	and.w	r3, r3, #2
 8003c8c:	2b00      	cmp	r3, #0
 8003c8e:	d1ee      	bne.n	8003c6e <HAL_RCC_OscConfig+0x366>
        }
      }
    }

    /* Restore clock configuration if changed */
    if(pwrclkchanged == SET)
 8003c90:	7dfb      	ldrb	r3, [r7, #23]
 8003c92:	2b01      	cmp	r3, #1
 8003c94:	d105      	bne.n	8003ca2 <HAL_RCC_OscConfig+0x39a>
    {
      __HAL_RCC_PWR_CLK_DISABLE();
 8003c96:	4b52      	ldr	r3, [pc, #328]	; (8003de0 <HAL_RCC_OscConfig+0x4d8>)
 8003c98:	6c1b      	ldr	r3, [r3, #64]	; 0x40
 8003c9a:	4a51      	ldr	r2, [pc, #324]	; (8003de0 <HAL_RCC_OscConfig+0x4d8>)
 8003c9c:	f023 5380 	bic.w	r3, r3, #268435456	; 0x10000000
 8003ca0:	6413      	str	r3, [r2, #64]	; 0x40
    }
  }
  /*-------------------------------- PLL Configuration -----------------------*/
  /* Check the parameters */
  assert_param(IS_RCC_PLL(RCC_OscInitStruct->PLL.PLLState));
  if ((RCC_OscInitStruct->PLL.PLLState) != RCC_PLL_NONE)
 8003ca2:	687b      	ldr	r3, [r7, #4]
 8003ca4:	699b      	ldr	r3, [r3, #24]
 8003ca6:	2b00      	cmp	r3, #0
 8003ca8:	f000 8092 	beq.w	8003dd0 <HAL_RCC_OscConfig+0x4c8>
  {
    /* Check if the PLL is used as system clock or not */
    if(__HAL_RCC_GET_SYSCLK_SOURCE() != RCC_CFGR_SWS_PLL)
 8003cac:	4b4c      	ldr	r3, [pc, #304]	; (8003de0 <HAL_RCC_OscConfig+0x4d8>)
 8003cae:	689b      	ldr	r3, [r3, #8]
 8003cb0:	f003 030c 	and.w	r3, r3, #12
 8003cb4:	2b08      	cmp	r3, #8
 8003cb6:	d05c      	beq.n	8003d72 <HAL_RCC_OscConfig+0x46a>
    {
      if((RCC_OscInitStruct->PLL.PLLState) == RCC_PLL_ON)
 8003cb8:	687b      	ldr	r3, [r7, #4]
 8003cba:	699b      	ldr	r3, [r3, #24]
 8003cbc:	2b02      	cmp	r3, #2
 8003cbe:	d141      	bne.n	8003d44 <HAL_RCC_OscConfig+0x43c>
        assert_param(IS_RCC_PLLN_VALUE(RCC_OscInitStruct->PLL.PLLN));
        assert_param(IS_RCC_PLLP_VALUE(RCC_OscInitStruct->PLL.PLLP));
        assert_param(IS_RCC_PLLQ_VALUE(RCC_OscInitStruct->PLL.PLLQ));

        /* Disable the main PLL. */
        __HAL_RCC_PLL_DISABLE();
 8003cc0:	4b48      	ldr	r3, [pc, #288]	; (8003de4 <HAL_RCC_OscConfig+0x4dc>)
 8003cc2:	2200      	movs	r2, #0
 8003cc4:	601a      	str	r2, [r3, #0]

        /* Get Start Tick */
        tickstart = HAL_GetTick();
 8003cc6:	f7ff fd0b 	bl	80036e0 <HAL_GetTick>
 8003cca:	6138      	str	r0, [r7, #16]

        /* Wait till PLL is ready */
        while(__HAL_RCC_GET_FLAG(RCC_FLAG_PLLRDY) != RESET)
 8003ccc:	e008      	b.n	8003ce0 <HAL_RCC_OscConfig+0x3d8>
        {
          if((HAL_GetTick() - tickstart ) > PLL_TIMEOUT_VALUE)
 8003cce:	f7ff fd07 	bl	80036e0 <HAL_GetTick>
 8003cd2:	4602      	mov	r2, r0
 8003cd4:	693b      	ldr	r3, [r7, #16]
 8003cd6:	1ad3      	subs	r3, r2, r3
 8003cd8:	2b02      	cmp	r3, #2
 8003cda:	d901      	bls.n	8003ce0 <HAL_RCC_OscConfig+0x3d8>
          {
            return HAL_TIMEOUT;
 8003cdc:	2303      	movs	r3, #3
 8003cde:	e078      	b.n	8003dd2 <HAL_RCC_OscConfig+0x4ca>
        while(__HAL_RCC_GET_FLAG(RCC_FLAG_PLLRDY) != RESET)
 8003ce0:	4b3f      	ldr	r3, [pc, #252]	; (8003de0 <HAL_RCC_OscConfig+0x4d8>)
 8003ce2:	681b      	ldr	r3, [r3, #0]
 8003ce4:	f003 7300 	and.w	r3, r3, #33554432	; 0x2000000
 8003ce8:	2b00      	cmp	r3, #0
 8003cea:	d1f0      	bne.n	8003cce <HAL_RCC_OscConfig+0x3c6>
          }
        }

        /* Configure the main PLL clock source, multiplication and division factors. */
        WRITE_REG(RCC->PLLCFGR, (RCC_OscInitStruct->PLL.PLLSource                                            | \
 8003cec:	687b      	ldr	r3, [r7, #4]
 8003cee:	69da      	ldr	r2, [r3, #28]
 8003cf0:	687b      	ldr	r3, [r7, #4]
 8003cf2:	6a1b      	ldr	r3, [r3, #32]
 8003cf4:	431a      	orrs	r2, r3
 8003cf6:	687b      	ldr	r3, [r7, #4]
 8003cf8:	6a5b      	ldr	r3, [r3, #36]	; 0x24
 8003cfa:	019b      	lsls	r3, r3, #6
 8003cfc:	431a      	orrs	r2, r3
 8003cfe:	687b      	ldr	r3, [r7, #4]
 8003d00:	6a9b      	ldr	r3, [r3, #40]	; 0x28
 8003d02:	085b      	lsrs	r3, r3, #1
 8003d04:	3b01      	subs	r3, #1
 8003d06:	041b      	lsls	r3, r3, #16
 8003d08:	431a      	orrs	r2, r3
 8003d0a:	687b      	ldr	r3, [r7, #4]
 8003d0c:	6adb      	ldr	r3, [r3, #44]	; 0x2c
 8003d0e:	061b      	lsls	r3, r3, #24
 8003d10:	4933      	ldr	r1, [pc, #204]	; (8003de0 <HAL_RCC_OscConfig+0x4d8>)
 8003d12:	4313      	orrs	r3, r2
 8003d14:	604b      	str	r3, [r1, #4]
                                 RCC_OscInitStruct->PLL.PLLM                                                 | \
                                 (RCC_OscInitStruct->PLL.PLLN << RCC_PLLCFGR_PLLN_Pos)             | \
                                 (((RCC_OscInitStruct->PLL.PLLP >> 1U) - 1U) << RCC_PLLCFGR_PLLP_Pos) | \
                                 (RCC_OscInitStruct->PLL.PLLQ << RCC_PLLCFGR_PLLQ_Pos)));
        /* Enable the main PLL. */
        __HAL_RCC_PLL_ENABLE();
 8003d16:	4b33      	ldr	r3, [pc, #204]	; (8003de4 <HAL_RCC_OscConfig+0x4dc>)
 8003d18:	2201      	movs	r2, #1
 8003d1a:	601a      	str	r2, [r3, #0]

        /* Get Start Tick */
        tickstart = HAL_GetTick();
 8003d1c:	f7ff fce0 	bl	80036e0 <HAL_GetTick>
 8003d20:	6138      	str	r0, [r7, #16]

        /* Wait till PLL is ready */
        while(__HAL_RCC_GET_FLAG(RCC_FLAG_PLLRDY) == RESET)
 8003d22:	e008      	b.n	8003d36 <HAL_RCC_OscConfig+0x42e>
        {
          if((HAL_GetTick() - tickstart ) > PLL_TIMEOUT_VALUE)
 8003d24:	f7ff fcdc 	bl	80036e0 <HAL_GetTick>
 8003d28:	4602      	mov	r2, r0
 8003d2a:	693b      	ldr	r3, [r7, #16]
 8003d2c:	1ad3      	subs	r3, r2, r3
 8003d2e:	2b02      	cmp	r3, #2
 8003d30:	d901      	bls.n	8003d36 <HAL_RCC_OscConfig+0x42e>
          {
            return HAL_TIMEOUT;
 8003d32:	2303      	movs	r3, #3
 8003d34:	e04d      	b.n	8003dd2 <HAL_RCC_OscConfig+0x4ca>
        while(__HAL_RCC_GET_FLAG(RCC_FLAG_PLLRDY) == RESET)
 8003d36:	4b2a      	ldr	r3, [pc, #168]	; (8003de0 <HAL_RCC_OscConfig+0x4d8>)
 8003d38:	681b      	ldr	r3, [r3, #0]
 8003d3a:	f003 7300 	and.w	r3, r3, #33554432	; 0x2000000
 8003d3e:	2b00      	cmp	r3, #0
 8003d40:	d0f0      	beq.n	8003d24 <HAL_RCC_OscConfig+0x41c>
 8003d42:	e045      	b.n	8003dd0 <HAL_RCC_OscConfig+0x4c8>
        }
      }
      else
      {
        /* Disable the main PLL. */
        __HAL_RCC_PLL_DISABLE();
 8003d44:	4b27      	ldr	r3, [pc, #156]	; (8003de4 <HAL_RCC_OscConfig+0x4dc>)
 8003d46:	2200      	movs	r2, #0
 8003d48:	601a      	str	r2, [r3, #0]

        /* Get Start Tick */
        tickstart = HAL_GetTick();
 8003d4a:	f7ff fcc9 	bl	80036e0 <HAL_GetTick>
 8003d4e:	6138      	str	r0, [r7, #16]

        /* Wait till PLL is ready */
        while(__HAL_RCC_GET_FLAG(RCC_FLAG_PLLRDY) != RESET)
 8003d50:	e008      	b.n	8003d64 <HAL_RCC_OscConfig+0x45c>
        {
          if((HAL_GetTick() - tickstart ) > PLL_TIMEOUT_VALUE)
 8003d52:	f7ff fcc5 	bl	80036e0 <HAL_GetTick>
 8003d56:	4602      	mov	r2, r0
 8003d58:	693b      	ldr	r3, [r7, #16]
 8003d5a:	1ad3      	subs	r3, r2, r3
 8003d5c:	2b02      	cmp	r3, #2
 8003d5e:	d901      	bls.n	8003d64 <HAL_RCC_OscConfig+0x45c>
          {
            return HAL_TIMEOUT;
 8003d60:	2303      	movs	r3, #3
 8003d62:	e036      	b.n	8003dd2 <HAL_RCC_OscConfig+0x4ca>
        while(__HAL_RCC_GET_FLAG(RCC_FLAG_PLLRDY) != RESET)
 8003d64:	4b1e      	ldr	r3, [pc, #120]	; (8003de0 <HAL_RCC_OscConfig+0x4d8>)
 8003d66:	681b      	ldr	r3, [r3, #0]
 8003d68:	f003 7300 	and.w	r3, r3, #33554432	; 0x2000000
 8003d6c:	2b00      	cmp	r3, #0
 8003d6e:	d1f0      	bne.n	8003d52 <HAL_RCC_OscConfig+0x44a>
 8003d70:	e02e      	b.n	8003dd0 <HAL_RCC_OscConfig+0x4c8>
      }
    }
    else
    {
      /* Check if there is a request to disable the PLL used as System clock source */
      if((RCC_OscInitStruct->PLL.PLLState) == RCC_PLL_OFF)
 8003d72:	687b      	ldr	r3, [r7, #4]
 8003d74:	699b      	ldr	r3, [r3, #24]
 8003d76:	2b01      	cmp	r3, #1
 8003d78:	d101      	bne.n	8003d7e <HAL_RCC_OscConfig+0x476>
      {
        return HAL_ERROR;
 8003d7a:	2301      	movs	r3, #1
 8003d7c:	e029      	b.n	8003dd2 <HAL_RCC_OscConfig+0x4ca>
      }
      else
      {
        /* Do not return HAL_ERROR if request repeats the current configuration */
        pll_config = RCC->CFGR;
 8003d7e:	4b18      	ldr	r3, [pc, #96]	; (8003de0 <HAL_RCC_OscConfig+0x4d8>)
 8003d80:	689b      	ldr	r3, [r3, #8]
 8003d82:	60fb      	str	r3, [r7, #12]
        if((READ_BIT(pll_config, RCC_PLLCFGR_PLLSRC) != RCC_OscInitStruct->PLL.PLLSource) ||
 8003d84:	68fb      	ldr	r3, [r7, #12]
 8003d86:	f403 0280 	and.w	r2, r3, #4194304	; 0x400000
 8003d8a:	687b      	ldr	r3, [r7, #4]
 8003d8c:	69db      	ldr	r3, [r3, #28]
 8003d8e:	429a      	cmp	r2, r3
 8003d90:	d11c      	bne.n	8003dcc <HAL_RCC_OscConfig+0x4c4>
           (READ_BIT(pll_config, RCC_PLLCFGR_PLLM) != RCC_OscInitStruct->PLL.PLLM) ||
 8003d92:	68fb      	ldr	r3, [r7, #12]
 8003d94:	f003 023f 	and.w	r2, r3, #63	; 0x3f
 8003d98:	687b      	ldr	r3, [r7, #4]
 8003d9a:	6a1b      	ldr	r3, [r3, #32]
        if((READ_BIT(pll_config, RCC_PLLCFGR_PLLSRC) != RCC_OscInitStruct->PLL.PLLSource) ||
 8003d9c:	429a      	cmp	r2, r3
 8003d9e:	d115      	bne.n	8003dcc <HAL_RCC_OscConfig+0x4c4>
           (READ_BIT(pll_config, RCC_PLLCFGR_PLLN) != RCC_OscInitStruct->PLL.PLLN) ||
 8003da0:	68fa      	ldr	r2, [r7, #12]
 8003da2:	f647 73c0 	movw	r3, #32704	; 0x7fc0
 8003da6:	4013      	ands	r3, r2
 8003da8:	687a      	ldr	r2, [r7, #4]
 8003daa:	6a52      	ldr	r2, [r2, #36]	; 0x24
           (READ_BIT(pll_config, RCC_PLLCFGR_PLLM) != RCC_OscInitStruct->PLL.PLLM) ||
 8003dac:	4293      	cmp	r3, r2
 8003dae:	d10d      	bne.n	8003dcc <HAL_RCC_OscConfig+0x4c4>
           (READ_BIT(pll_config, RCC_PLLCFGR_PLLP) != RCC_OscInitStruct->PLL.PLLP) ||
 8003db0:	68fb      	ldr	r3, [r7, #12]
 8003db2:	f403 3240 	and.w	r2, r3, #196608	; 0x30000
 8003db6:	687b      	ldr	r3, [r7, #4]
 8003db8:	6a9b      	ldr	r3, [r3, #40]	; 0x28
           (READ_BIT(pll_config, RCC_PLLCFGR_PLLN) != RCC_OscInitStruct->PLL.PLLN) ||
 8003dba:	429a      	cmp	r2, r3
 8003dbc:	d106      	bne.n	8003dcc <HAL_RCC_OscConfig+0x4c4>
           (READ_BIT(pll_config, RCC_PLLCFGR_PLLQ) != RCC_OscInitStruct->PLL.PLLQ))
 8003dbe:	68fb      	ldr	r3, [r7, #12]
 8003dc0:	f003 6270 	and.w	r2, r3, #251658240	; 0xf000000
 8003dc4:	687b      	ldr	r3, [r7, #4]
 8003dc6:	6adb      	ldr	r3, [r3, #44]	; 0x2c
           (READ_BIT(pll_config, RCC_PLLCFGR_PLLP) != RCC_OscInitStruct->PLL.PLLP) ||
 8003dc8:	429a      	cmp	r2, r3
 8003dca:	d001      	beq.n	8003dd0 <HAL_RCC_OscConfig+0x4c8>
        {
          return HAL_ERROR;
 8003dcc:	2301      	movs	r3, #1
 8003dce:	e000      	b.n	8003dd2 <HAL_RCC_OscConfig+0x4ca>
        }
      }
    }
  }
  return HAL_OK;
 8003dd0:	2300      	movs	r3, #0
}
 8003dd2:	4618      	mov	r0, r3
 8003dd4:	3718      	adds	r7, #24
 8003dd6:	46bd      	mov	sp, r7
 8003dd8:	bd80      	pop	{r7, pc}
 8003dda:	bf00      	nop
 8003ddc:	40007000 	.word	0x40007000
 8003de0:	40023800 	.word	0x40023800
 8003de4:	42470060 	.word	0x42470060

08003de8 <HAL_RCC_ClockConfig>:
  *         HPRE[3:0] bits to ensure that HCLK not exceed the maximum allowed frequency
  *         (for more details refer to section above "Initialization/de-initialization functions")
  * @retval None
  */
HAL_StatusTypeDef HAL_RCC_ClockConfig(RCC_ClkInitTypeDef  *RCC_ClkInitStruct, uint32_t FLatency)
{
 8003de8:	b580      	push	{r7, lr}
 8003dea:	b084      	sub	sp, #16
 8003dec:	af00      	add	r7, sp, #0
 8003dee:	6078      	str	r0, [r7, #4]
 8003df0:	6039      	str	r1, [r7, #0]
  uint32_t tickstart;

  /* Check Null pointer */
  if(RCC_ClkInitStruct == NULL)
 8003df2:	687b      	ldr	r3, [r7, #4]
 8003df4:	2b00      	cmp	r3, #0
 8003df6:	d101      	bne.n	8003dfc <HAL_RCC_ClockConfig+0x14>
  {
    return HAL_ERROR;
 8003df8:	2301      	movs	r3, #1
 8003dfa:	e0cc      	b.n	8003f96 <HAL_RCC_ClockConfig+0x1ae>
  /* To correctly read data from FLASH memory, the number of wait states (LATENCY)
    must be correctly programmed according to the frequency of the CPU clock
    (HCLK) and the supply voltage of the device. */

  /* Increasing the number of wait states because of higher CPU frequency */
  if(FLatency > __HAL_FLASH_GET_LATENCY())
 8003dfc:	4b68      	ldr	r3, [pc, #416]	; (8003fa0 <HAL_RCC_ClockConfig+0x1b8>)
 8003dfe:	681b      	ldr	r3, [r3, #0]
 8003e00:	f003 030f 	and.w	r3, r3, #15
 8003e04:	683a      	ldr	r2, [r7, #0]
 8003e06:	429a      	cmp	r2, r3
 8003e08:	d90c      	bls.n	8003e24 <HAL_RCC_ClockConfig+0x3c>
  {
    /* Program the new number of wait states to the LATENCY bits in the FLASH_ACR register */
    __HAL_FLASH_SET_LATENCY(FLatency);
 8003e0a:	4b65      	ldr	r3, [pc, #404]	; (8003fa0 <HAL_RCC_ClockConfig+0x1b8>)
 8003e0c:	683a      	ldr	r2, [r7, #0]
 8003e0e:	b2d2      	uxtb	r2, r2
 8003e10:	701a      	strb	r2, [r3, #0]

    /* Check that the new number of wait states is taken into account to access the Flash
    memory by reading the FLASH_ACR register */
    if(__HAL_FLASH_GET_LATENCY() != FLatency)
 8003e12:	4b63      	ldr	r3, [pc, #396]	; (8003fa0 <HAL_RCC_ClockConfig+0x1b8>)
 8003e14:	681b      	ldr	r3, [r3, #0]
 8003e16:	f003 030f 	and.w	r3, r3, #15
 8003e1a:	683a      	ldr	r2, [r7, #0]
 8003e1c:	429a      	cmp	r2, r3
 8003e1e:	d001      	beq.n	8003e24 <HAL_RCC_ClockConfig+0x3c>
    {
      return HAL_ERROR;
 8003e20:	2301      	movs	r3, #1
 8003e22:	e0b8      	b.n	8003f96 <HAL_RCC_ClockConfig+0x1ae>
    }
  }

  /*-------------------------- HCLK Configuration --------------------------*/
  if(((RCC_ClkInitStruct->ClockType) & RCC_CLOCKTYPE_HCLK) == RCC_CLOCKTYPE_HCLK)
 8003e24:	687b      	ldr	r3, [r7, #4]
 8003e26:	681b      	ldr	r3, [r3, #0]
 8003e28:	f003 0302 	and.w	r3, r3, #2
 8003e2c:	2b00      	cmp	r3, #0
 8003e2e:	d020      	beq.n	8003e72 <HAL_RCC_ClockConfig+0x8a>
  {
    /* Set the highest APBx dividers in order to ensure that we do not go through
       a non-spec phase whatever we decrease or increase HCLK. */
    if(((RCC_ClkInitStruct->ClockType) & RCC_CLOCKTYPE_PCLK1) == RCC_CLOCKTYPE_PCLK1)
 8003e30:	687b      	ldr	r3, [r7, #4]
 8003e32:	681b      	ldr	r3, [r3, #0]
 8003e34:	f003 0304 	and.w	r3, r3, #4
 8003e38:	2b00      	cmp	r3, #0
 8003e3a:	d005      	beq.n	8003e48 <HAL_RCC_ClockConfig+0x60>
    {
      MODIFY_REG(RCC->CFGR, RCC_CFGR_PPRE1, RCC_HCLK_DIV16);
 8003e3c:	4b59      	ldr	r3, [pc, #356]	; (8003fa4 <HAL_RCC_ClockConfig+0x1bc>)
 8003e3e:	689b      	ldr	r3, [r3, #8]
 8003e40:	4a58      	ldr	r2, [pc, #352]	; (8003fa4 <HAL_RCC_ClockConfig+0x1bc>)
 8003e42:	f443 53e0 	orr.w	r3, r3, #7168	; 0x1c00
 8003e46:	6093      	str	r3, [r2, #8]
    }

    if(((RCC_ClkInitStruct->ClockType) & RCC_CLOCKTYPE_PCLK2) == RCC_CLOCKTYPE_PCLK2)
 8003e48:	687b      	ldr	r3, [r7, #4]
 8003e4a:	681b      	ldr	r3, [r3, #0]
 8003e4c:	f003 0308 	and.w	r3, r3, #8
 8003e50:	2b00      	cmp	r3, #0
 8003e52:	d005      	beq.n	8003e60 <HAL_RCC_ClockConfig+0x78>
    {
      MODIFY_REG(RCC->CFGR, RCC_CFGR_PPRE2, (RCC_HCLK_DIV16 << 3));
 8003e54:	4b53      	ldr	r3, [pc, #332]	; (8003fa4 <HAL_RCC_ClockConfig+0x1bc>)
 8003e56:	689b      	ldr	r3, [r3, #8]
 8003e58:	4a52      	ldr	r2, [pc, #328]	; (8003fa4 <HAL_RCC_ClockConfig+0x1bc>)
 8003e5a:	f443 4360 	orr.w	r3, r3, #57344	; 0xe000
 8003e5e:	6093      	str	r3, [r2, #8]
    }

    assert_param(IS_RCC_HCLK(RCC_ClkInitStruct->AHBCLKDivider));
    MODIFY_REG(RCC->CFGR, RCC_CFGR_HPRE, RCC_ClkInitStruct->AHBCLKDivider);
 8003e60:	4b50      	ldr	r3, [pc, #320]	; (8003fa4 <HAL_RCC_ClockConfig+0x1bc>)
 8003e62:	689b      	ldr	r3, [r3, #8]
 8003e64:	f023 02f0 	bic.w	r2, r3, #240	; 0xf0
 8003e68:	687b      	ldr	r3, [r7, #4]
 8003e6a:	689b      	ldr	r3, [r3, #8]
 8003e6c:	494d      	ldr	r1, [pc, #308]	; (8003fa4 <HAL_RCC_ClockConfig+0x1bc>)
 8003e6e:	4313      	orrs	r3, r2
 8003e70:	608b      	str	r3, [r1, #8]
  }

  /*------------------------- SYSCLK Configuration ---------------------------*/
  if(((RCC_ClkInitStruct->ClockType) & RCC_CLOCKTYPE_SYSCLK) == RCC_CLOCKTYPE_SYSCLK)
 8003e72:	687b      	ldr	r3, [r7, #4]
 8003e74:	681b      	ldr	r3, [r3, #0]
 8003e76:	f003 0301 	and.w	r3, r3, #1
 8003e7a:	2b00      	cmp	r3, #0
 8003e7c:	d044      	beq.n	8003f08 <HAL_RCC_ClockConfig+0x120>
  {
    assert_param(IS_RCC_SYSCLKSOURCE(RCC_ClkInitStruct->SYSCLKSource));

    /* HSE is selected as System Clock Source */
    if(RCC_ClkInitStruct->SYSCLKSource == RCC_SYSCLKSOURCE_HSE)
 8003e7e:	687b      	ldr	r3, [r7, #4]
 8003e80:	685b      	ldr	r3, [r3, #4]
 8003e82:	2b01      	cmp	r3, #1
 8003e84:	d107      	bne.n	8003e96 <HAL_RCC_ClockConfig+0xae>
    {
      /* Check the HSE ready flag */
      if(__HAL_RCC_GET_FLAG(RCC_FLAG_HSERDY) == RESET)
 8003e86:	4b47      	ldr	r3, [pc, #284]	; (8003fa4 <HAL_RCC_ClockConfig+0x1bc>)
 8003e88:	681b      	ldr	r3, [r3, #0]
 8003e8a:	f403 3300 	and.w	r3, r3, #131072	; 0x20000
 8003e8e:	2b00      	cmp	r3, #0
 8003e90:	d119      	bne.n	8003ec6 <HAL_RCC_ClockConfig+0xde>
      {
        return HAL_ERROR;
 8003e92:	2301      	movs	r3, #1
 8003e94:	e07f      	b.n	8003f96 <HAL_RCC_ClockConfig+0x1ae>
      }
    }
    /* PLL is selected as System Clock Source */
    else if((RCC_ClkInitStruct->SYSCLKSource == RCC_SYSCLKSOURCE_PLLCLK)   ||
 8003e96:	687b      	ldr	r3, [r7, #4]
 8003e98:	685b      	ldr	r3, [r3, #4]
 8003e9a:	2b02      	cmp	r3, #2
 8003e9c:	d003      	beq.n	8003ea6 <HAL_RCC_ClockConfig+0xbe>
            (RCC_ClkInitStruct->SYSCLKSource == RCC_SYSCLKSOURCE_PLLRCLK))
 8003e9e:	687b      	ldr	r3, [r7, #4]
 8003ea0:	685b      	ldr	r3, [r3, #4]
    else if((RCC_ClkInitStruct->SYSCLKSource == RCC_SYSCLKSOURCE_PLLCLK)   ||
 8003ea2:	2b03      	cmp	r3, #3
 8003ea4:	d107      	bne.n	8003eb6 <HAL_RCC_ClockConfig+0xce>
    {
      /* Check the PLL ready flag */
      if(__HAL_RCC_GET_FLAG(RCC_FLAG_PLLRDY) == RESET)
 8003ea6:	4b3f      	ldr	r3, [pc, #252]	; (8003fa4 <HAL_RCC_ClockConfig+0x1bc>)
 8003ea8:	681b      	ldr	r3, [r3, #0]
 8003eaa:	f003 7300 	and.w	r3, r3, #33554432	; 0x2000000
 8003eae:	2b00      	cmp	r3, #0
 8003eb0:	d109      	bne.n	8003ec6 <HAL_RCC_ClockConfig+0xde>
      {
        return HAL_ERROR;
 8003eb2:	2301      	movs	r3, #1
 8003eb4:	e06f      	b.n	8003f96 <HAL_RCC_ClockConfig+0x1ae>
    }
    /* HSI is selected as System Clock Source */
    else
    {
      /* Check the HSI ready flag */
      if(__HAL_RCC_GET_FLAG(RCC_FLAG_HSIRDY) == RESET)
 8003eb6:	4b3b      	ldr	r3, [pc, #236]	; (8003fa4 <HAL_RCC_ClockConfig+0x1bc>)
 8003eb8:	681b      	ldr	r3, [r3, #0]
 8003eba:	f003 0302 	and.w	r3, r3, #2
 8003ebe:	2b00      	cmp	r3, #0
 8003ec0:	d101      	bne.n	8003ec6 <HAL_RCC_ClockConfig+0xde>
      {
        return HAL_ERROR;
 8003ec2:	2301      	movs	r3, #1
 8003ec4:	e067      	b.n	8003f96 <HAL_RCC_ClockConfig+0x1ae>
      }
    }

    __HAL_RCC_SYSCLK_CONFIG(RCC_ClkInitStruct->SYSCLKSource);
 8003ec6:	4b37      	ldr	r3, [pc, #220]	; (8003fa4 <HAL_RCC_ClockConfig+0x1bc>)
 8003ec8:	689b      	ldr	r3, [r3, #8]
 8003eca:	f023 0203 	bic.w	r2, r3, #3
 8003ece:	687b      	ldr	r3, [r7, #4]
 8003ed0:	685b      	ldr	r3, [r3, #4]
 8003ed2:	4934      	ldr	r1, [pc, #208]	; (8003fa4 <HAL_RCC_ClockConfig+0x1bc>)
 8003ed4:	4313      	orrs	r3, r2
 8003ed6:	608b      	str	r3, [r1, #8]

    /* Get Start Tick */
    tickstart = HAL_GetTick();
 8003ed8:	f7ff fc02 	bl	80036e0 <HAL_GetTick>
 8003edc:	60f8      	str	r0, [r7, #12]

    while (__HAL_RCC_GET_SYSCLK_SOURCE() != (RCC_ClkInitStruct->SYSCLKSource << RCC_CFGR_SWS_Pos))
 8003ede:	e00a      	b.n	8003ef6 <HAL_RCC_ClockConfig+0x10e>
    {
      if ((HAL_GetTick() - tickstart) > CLOCKSWITCH_TIMEOUT_VALUE)
 8003ee0:	f7ff fbfe 	bl	80036e0 <HAL_GetTick>
 8003ee4:	4602      	mov	r2, r0
 8003ee6:	68fb      	ldr	r3, [r7, #12]
 8003ee8:	1ad3      	subs	r3, r2, r3
 8003eea:	f241 3288 	movw	r2, #5000	; 0x1388
 8003eee:	4293      	cmp	r3, r2
 8003ef0:	d901      	bls.n	8003ef6 <HAL_RCC_ClockConfig+0x10e>
      {
        return HAL_TIMEOUT;
 8003ef2:	2303      	movs	r3, #3
 8003ef4:	e04f      	b.n	8003f96 <HAL_RCC_ClockConfig+0x1ae>
    while (__HAL_RCC_GET_SYSCLK_SOURCE() != (RCC_ClkInitStruct->SYSCLKSource << RCC_CFGR_SWS_Pos))
 8003ef6:	4b2b      	ldr	r3, [pc, #172]	; (8003fa4 <HAL_RCC_ClockConfig+0x1bc>)
 8003ef8:	689b      	ldr	r3, [r3, #8]
 8003efa:	f003 020c 	and.w	r2, r3, #12
 8003efe:	687b      	ldr	r3, [r7, #4]
 8003f00:	685b      	ldr	r3, [r3, #4]
 8003f02:	009b      	lsls	r3, r3, #2
 8003f04:	429a      	cmp	r2, r3
 8003f06:	d1eb      	bne.n	8003ee0 <HAL_RCC_ClockConfig+0xf8>
      }
    }
  }

  /* Decreasing the number of wait states because of lower CPU frequency */
  if(FLatency < __HAL_FLASH_GET_LATENCY())
 8003f08:	4b25      	ldr	r3, [pc, #148]	; (8003fa0 <HAL_RCC_ClockConfig+0x1b8>)
 8003f0a:	681b      	ldr	r3, [r3, #0]
 8003f0c:	f003 030f 	and.w	r3, r3, #15
 8003f10:	683a      	ldr	r2, [r7, #0]
 8003f12:	429a      	cmp	r2, r3
 8003f14:	d20c      	bcs.n	8003f30 <HAL_RCC_ClockConfig+0x148>
  {
     /* Program the new number of wait states to the LATENCY bits in the FLASH_ACR register */
    __HAL_FLASH_SET_LATENCY(FLatency);
 8003f16:	4b22      	ldr	r3, [pc, #136]	; (8003fa0 <HAL_RCC_ClockConfig+0x1b8>)
 8003f18:	683a      	ldr	r2, [r7, #0]
 8003f1a:	b2d2      	uxtb	r2, r2
 8003f1c:	701a      	strb	r2, [r3, #0]

    /* Check that the new number of wait states is taken into account to access the Flash
    memory by reading the FLASH_ACR register */
    if(__HAL_FLASH_GET_LATENCY() != FLatency)
 8003f1e:	4b20      	ldr	r3, [pc, #128]	; (8003fa0 <HAL_RCC_ClockConfig+0x1b8>)
 8003f20:	681b      	ldr	r3, [r3, #0]
 8003f22:	f003 030f 	and.w	r3, r3, #15
 8003f26:	683a      	ldr	r2, [r7, #0]
 8003f28:	429a      	cmp	r2, r3
 8003f2a:	d001      	beq.n	8003f30 <HAL_RCC_ClockConfig+0x148>
    {
      return HAL_ERROR;
 8003f2c:	2301      	movs	r3, #1
 8003f2e:	e032      	b.n	8003f96 <HAL_RCC_ClockConfig+0x1ae>
    }
  }

  /*-------------------------- PCLK1 Configuration ---------------------------*/
  if(((RCC_ClkInitStruct->ClockType) & RCC_CLOCKTYPE_PCLK1) == RCC_CLOCKTYPE_PCLK1)
 8003f30:	687b      	ldr	r3, [r7, #4]
 8003f32:	681b      	ldr	r3, [r3, #0]
 8003f34:	f003 0304 	and.w	r3, r3, #4
 8003f38:	2b00      	cmp	r3, #0
 8003f3a:	d008      	beq.n	8003f4e <HAL_RCC_ClockConfig+0x166>
  {
    assert_param(IS_RCC_PCLK(RCC_ClkInitStruct->APB1CLKDivider));
    MODIFY_REG(RCC->CFGR, RCC_CFGR_PPRE1, RCC_ClkInitStruct->APB1CLKDivider);
 8003f3c:	4b19      	ldr	r3, [pc, #100]	; (8003fa4 <HAL_RCC_ClockConfig+0x1bc>)
 8003f3e:	689b      	ldr	r3, [r3, #8]
 8003f40:	f423 52e0 	bic.w	r2, r3, #7168	; 0x1c00
 8003f44:	687b      	ldr	r3, [r7, #4]
 8003f46:	68db      	ldr	r3, [r3, #12]
 8003f48:	4916      	ldr	r1, [pc, #88]	; (8003fa4 <HAL_RCC_ClockConfig+0x1bc>)
 8003f4a:	4313      	orrs	r3, r2
 8003f4c:	608b      	str	r3, [r1, #8]
  }

  /*-------------------------- PCLK2 Configuration ---------------------------*/
  if(((RCC_ClkInitStruct->ClockType) & RCC_CLOCKTYPE_PCLK2) == RCC_CLOCKTYPE_PCLK2)
 8003f4e:	687b      	ldr	r3, [r7, #4]
 8003f50:	681b      	ldr	r3, [r3, #0]
 8003f52:	f003 0308 	and.w	r3, r3, #8
 8003f56:	2b00      	cmp	r3, #0
 8003f58:	d009      	beq.n	8003f6e <HAL_RCC_ClockConfig+0x186>
  {
    assert_param(IS_RCC_PCLK(RCC_ClkInitStruct->APB2CLKDivider));
    MODIFY_REG(RCC->CFGR, RCC_CFGR_PPRE2, ((RCC_ClkInitStruct->APB2CLKDivider) << 3U));
 8003f5a:	4b12      	ldr	r3, [pc, #72]	; (8003fa4 <HAL_RCC_ClockConfig+0x1bc>)
 8003f5c:	689b      	ldr	r3, [r3, #8]
 8003f5e:	f423 4260 	bic.w	r2, r3, #57344	; 0xe000
 8003f62:	687b      	ldr	r3, [r7, #4]
 8003f64:	691b      	ldr	r3, [r3, #16]
 8003f66:	00db      	lsls	r3, r3, #3
 8003f68:	490e      	ldr	r1, [pc, #56]	; (8003fa4 <HAL_RCC_ClockConfig+0x1bc>)
 8003f6a:	4313      	orrs	r3, r2
 8003f6c:	608b      	str	r3, [r1, #8]
  }

  /* Update the SystemCoreClock global variable */
  SystemCoreClock = HAL_RCC_GetSysClockFreq() >> AHBPrescTable[(RCC->CFGR & RCC_CFGR_HPRE)>> RCC_CFGR_HPRE_Pos];
 8003f6e:	f000 f821 	bl	8003fb4 <HAL_RCC_GetSysClockFreq>
 8003f72:	4601      	mov	r1, r0
 8003f74:	4b0b      	ldr	r3, [pc, #44]	; (8003fa4 <HAL_RCC_ClockConfig+0x1bc>)
 8003f76:	689b      	ldr	r3, [r3, #8]
 8003f78:	091b      	lsrs	r3, r3, #4
 8003f7a:	f003 030f 	and.w	r3, r3, #15
 8003f7e:	4a0a      	ldr	r2, [pc, #40]	; (8003fa8 <HAL_RCC_ClockConfig+0x1c0>)
 8003f80:	5cd3      	ldrb	r3, [r2, r3]
 8003f82:	fa21 f303 	lsr.w	r3, r1, r3
 8003f86:	4a09      	ldr	r2, [pc, #36]	; (8003fac <HAL_RCC_ClockConfig+0x1c4>)
 8003f88:	6013      	str	r3, [r2, #0]

  /* Configure the source of time base considering new system clocks settings */
  HAL_InitTick (uwTickPrio);
 8003f8a:	4b09      	ldr	r3, [pc, #36]	; (8003fb0 <HAL_RCC_ClockConfig+0x1c8>)
 8003f8c:	681b      	ldr	r3, [r3, #0]
 8003f8e:	4618      	mov	r0, r3
 8003f90:	f7ff fb62 	bl	8003658 <HAL_InitTick>

  return HAL_OK;
 8003f94:	2300      	movs	r3, #0
}
 8003f96:	4618      	mov	r0, r3
 8003f98:	3710      	adds	r7, #16
 8003f9a:	46bd      	mov	sp, r7
 8003f9c:	bd80      	pop	{r7, pc}
 8003f9e:	bf00      	nop
 8003fa0:	40023c00 	.word	0x40023c00
 8003fa4:	40023800 	.word	0x40023800
 8003fa8:	08007bf0 	.word	0x08007bf0
 8003fac:	20000000 	.word	0x20000000
 8003fb0:	20000004 	.word	0x20000004

08003fb4 <HAL_RCC_GetSysClockFreq>:
  *
  *
  * @retval SYSCLK frequency
  */
__weak uint32_t HAL_RCC_GetSysClockFreq(void)
{
 8003fb4:	b5f0      	push	{r4, r5, r6, r7, lr}
 8003fb6:	b085      	sub	sp, #20
 8003fb8:	af00      	add	r7, sp, #0
  uint32_t pllm = 0U, pllvco = 0U, pllp = 0U;
 8003fba:	2300      	movs	r3, #0
 8003fbc:	607b      	str	r3, [r7, #4]
 8003fbe:	2300      	movs	r3, #0
 8003fc0:	60fb      	str	r3, [r7, #12]
 8003fc2:	2300      	movs	r3, #0
 8003fc4:	603b      	str	r3, [r7, #0]
  uint32_t sysclockfreq = 0U;
 8003fc6:	2300      	movs	r3, #0
 8003fc8:	60bb      	str	r3, [r7, #8]

  /* Get SYSCLK source -------------------------------------------------------*/
  switch (RCC->CFGR & RCC_CFGR_SWS)
 8003fca:	4b63      	ldr	r3, [pc, #396]	; (8004158 <HAL_RCC_GetSysClockFreq+0x1a4>)
 8003fcc:	689b      	ldr	r3, [r3, #8]
 8003fce:	f003 030c 	and.w	r3, r3, #12
 8003fd2:	2b04      	cmp	r3, #4
 8003fd4:	d007      	beq.n	8003fe6 <HAL_RCC_GetSysClockFreq+0x32>
 8003fd6:	2b08      	cmp	r3, #8
 8003fd8:	d008      	beq.n	8003fec <HAL_RCC_GetSysClockFreq+0x38>
 8003fda:	2b00      	cmp	r3, #0
 8003fdc:	f040 80b4 	bne.w	8004148 <HAL_RCC_GetSysClockFreq+0x194>
  {
    case RCC_CFGR_SWS_HSI:  /* HSI used as system clock source */
    {
      sysclockfreq = HSI_VALUE;
 8003fe0:	4b5e      	ldr	r3, [pc, #376]	; (800415c <HAL_RCC_GetSysClockFreq+0x1a8>)
 8003fe2:	60bb      	str	r3, [r7, #8]
       break;
 8003fe4:	e0b3      	b.n	800414e <HAL_RCC_GetSysClockFreq+0x19a>
    }
    case RCC_CFGR_SWS_HSE:  /* HSE used as system clock  source */
    {
      sysclockfreq = HSE_VALUE;
 8003fe6:	4b5e      	ldr	r3, [pc, #376]	; (8004160 <HAL_RCC_GetSysClockFreq+0x1ac>)
 8003fe8:	60bb      	str	r3, [r7, #8]
      break;
 8003fea:	e0b0      	b.n	800414e <HAL_RCC_GetSysClockFreq+0x19a>
    }
    case RCC_CFGR_SWS_PLL:  /* PLL used as system clock  source */
    {
      /* PLL_VCO = (HSE_VALUE or HSI_VALUE / PLLM) * PLLN
      SYSCLK = PLL_VCO / PLLP */
      pllm = RCC->PLLCFGR & RCC_PLLCFGR_PLLM;
 8003fec:	4b5a      	ldr	r3, [pc, #360]	; (8004158 <HAL_RCC_GetSysClockFreq+0x1a4>)
 8003fee:	685b      	ldr	r3, [r3, #4]
 8003ff0:	f003 033f 	and.w	r3, r3, #63	; 0x3f
 8003ff4:	607b      	str	r3, [r7, #4]
      if(__HAL_RCC_GET_PLL_OSCSOURCE() != RCC_PLLSOURCE_HSI)
 8003ff6:	4b58      	ldr	r3, [pc, #352]	; (8004158 <HAL_RCC_GetSysClockFreq+0x1a4>)
 8003ff8:	685b      	ldr	r3, [r3, #4]
 8003ffa:	f403 0380 	and.w	r3, r3, #4194304	; 0x400000
 8003ffe:	2b00      	cmp	r3, #0
 8004000:	d04a      	beq.n	8004098 <HAL_RCC_GetSysClockFreq+0xe4>
      {
        /* HSE used as PLL clock source */
        pllvco = (uint32_t) ((((uint64_t) HSE_VALUE * ((uint64_t) ((RCC->PLLCFGR & RCC_PLLCFGR_PLLN) >> RCC_PLLCFGR_PLLN_Pos)))) / (uint64_t)pllm);
 8004002:	4b55      	ldr	r3, [pc, #340]	; (8004158 <HAL_RCC_GetSysClockFreq+0x1a4>)
 8004004:	685b      	ldr	r3, [r3, #4]
 8004006:	099b      	lsrs	r3, r3, #6
 8004008:	f04f 0400 	mov.w	r4, #0
 800400c:	f240 11ff 	movw	r1, #511	; 0x1ff
 8004010:	f04f 0200 	mov.w	r2, #0
 8004014:	ea03 0501 	and.w	r5, r3, r1
 8004018:	ea04 0602 	and.w	r6, r4, r2
 800401c:	4629      	mov	r1, r5
 800401e:	4632      	mov	r2, r6
 8004020:	f04f 0300 	mov.w	r3, #0
 8004024:	f04f 0400 	mov.w	r4, #0
 8004028:	0154      	lsls	r4, r2, #5
 800402a:	ea44 64d1 	orr.w	r4, r4, r1, lsr #27
 800402e:	014b      	lsls	r3, r1, #5
 8004030:	4619      	mov	r1, r3
 8004032:	4622      	mov	r2, r4
 8004034:	1b49      	subs	r1, r1, r5
 8004036:	eb62 0206 	sbc.w	r2, r2, r6
 800403a:	f04f 0300 	mov.w	r3, #0
 800403e:	f04f 0400 	mov.w	r4, #0
 8004042:	0194      	lsls	r4, r2, #6
 8004044:	ea44 6491 	orr.w	r4, r4, r1, lsr #26
 8004048:	018b      	lsls	r3, r1, #6
 800404a:	1a5b      	subs	r3, r3, r1
 800404c:	eb64 0402 	sbc.w	r4, r4, r2
 8004050:	f04f 0100 	mov.w	r1, #0
 8004054:	f04f 0200 	mov.w	r2, #0
 8004058:	00e2      	lsls	r2, r4, #3
 800405a:	ea42 7253 	orr.w	r2, r2, r3, lsr #29
 800405e:	00d9      	lsls	r1, r3, #3
 8004060:	460b      	mov	r3, r1
 8004062:	4614      	mov	r4, r2
 8004064:	195b      	adds	r3, r3, r5
 8004066:	eb44 0406 	adc.w	r4, r4, r6
 800406a:	f04f 0100 	mov.w	r1, #0
 800406e:	f04f 0200 	mov.w	r2, #0
 8004072:	0262      	lsls	r2, r4, #9
 8004074:	ea42 52d3 	orr.w	r2, r2, r3, lsr #23
 8004078:	0259      	lsls	r1, r3, #9
 800407a:	460b      	mov	r3, r1
 800407c:	4614      	mov	r4, r2
 800407e:	4618      	mov	r0, r3
 8004080:	4621      	mov	r1, r4
 8004082:	687b      	ldr	r3, [r7, #4]
 8004084:	f04f 0400 	mov.w	r4, #0
 8004088:	461a      	mov	r2, r3
 800408a:	4623      	mov	r3, r4
 800408c:	f7fc fd8c 	bl	8000ba8 <__aeabi_uldivmod>
 8004090:	4603      	mov	r3, r0
 8004092:	460c      	mov	r4, r1
 8004094:	60fb      	str	r3, [r7, #12]
 8004096:	e049      	b.n	800412c <HAL_RCC_GetSysClockFreq+0x178>
      }
      else
      {
        /* HSI used as PLL clock source */
        pllvco = (uint32_t) ((((uint64_t) HSI_VALUE * ((uint64_t) ((RCC->PLLCFGR & RCC_PLLCFGR_PLLN) >> RCC_PLLCFGR_PLLN_Pos)))) / (uint64_t)pllm);
 8004098:	4b2f      	ldr	r3, [pc, #188]	; (8004158 <HAL_RCC_GetSysClockFreq+0x1a4>)
 800409a:	685b      	ldr	r3, [r3, #4]
 800409c:	099b      	lsrs	r3, r3, #6
 800409e:	f04f 0400 	mov.w	r4, #0
 80040a2:	f240 11ff 	movw	r1, #511	; 0x1ff
 80040a6:	f04f 0200 	mov.w	r2, #0
 80040aa:	ea03 0501 	and.w	r5, r3, r1
 80040ae:	ea04 0602 	and.w	r6, r4, r2
 80040b2:	4629      	mov	r1, r5
 80040b4:	4632      	mov	r2, r6
 80040b6:	f04f 0300 	mov.w	r3, #0
 80040ba:	f04f 0400 	mov.w	r4, #0
 80040be:	0154      	lsls	r4, r2, #5
 80040c0:	ea44 64d1 	orr.w	r4, r4, r1, lsr #27
 80040c4:	014b      	lsls	r3, r1, #5
 80040c6:	4619      	mov	r1, r3
 80040c8:	4622      	mov	r2, r4
 80040ca:	1b49      	subs	r1, r1, r5
 80040cc:	eb62 0206 	sbc.w	r2, r2, r6
 80040d0:	f04f 0300 	mov.w	r3, #0
 80040d4:	f04f 0400 	mov.w	r4, #0
 80040d8:	0194      	lsls	r4, r2, #6
 80040da:	ea44 6491 	orr.w	r4, r4, r1, lsr #26
 80040de:	018b      	lsls	r3, r1, #6
 80040e0:	1a5b      	subs	r3, r3, r1
 80040e2:	eb64 0402 	sbc.w	r4, r4, r2
 80040e6:	f04f 0100 	mov.w	r1, #0
 80040ea:	f04f 0200 	mov.w	r2, #0
 80040ee:	00e2      	lsls	r2, r4, #3
 80040f0:	ea42 7253 	orr.w	r2, r2, r3, lsr #29
 80040f4:	00d9      	lsls	r1, r3, #3
 80040f6:	460b      	mov	r3, r1
 80040f8:	4614      	mov	r4, r2
 80040fa:	195b      	adds	r3, r3, r5
 80040fc:	eb44 0406 	adc.w	r4, r4, r6
 8004100:	f04f 0100 	mov.w	r1, #0
 8004104:	f04f 0200 	mov.w	r2, #0
 8004108:	02a2      	lsls	r2, r4, #10
 800410a:	ea42 5293 	orr.w	r2, r2, r3, lsr #22
 800410e:	0299      	lsls	r1, r3, #10
 8004110:	460b      	mov	r3, r1
 8004112:	4614      	mov	r4, r2
 8004114:	4618      	mov	r0, r3
 8004116:	4621      	mov	r1, r4
 8004118:	687b      	ldr	r3, [r7, #4]
 800411a:	f04f 0400 	mov.w	r4, #0
 800411e:	461a      	mov	r2, r3
 8004120:	4623      	mov	r3, r4
 8004122:	f7fc fd41 	bl	8000ba8 <__aeabi_uldivmod>
 8004126:	4603      	mov	r3, r0
 8004128:	460c      	mov	r4, r1
 800412a:	60fb      	str	r3, [r7, #12]
      }
      pllp = ((((RCC->PLLCFGR & RCC_PLLCFGR_PLLP) >> RCC_PLLCFGR_PLLP_Pos) + 1U) *2U);
 800412c:	4b0a      	ldr	r3, [pc, #40]	; (8004158 <HAL_RCC_GetSysClockFreq+0x1a4>)
 800412e:	685b      	ldr	r3, [r3, #4]
 8004130:	0c1b      	lsrs	r3, r3, #16
 8004132:	f003 0303 	and.w	r3, r3, #3
 8004136:	3301      	adds	r3, #1
 8004138:	005b      	lsls	r3, r3, #1
 800413a:	603b      	str	r3, [r7, #0]

      sysclockfreq = pllvco/pllp;
 800413c:	68fa      	ldr	r2, [r7, #12]
 800413e:	683b      	ldr	r3, [r7, #0]
 8004140:	fbb2 f3f3 	udiv	r3, r2, r3
 8004144:	60bb      	str	r3, [r7, #8]
      break;
 8004146:	e002      	b.n	800414e <HAL_RCC_GetSysClockFreq+0x19a>
    }
    default:
    {
      sysclockfreq = HSI_VALUE;
 8004148:	4b04      	ldr	r3, [pc, #16]	; (800415c <HAL_RCC_GetSysClockFreq+0x1a8>)
 800414a:	60bb      	str	r3, [r7, #8]
      break;
 800414c:	bf00      	nop
    }
  }
  return sysclockfreq;
 800414e:	68bb      	ldr	r3, [r7, #8]
}
 8004150:	4618      	mov	r0, r3
 8004152:	3714      	adds	r7, #20
 8004154:	46bd      	mov	sp, r7
 8004156:	bdf0      	pop	{r4, r5, r6, r7, pc}
 8004158:	40023800 	.word	0x40023800
 800415c:	00f42400 	.word	0x00f42400
 8004160:	007a1200 	.word	0x007a1200

08004164 <LL_GPIO_SetPinMode>:
{
 8004164:	b480      	push	{r7}
 8004166:	b089      	sub	sp, #36	; 0x24
 8004168:	af00      	add	r7, sp, #0
 800416a:	60f8      	str	r0, [r7, #12]
 800416c:	60b9      	str	r1, [r7, #8]
 800416e:	607a      	str	r2, [r7, #4]
  MODIFY_REG(GPIOx->MODER, (GPIO_MODER_MODER0 << (POSITION_VAL(Pin) * 2U)), (Mode << (POSITION_VAL(Pin) * 2U)));
 8004170:	68fb      	ldr	r3, [r7, #12]
 8004172:	681a      	ldr	r2, [r3, #0]
 8004174:	68bb      	ldr	r3, [r7, #8]
 8004176:	617b      	str	r3, [r7, #20]
  uint32_t result;

#if ((defined (__ARM_ARCH_7M__      ) && (__ARM_ARCH_7M__      == 1)) || \
     (defined (__ARM_ARCH_7EM__     ) && (__ARM_ARCH_7EM__     == 1)) || \
     (defined (__ARM_ARCH_8M_MAIN__ ) && (__ARM_ARCH_8M_MAIN__ == 1))    )
   __ASM volatile ("rbit %0, %1" : "=r" (result) : "r" (value) );
 8004178:	697b      	ldr	r3, [r7, #20]
 800417a:	fa93 f3a3 	rbit	r3, r3
 800417e:	613b      	str	r3, [r7, #16]
    result |= value & 1U;
    s--;
  }
  result <<= s;                        /* shift when v's highest bits are zero */
#endif
  return result;
 8004180:	693b      	ldr	r3, [r7, #16]
 8004182:	fab3 f383 	clz	r3, r3
 8004186:	b2db      	uxtb	r3, r3
 8004188:	005b      	lsls	r3, r3, #1
 800418a:	2103      	movs	r1, #3
 800418c:	fa01 f303 	lsl.w	r3, r1, r3
 8004190:	43db      	mvns	r3, r3
 8004192:	401a      	ands	r2, r3
 8004194:	68bb      	ldr	r3, [r7, #8]
 8004196:	61fb      	str	r3, [r7, #28]
   __ASM volatile ("rbit %0, %1" : "=r" (result) : "r" (value) );
 8004198:	69fb      	ldr	r3, [r7, #28]
 800419a:	fa93 f3a3 	rbit	r3, r3
 800419e:	61bb      	str	r3, [r7, #24]
  return result;
 80041a0:	69bb      	ldr	r3, [r7, #24]
 80041a2:	fab3 f383 	clz	r3, r3
 80041a6:	b2db      	uxtb	r3, r3
 80041a8:	005b      	lsls	r3, r3, #1
 80041aa:	6879      	ldr	r1, [r7, #4]
 80041ac:	fa01 f303 	lsl.w	r3, r1, r3
 80041b0:	431a      	orrs	r2, r3
 80041b2:	68fb      	ldr	r3, [r7, #12]
 80041b4:	601a      	str	r2, [r3, #0]
}
 80041b6:	bf00      	nop
 80041b8:	3724      	adds	r7, #36	; 0x24
 80041ba:	46bd      	mov	sp, r7
 80041bc:	f85d 7b04 	ldr.w	r7, [sp], #4
 80041c0:	4770      	bx	lr

080041c2 <LL_GPIO_SetPinOutputType>:
{
 80041c2:	b480      	push	{r7}
 80041c4:	b089      	sub	sp, #36	; 0x24
 80041c6:	af00      	add	r7, sp, #0
 80041c8:	60f8      	str	r0, [r7, #12]
 80041ca:	60b9      	str	r1, [r7, #8]
 80041cc:	607a      	str	r2, [r7, #4]
  MODIFY_REG(GPIOx->OTYPER, (GPIO_OTYPER_OT_0 << POSITION_VAL(Pin)), (OutputType << POSITION_VAL(Pin)));
 80041ce:	68fb      	ldr	r3, [r7, #12]
 80041d0:	685a      	ldr	r2, [r3, #4]
 80041d2:	68bb      	ldr	r3, [r7, #8]
 80041d4:	617b      	str	r3, [r7, #20]
   __ASM volatile ("rbit %0, %1" : "=r" (result) : "r" (value) );
 80041d6:	697b      	ldr	r3, [r7, #20]
 80041d8:	fa93 f3a3 	rbit	r3, r3
 80041dc:	613b      	str	r3, [r7, #16]
  return result;
 80041de:	693b      	ldr	r3, [r7, #16]
 80041e0:	fab3 f383 	clz	r3, r3
 80041e4:	b2db      	uxtb	r3, r3
 80041e6:	4619      	mov	r1, r3
 80041e8:	2301      	movs	r3, #1
 80041ea:	408b      	lsls	r3, r1
 80041ec:	43db      	mvns	r3, r3
 80041ee:	401a      	ands	r2, r3
 80041f0:	68bb      	ldr	r3, [r7, #8]
 80041f2:	61fb      	str	r3, [r7, #28]
   __ASM volatile ("rbit %0, %1" : "=r" (result) : "r" (value) );
 80041f4:	69fb      	ldr	r3, [r7, #28]
 80041f6:	fa93 f3a3 	rbit	r3, r3
 80041fa:	61bb      	str	r3, [r7, #24]
  return result;
 80041fc:	69bb      	ldr	r3, [r7, #24]
 80041fe:	fab3 f383 	clz	r3, r3
 8004202:	b2db      	uxtb	r3, r3
 8004204:	4619      	mov	r1, r3
 8004206:	687b      	ldr	r3, [r7, #4]
 8004208:	408b      	lsls	r3, r1
 800420a:	431a      	orrs	r2, r3
 800420c:	68fb      	ldr	r3, [r7, #12]
 800420e:	605a      	str	r2, [r3, #4]
}
 8004210:	bf00      	nop
 8004212:	3724      	adds	r7, #36	; 0x24
 8004214:	46bd      	mov	sp, r7
 8004216:	f85d 7b04 	ldr.w	r7, [sp], #4
 800421a:	4770      	bx	lr

0800421c <LL_GPIO_SetPinSpeed>:
{
 800421c:	b480      	push	{r7}
 800421e:	b089      	sub	sp, #36	; 0x24
 8004220:	af00      	add	r7, sp, #0
 8004222:	60f8      	str	r0, [r7, #12]
 8004224:	60b9      	str	r1, [r7, #8]
 8004226:	607a      	str	r2, [r7, #4]
  MODIFY_REG(GPIOx->OSPEEDR, (GPIO_OSPEEDER_OSPEEDR0 << (POSITION_VAL(Pin) * 2U)),
 8004228:	68fb      	ldr	r3, [r7, #12]
 800422a:	689a      	ldr	r2, [r3, #8]
 800422c:	68bb      	ldr	r3, [r7, #8]
 800422e:	617b      	str	r3, [r7, #20]
   __ASM volatile ("rbit %0, %1" : "=r" (result) : "r" (value) );
 8004230:	697b      	ldr	r3, [r7, #20]
 8004232:	fa93 f3a3 	rbit	r3, r3
 8004236:	613b      	str	r3, [r7, #16]
  return result;
 8004238:	693b      	ldr	r3, [r7, #16]
 800423a:	fab3 f383 	clz	r3, r3
 800423e:	b2db      	uxtb	r3, r3
 8004240:	005b      	lsls	r3, r3, #1
 8004242:	2103      	movs	r1, #3
 8004244:	fa01 f303 	lsl.w	r3, r1, r3
 8004248:	43db      	mvns	r3, r3
 800424a:	401a      	ands	r2, r3
 800424c:	68bb      	ldr	r3, [r7, #8]
 800424e:	61fb      	str	r3, [r7, #28]
   __ASM volatile ("rbit %0, %1" : "=r" (result) : "r" (value) );
 8004250:	69fb      	ldr	r3, [r7, #28]
 8004252:	fa93 f3a3 	rbit	r3, r3
 8004256:	61bb      	str	r3, [r7, #24]
  return result;
 8004258:	69bb      	ldr	r3, [r7, #24]
 800425a:	fab3 f383 	clz	r3, r3
 800425e:	b2db      	uxtb	r3, r3
 8004260:	005b      	lsls	r3, r3, #1
 8004262:	6879      	ldr	r1, [r7, #4]
 8004264:	fa01 f303 	lsl.w	r3, r1, r3
 8004268:	431a      	orrs	r2, r3
 800426a:	68fb      	ldr	r3, [r7, #12]
 800426c:	609a      	str	r2, [r3, #8]
}
 800426e:	bf00      	nop
 8004270:	3724      	adds	r7, #36	; 0x24
 8004272:	46bd      	mov	sp, r7
 8004274:	f85d 7b04 	ldr.w	r7, [sp], #4
 8004278:	4770      	bx	lr

0800427a <LL_GPIO_SetPinPull>:
{
 800427a:	b480      	push	{r7}
 800427c:	b089      	sub	sp, #36	; 0x24
 800427e:	af00      	add	r7, sp, #0
 8004280:	60f8      	str	r0, [r7, #12]
 8004282:	60b9      	str	r1, [r7, #8]
 8004284:	607a      	str	r2, [r7, #4]
  MODIFY_REG(GPIOx->PUPDR, (GPIO_PUPDR_PUPDR0 << (POSITION_VAL(Pin) * 2U)), (Pull << (POSITION_VAL(Pin) * 2U)));
 8004286:	68fb      	ldr	r3, [r7, #12]
 8004288:	68da      	ldr	r2, [r3, #12]
 800428a:	68bb      	ldr	r3, [r7, #8]
 800428c:	617b      	str	r3, [r7, #20]
   __ASM volatile ("rbit %0, %1" : "=r" (result) : "r" (value) );
 800428e:	697b      	ldr	r3, [r7, #20]
 8004290:	fa93 f3a3 	rbit	r3, r3
 8004294:	613b      	str	r3, [r7, #16]
  return result;
 8004296:	693b      	ldr	r3, [r7, #16]
 8004298:	fab3 f383 	clz	r3, r3
 800429c:	b2db      	uxtb	r3, r3
 800429e:	005b      	lsls	r3, r3, #1
 80042a0:	2103      	movs	r1, #3
 80042a2:	fa01 f303 	lsl.w	r3, r1, r3
 80042a6:	43db      	mvns	r3, r3
 80042a8:	401a      	ands	r2, r3
 80042aa:	68bb      	ldr	r3, [r7, #8]
 80042ac:	61fb      	str	r3, [r7, #28]
   __ASM volatile ("rbit %0, %1" : "=r" (result) : "r" (value) );
 80042ae:	69fb      	ldr	r3, [r7, #28]
 80042b0:	fa93 f3a3 	rbit	r3, r3
 80042b4:	61bb      	str	r3, [r7, #24]
  return result;
 80042b6:	69bb      	ldr	r3, [r7, #24]
 80042b8:	fab3 f383 	clz	r3, r3
 80042bc:	b2db      	uxtb	r3, r3
 80042be:	005b      	lsls	r3, r3, #1
 80042c0:	6879      	ldr	r1, [r7, #4]
 80042c2:	fa01 f303 	lsl.w	r3, r1, r3
 80042c6:	431a      	orrs	r2, r3
 80042c8:	68fb      	ldr	r3, [r7, #12]
 80042ca:	60da      	str	r2, [r3, #12]
}
 80042cc:	bf00      	nop
 80042ce:	3724      	adds	r7, #36	; 0x24
 80042d0:	46bd      	mov	sp, r7
 80042d2:	f85d 7b04 	ldr.w	r7, [sp], #4
 80042d6:	4770      	bx	lr

080042d8 <LL_GPIO_SetAFPin_0_7>:
{
 80042d8:	b480      	push	{r7}
 80042da:	b089      	sub	sp, #36	; 0x24
 80042dc:	af00      	add	r7, sp, #0
 80042de:	60f8      	str	r0, [r7, #12]
 80042e0:	60b9      	str	r1, [r7, #8]
 80042e2:	607a      	str	r2, [r7, #4]
  MODIFY_REG(GPIOx->AFR[0], (GPIO_AFRL_AFSEL0 << (POSITION_VAL(Pin) * 4U)),
 80042e4:	68fb      	ldr	r3, [r7, #12]
 80042e6:	6a1a      	ldr	r2, [r3, #32]
 80042e8:	68bb      	ldr	r3, [r7, #8]
 80042ea:	617b      	str	r3, [r7, #20]
   __ASM volatile ("rbit %0, %1" : "=r" (result) : "r" (value) );
 80042ec:	697b      	ldr	r3, [r7, #20]
 80042ee:	fa93 f3a3 	rbit	r3, r3
 80042f2:	613b      	str	r3, [r7, #16]
  return result;
 80042f4:	693b      	ldr	r3, [r7, #16]
 80042f6:	fab3 f383 	clz	r3, r3
 80042fa:	b2db      	uxtb	r3, r3
 80042fc:	009b      	lsls	r3, r3, #2
 80042fe:	210f      	movs	r1, #15
 8004300:	fa01 f303 	lsl.w	r3, r1, r3
 8004304:	43db      	mvns	r3, r3
 8004306:	401a      	ands	r2, r3
 8004308:	68bb      	ldr	r3, [r7, #8]
 800430a:	61fb      	str	r3, [r7, #28]
   __ASM volatile ("rbit %0, %1" : "=r" (result) : "r" (value) );
 800430c:	69fb      	ldr	r3, [r7, #28]
 800430e:	fa93 f3a3 	rbit	r3, r3
 8004312:	61bb      	str	r3, [r7, #24]
  return result;
 8004314:	69bb      	ldr	r3, [r7, #24]
 8004316:	fab3 f383 	clz	r3, r3
 800431a:	b2db      	uxtb	r3, r3
 800431c:	009b      	lsls	r3, r3, #2
 800431e:	6879      	ldr	r1, [r7, #4]
 8004320:	fa01 f303 	lsl.w	r3, r1, r3
 8004324:	431a      	orrs	r2, r3
 8004326:	68fb      	ldr	r3, [r7, #12]
 8004328:	621a      	str	r2, [r3, #32]
}
 800432a:	bf00      	nop
 800432c:	3724      	adds	r7, #36	; 0x24
 800432e:	46bd      	mov	sp, r7
 8004330:	f85d 7b04 	ldr.w	r7, [sp], #4
 8004334:	4770      	bx	lr

08004336 <LL_GPIO_SetAFPin_8_15>:
{
 8004336:	b480      	push	{r7}
 8004338:	b089      	sub	sp, #36	; 0x24
 800433a:	af00      	add	r7, sp, #0
 800433c:	60f8      	str	r0, [r7, #12]
 800433e:	60b9      	str	r1, [r7, #8]
 8004340:	607a      	str	r2, [r7, #4]
  MODIFY_REG(GPIOx->AFR[1], (GPIO_AFRH_AFSEL8 << (POSITION_VAL(Pin >> 8U) * 4U)),
 8004342:	68fb      	ldr	r3, [r7, #12]
 8004344:	6a5a      	ldr	r2, [r3, #36]	; 0x24
 8004346:	68bb      	ldr	r3, [r7, #8]
 8004348:	0a1b      	lsrs	r3, r3, #8
 800434a:	617b      	str	r3, [r7, #20]
   __ASM volatile ("rbit %0, %1" : "=r" (result) : "r" (value) );
 800434c:	697b      	ldr	r3, [r7, #20]
 800434e:	fa93 f3a3 	rbit	r3, r3
 8004352:	613b      	str	r3, [r7, #16]
  return result;
 8004354:	693b      	ldr	r3, [r7, #16]
 8004356:	fab3 f383 	clz	r3, r3
 800435a:	b2db      	uxtb	r3, r3
 800435c:	009b      	lsls	r3, r3, #2
 800435e:	210f      	movs	r1, #15
 8004360:	fa01 f303 	lsl.w	r3, r1, r3
 8004364:	43db      	mvns	r3, r3
 8004366:	401a      	ands	r2, r3
 8004368:	68bb      	ldr	r3, [r7, #8]
 800436a:	0a1b      	lsrs	r3, r3, #8
 800436c:	61fb      	str	r3, [r7, #28]
   __ASM volatile ("rbit %0, %1" : "=r" (result) : "r" (value) );
 800436e:	69fb      	ldr	r3, [r7, #28]
 8004370:	fa93 f3a3 	rbit	r3, r3
 8004374:	61bb      	str	r3, [r7, #24]
  return result;
 8004376:	69bb      	ldr	r3, [r7, #24]
 8004378:	fab3 f383 	clz	r3, r3
 800437c:	b2db      	uxtb	r3, r3
 800437e:	009b      	lsls	r3, r3, #2
 8004380:	6879      	ldr	r1, [r7, #4]
 8004382:	fa01 f303 	lsl.w	r3, r1, r3
 8004386:	431a      	orrs	r2, r3
 8004388:	68fb      	ldr	r3, [r7, #12]
 800438a:	625a      	str	r2, [r3, #36]	; 0x24
}
 800438c:	bf00      	nop
 800438e:	3724      	adds	r7, #36	; 0x24
 8004390:	46bd      	mov	sp, r7
 8004392:	f85d 7b04 	ldr.w	r7, [sp], #4
 8004396:	4770      	bx	lr

08004398 <LL_GPIO_Init>:
  * @retval An ErrorStatus enumeration value:
  *          - SUCCESS: GPIO registers are initialized according to GPIO_InitStruct content
  *          - ERROR:   Not applicable
  */
ErrorStatus LL_GPIO_Init(GPIO_TypeDef *GPIOx, LL_GPIO_InitTypeDef *GPIO_InitStruct)
{
 8004398:	b580      	push	{r7, lr}
 800439a:	b088      	sub	sp, #32
 800439c:	af00      	add	r7, sp, #0
 800439e:	6078      	str	r0, [r7, #4]
 80043a0:	6039      	str	r1, [r7, #0]
  uint32_t pinpos     = 0x00000000U;
 80043a2:	2300      	movs	r3, #0
 80043a4:	61fb      	str	r3, [r7, #28]
  uint32_t currentpin = 0x00000000U;
 80043a6:	2300      	movs	r3, #0
 80043a8:	61bb      	str	r3, [r7, #24]
  assert_param(IS_LL_GPIO_MODE(GPIO_InitStruct->Mode));
  assert_param(IS_LL_GPIO_PULL(GPIO_InitStruct->Pull));

  /* ------------------------- Configure the port pins ---------------- */
  /* Initialize  pinpos on first pin set */
  pinpos = POSITION_VAL(GPIO_InitStruct->Pin);
 80043aa:	683b      	ldr	r3, [r7, #0]
 80043ac:	681b      	ldr	r3, [r3, #0]
 80043ae:	617b      	str	r3, [r7, #20]
   __ASM volatile ("rbit %0, %1" : "=r" (result) : "r" (value) );
 80043b0:	697b      	ldr	r3, [r7, #20]
 80043b2:	fa93 f3a3 	rbit	r3, r3
 80043b6:	613b      	str	r3, [r7, #16]
  return result;
 80043b8:	693b      	ldr	r3, [r7, #16]
 80043ba:	fab3 f383 	clz	r3, r3
 80043be:	b2db      	uxtb	r3, r3
 80043c0:	61fb      	str	r3, [r7, #28]
  
  /* Configure the port pins */
  while (((GPIO_InitStruct->Pin) >> pinpos) != 0x00000000U)
 80043c2:	e050      	b.n	8004466 <LL_GPIO_Init+0xce>
  {
    /* Get current io position */
    currentpin = (GPIO_InitStruct->Pin) & (0x00000001U << pinpos);
 80043c4:	683b      	ldr	r3, [r7, #0]
 80043c6:	681a      	ldr	r2, [r3, #0]
 80043c8:	2101      	movs	r1, #1
 80043ca:	69fb      	ldr	r3, [r7, #28]
 80043cc:	fa01 f303 	lsl.w	r3, r1, r3
 80043d0:	4013      	ands	r3, r2
 80043d2:	61bb      	str	r3, [r7, #24]
    
    if (currentpin)
 80043d4:	69bb      	ldr	r3, [r7, #24]
 80043d6:	2b00      	cmp	r3, #0
 80043d8:	d042      	beq.n	8004460 <LL_GPIO_Init+0xc8>
    {
      
      if ((GPIO_InitStruct->Mode == LL_GPIO_MODE_OUTPUT) || (GPIO_InitStruct->Mode == LL_GPIO_MODE_ALTERNATE))
 80043da:	683b      	ldr	r3, [r7, #0]
 80043dc:	685b      	ldr	r3, [r3, #4]
 80043de:	2b01      	cmp	r3, #1
 80043e0:	d003      	beq.n	80043ea <LL_GPIO_Init+0x52>
 80043e2:	683b      	ldr	r3, [r7, #0]
 80043e4:	685b      	ldr	r3, [r3, #4]
 80043e6:	2b02      	cmp	r3, #2
 80043e8:	d10d      	bne.n	8004406 <LL_GPIO_Init+0x6e>
      {
        /* Check Speed mode parameters */
        assert_param(IS_LL_GPIO_SPEED(GPIO_InitStruct->Speed));
        
        /* Speed mode configuration */
        LL_GPIO_SetPinSpeed(GPIOx, currentpin, GPIO_InitStruct->Speed);
 80043ea:	683b      	ldr	r3, [r7, #0]
 80043ec:	689b      	ldr	r3, [r3, #8]
 80043ee:	461a      	mov	r2, r3
 80043f0:	69b9      	ldr	r1, [r7, #24]
 80043f2:	6878      	ldr	r0, [r7, #4]
 80043f4:	f7ff ff12 	bl	800421c <LL_GPIO_SetPinSpeed>
        
        /* Check Output mode parameters */
        assert_param(IS_LL_GPIO_OUTPUT_TYPE(GPIO_InitStruct->OutputType));
        
        /* Output mode configuration*/
        LL_GPIO_SetPinOutputType(GPIOx, currentpin, GPIO_InitStruct->OutputType);
 80043f8:	683b      	ldr	r3, [r7, #0]
 80043fa:	68db      	ldr	r3, [r3, #12]
 80043fc:	461a      	mov	r2, r3
 80043fe:	69b9      	ldr	r1, [r7, #24]
 8004400:	6878      	ldr	r0, [r7, #4]
 8004402:	f7ff fede 	bl	80041c2 <LL_GPIO_SetPinOutputType>
      }
      
      /* Pull-up Pull down resistor configuration*/
      LL_GPIO_SetPinPull(GPIOx, currentpin, GPIO_InitStruct->Pull);
 8004406:	683b      	ldr	r3, [r7, #0]
 8004408:	691b      	ldr	r3, [r3, #16]
 800440a:	461a      	mov	r2, r3
 800440c:	69b9      	ldr	r1, [r7, #24]
 800440e:	6878      	ldr	r0, [r7, #4]
 8004410:	f7ff ff33 	bl	800427a <LL_GPIO_SetPinPull>
      
      if (GPIO_InitStruct->Mode == LL_GPIO_MODE_ALTERNATE)
 8004414:	683b      	ldr	r3, [r7, #0]
 8004416:	685b      	ldr	r3, [r3, #4]
 8004418:	2b02      	cmp	r3, #2
 800441a:	d11a      	bne.n	8004452 <LL_GPIO_Init+0xba>
 800441c:	69bb      	ldr	r3, [r7, #24]
 800441e:	60fb      	str	r3, [r7, #12]
   __ASM volatile ("rbit %0, %1" : "=r" (result) : "r" (value) );
 8004420:	68fb      	ldr	r3, [r7, #12]
 8004422:	fa93 f3a3 	rbit	r3, r3
 8004426:	60bb      	str	r3, [r7, #8]
  return result;
 8004428:	68bb      	ldr	r3, [r7, #8]
      {
        /* Check Alternate parameter */
        assert_param(IS_LL_GPIO_ALTERNATE(GPIO_InitStruct->Alternate));
        
        /* Speed mode configuration */
        if (POSITION_VAL(currentpin) < 0x00000008U)
 800442a:	fab3 f383 	clz	r3, r3
 800442e:	b2db      	uxtb	r3, r3
 8004430:	2b07      	cmp	r3, #7
 8004432:	d807      	bhi.n	8004444 <LL_GPIO_Init+0xac>
        {
          LL_GPIO_SetAFPin_0_7(GPIOx, currentpin, GPIO_InitStruct->Alternate);
 8004434:	683b      	ldr	r3, [r7, #0]
 8004436:	695b      	ldr	r3, [r3, #20]
 8004438:	461a      	mov	r2, r3
 800443a:	69b9      	ldr	r1, [r7, #24]
 800443c:	6878      	ldr	r0, [r7, #4]
 800443e:	f7ff ff4b 	bl	80042d8 <LL_GPIO_SetAFPin_0_7>
 8004442:	e006      	b.n	8004452 <LL_GPIO_Init+0xba>
        }
        else
        {
          LL_GPIO_SetAFPin_8_15(GPIOx, currentpin, GPIO_InitStruct->Alternate);
 8004444:	683b      	ldr	r3, [r7, #0]
 8004446:	695b      	ldr	r3, [r3, #20]
 8004448:	461a      	mov	r2, r3
 800444a:	69b9      	ldr	r1, [r7, #24]
 800444c:	6878      	ldr	r0, [r7, #4]
 800444e:	f7ff ff72 	bl	8004336 <LL_GPIO_SetAFPin_8_15>
        }
      }
      
      /* Pin Mode configuration */
      LL_GPIO_SetPinMode(GPIOx, currentpin, GPIO_InitStruct->Mode);
 8004452:	683b      	ldr	r3, [r7, #0]
 8004454:	685b      	ldr	r3, [r3, #4]
 8004456:	461a      	mov	r2, r3
 8004458:	69b9      	ldr	r1, [r7, #24]
 800445a:	6878      	ldr	r0, [r7, #4]
 800445c:	f7ff fe82 	bl	8004164 <LL_GPIO_SetPinMode>
    }
    pinpos++;
 8004460:	69fb      	ldr	r3, [r7, #28]
 8004462:	3301      	adds	r3, #1
 8004464:	61fb      	str	r3, [r7, #28]
  while (((GPIO_InitStruct->Pin) >> pinpos) != 0x00000000U)
 8004466:	683b      	ldr	r3, [r7, #0]
 8004468:	681a      	ldr	r2, [r3, #0]
 800446a:	69fb      	ldr	r3, [r7, #28]
 800446c:	fa22 f303 	lsr.w	r3, r2, r3
 8004470:	2b00      	cmp	r3, #0
 8004472:	d1a7      	bne.n	80043c4 <LL_GPIO_Init+0x2c>
  }

  return (SUCCESS);
 8004474:	2300      	movs	r3, #0
}
 8004476:	4618      	mov	r0, r3
 8004478:	3720      	adds	r7, #32
 800447a:	46bd      	mov	sp, r7
 800447c:	bd80      	pop	{r7, pc}
	...

08004480 <LL_RCC_GetSysClkSource>:
  *         @arg @ref LL_RCC_SYS_CLKSOURCE_STATUS_PLLR (*)
  *
  *         (*) value not defined in all devices.
  */
__STATIC_INLINE uint32_t LL_RCC_GetSysClkSource(void)
{
 8004480:	b480      	push	{r7}
 8004482:	af00      	add	r7, sp, #0
  return (uint32_t)(READ_BIT(RCC->CFGR, RCC_CFGR_SWS));
 8004484:	4b04      	ldr	r3, [pc, #16]	; (8004498 <LL_RCC_GetSysClkSource+0x18>)
 8004486:	689b      	ldr	r3, [r3, #8]
 8004488:	f003 030c 	and.w	r3, r3, #12
}
 800448c:	4618      	mov	r0, r3
 800448e:	46bd      	mov	sp, r7
 8004490:	f85d 7b04 	ldr.w	r7, [sp], #4
 8004494:	4770      	bx	lr
 8004496:	bf00      	nop
 8004498:	40023800 	.word	0x40023800

0800449c <LL_RCC_GetAHBPrescaler>:
  *         @arg @ref LL_RCC_SYSCLK_DIV_128
  *         @arg @ref LL_RCC_SYSCLK_DIV_256
  *         @arg @ref LL_RCC_SYSCLK_DIV_512
  */
__STATIC_INLINE uint32_t LL_RCC_GetAHBPrescaler(void)
{
 800449c:	b480      	push	{r7}
 800449e:	af00      	add	r7, sp, #0
  return (uint32_t)(READ_BIT(RCC->CFGR, RCC_CFGR_HPRE));
 80044a0:	4b04      	ldr	r3, [pc, #16]	; (80044b4 <LL_RCC_GetAHBPrescaler+0x18>)
 80044a2:	689b      	ldr	r3, [r3, #8]
 80044a4:	f003 03f0 	and.w	r3, r3, #240	; 0xf0
}
 80044a8:	4618      	mov	r0, r3
 80044aa:	46bd      	mov	sp, r7
 80044ac:	f85d 7b04 	ldr.w	r7, [sp], #4
 80044b0:	4770      	bx	lr
 80044b2:	bf00      	nop
 80044b4:	40023800 	.word	0x40023800

080044b8 <LL_RCC_GetAPB1Prescaler>:
  *         @arg @ref LL_RCC_APB1_DIV_4
  *         @arg @ref LL_RCC_APB1_DIV_8
  *         @arg @ref LL_RCC_APB1_DIV_16
  */
__STATIC_INLINE uint32_t LL_RCC_GetAPB1Prescaler(void)
{
 80044b8:	b480      	push	{r7}
 80044ba:	af00      	add	r7, sp, #0
  return (uint32_t)(READ_BIT(RCC->CFGR, RCC_CFGR_PPRE1));
 80044bc:	4b04      	ldr	r3, [pc, #16]	; (80044d0 <LL_RCC_GetAPB1Prescaler+0x18>)
 80044be:	689b      	ldr	r3, [r3, #8]
 80044c0:	f403 53e0 	and.w	r3, r3, #7168	; 0x1c00
}
 80044c4:	4618      	mov	r0, r3
 80044c6:	46bd      	mov	sp, r7
 80044c8:	f85d 7b04 	ldr.w	r7, [sp], #4
 80044cc:	4770      	bx	lr
 80044ce:	bf00      	nop
 80044d0:	40023800 	.word	0x40023800

080044d4 <LL_RCC_GetAPB2Prescaler>:
  *         @arg @ref LL_RCC_APB2_DIV_4
  *         @arg @ref LL_RCC_APB2_DIV_8
  *         @arg @ref LL_RCC_APB2_DIV_16
  */
__STATIC_INLINE uint32_t LL_RCC_GetAPB2Prescaler(void)
{
 80044d4:	b480      	push	{r7}
 80044d6:	af00      	add	r7, sp, #0
  return (uint32_t)(READ_BIT(RCC->CFGR, RCC_CFGR_PPRE2));
 80044d8:	4b04      	ldr	r3, [pc, #16]	; (80044ec <LL_RCC_GetAPB2Prescaler+0x18>)
 80044da:	689b      	ldr	r3, [r3, #8]
 80044dc:	f403 4360 	and.w	r3, r3, #57344	; 0xe000
}
 80044e0:	4618      	mov	r0, r3
 80044e2:	46bd      	mov	sp, r7
 80044e4:	f85d 7b04 	ldr.w	r7, [sp], #4
 80044e8:	4770      	bx	lr
 80044ea:	bf00      	nop
 80044ec:	40023800 	.word	0x40023800

080044f0 <LL_RCC_PLL_GetMainSource>:
  * @retval Returned value can be one of the following values:
  *         @arg @ref LL_RCC_PLLSOURCE_HSI
  *         @arg @ref LL_RCC_PLLSOURCE_HSE
  */
__STATIC_INLINE uint32_t LL_RCC_PLL_GetMainSource(void)
{
 80044f0:	b480      	push	{r7}
 80044f2:	af00      	add	r7, sp, #0
  return (uint32_t)(READ_BIT(RCC->PLLCFGR, RCC_PLLCFGR_PLLSRC));
 80044f4:	4b04      	ldr	r3, [pc, #16]	; (8004508 <LL_RCC_PLL_GetMainSource+0x18>)
 80044f6:	685b      	ldr	r3, [r3, #4]
 80044f8:	f403 0380 	and.w	r3, r3, #4194304	; 0x400000
}
 80044fc:	4618      	mov	r0, r3
 80044fe:	46bd      	mov	sp, r7
 8004500:	f85d 7b04 	ldr.w	r7, [sp], #4
 8004504:	4770      	bx	lr
 8004506:	bf00      	nop
 8004508:	40023800 	.word	0x40023800

0800450c <LL_RCC_PLL_GetN>:
  * @retval Between 50/192(*) and 432
  *
  *         (*) value not defined in all devices.
  */
__STATIC_INLINE uint32_t LL_RCC_PLL_GetN(void)
{
 800450c:	b480      	push	{r7}
 800450e:	af00      	add	r7, sp, #0
  return (uint32_t)(READ_BIT(RCC->PLLCFGR, RCC_PLLCFGR_PLLN) >>  RCC_PLLCFGR_PLLN_Pos);
 8004510:	4b04      	ldr	r3, [pc, #16]	; (8004524 <LL_RCC_PLL_GetN+0x18>)
 8004512:	685b      	ldr	r3, [r3, #4]
 8004514:	099b      	lsrs	r3, r3, #6
 8004516:	f3c3 0308 	ubfx	r3, r3, #0, #9
}
 800451a:	4618      	mov	r0, r3
 800451c:	46bd      	mov	sp, r7
 800451e:	f85d 7b04 	ldr.w	r7, [sp], #4
 8004522:	4770      	bx	lr
 8004524:	40023800 	.word	0x40023800

08004528 <LL_RCC_PLL_GetP>:
  *         @arg @ref LL_RCC_PLLP_DIV_4
  *         @arg @ref LL_RCC_PLLP_DIV_6
  *         @arg @ref LL_RCC_PLLP_DIV_8
  */
__STATIC_INLINE uint32_t LL_RCC_PLL_GetP(void)
{
 8004528:	b480      	push	{r7}
 800452a:	af00      	add	r7, sp, #0
  return (uint32_t)(READ_BIT(RCC->PLLCFGR, RCC_PLLCFGR_PLLP));
 800452c:	4b04      	ldr	r3, [pc, #16]	; (8004540 <LL_RCC_PLL_GetP+0x18>)
 800452e:	685b      	ldr	r3, [r3, #4]
 8004530:	f403 3340 	and.w	r3, r3, #196608	; 0x30000
}
 8004534:	4618      	mov	r0, r3
 8004536:	46bd      	mov	sp, r7
 8004538:	f85d 7b04 	ldr.w	r7, [sp], #4
 800453c:	4770      	bx	lr
 800453e:	bf00      	nop
 8004540:	40023800 	.word	0x40023800

08004544 <LL_RCC_PLL_GetDivider>:
  *         @arg @ref LL_RCC_PLLM_DIV_61
  *         @arg @ref LL_RCC_PLLM_DIV_62
  *         @arg @ref LL_RCC_PLLM_DIV_63
  */
__STATIC_INLINE uint32_t LL_RCC_PLL_GetDivider(void)
{
 8004544:	b480      	push	{r7}
 8004546:	af00      	add	r7, sp, #0
  return (uint32_t)(READ_BIT(RCC->PLLCFGR, RCC_PLLCFGR_PLLM));
 8004548:	4b04      	ldr	r3, [pc, #16]	; (800455c <LL_RCC_PLL_GetDivider+0x18>)
 800454a:	685b      	ldr	r3, [r3, #4]
 800454c:	f003 033f 	and.w	r3, r3, #63	; 0x3f
}
 8004550:	4618      	mov	r0, r3
 8004552:	46bd      	mov	sp, r7
 8004554:	f85d 7b04 	ldr.w	r7, [sp], #4
 8004558:	4770      	bx	lr
 800455a:	bf00      	nop
 800455c:	40023800 	.word	0x40023800

08004560 <LL_RCC_GetSystemClocksFreq>:
  *         configuration based on this function will be incorrect.
  * @param  RCC_Clocks pointer to a @ref LL_RCC_ClocksTypeDef structure which will hold the clocks frequencies
  * @retval None
  */
void LL_RCC_GetSystemClocksFreq(LL_RCC_ClocksTypeDef *RCC_Clocks)
{
 8004560:	b580      	push	{r7, lr}
 8004562:	b082      	sub	sp, #8
 8004564:	af00      	add	r7, sp, #0
 8004566:	6078      	str	r0, [r7, #4]
  /* Get SYSCLK frequency */
  RCC_Clocks->SYSCLK_Frequency = RCC_GetSystemClockFreq();
 8004568:	f000 f820 	bl	80045ac <RCC_GetSystemClockFreq>
 800456c:	4602      	mov	r2, r0
 800456e:	687b      	ldr	r3, [r7, #4]
 8004570:	601a      	str	r2, [r3, #0]

  /* HCLK clock frequency */
  RCC_Clocks->HCLK_Frequency   = RCC_GetHCLKClockFreq(RCC_Clocks->SYSCLK_Frequency);
 8004572:	687b      	ldr	r3, [r7, #4]
 8004574:	681b      	ldr	r3, [r3, #0]
 8004576:	4618      	mov	r0, r3
 8004578:	f000 f83e 	bl	80045f8 <RCC_GetHCLKClockFreq>
 800457c:	4602      	mov	r2, r0
 800457e:	687b      	ldr	r3, [r7, #4]
 8004580:	605a      	str	r2, [r3, #4]

  /* PCLK1 clock frequency */
  RCC_Clocks->PCLK1_Frequency  = RCC_GetPCLK1ClockFreq(RCC_Clocks->HCLK_Frequency);
 8004582:	687b      	ldr	r3, [r7, #4]
 8004584:	685b      	ldr	r3, [r3, #4]
 8004586:	4618      	mov	r0, r3
 8004588:	f000 f84c 	bl	8004624 <RCC_GetPCLK1ClockFreq>
 800458c:	4602      	mov	r2, r0
 800458e:	687b      	ldr	r3, [r7, #4]
 8004590:	609a      	str	r2, [r3, #8]

  /* PCLK2 clock frequency */
  RCC_Clocks->PCLK2_Frequency  = RCC_GetPCLK2ClockFreq(RCC_Clocks->HCLK_Frequency);
 8004592:	687b      	ldr	r3, [r7, #4]
 8004594:	685b      	ldr	r3, [r3, #4]
 8004596:	4618      	mov	r0, r3
 8004598:	f000 f858 	bl	800464c <RCC_GetPCLK2ClockFreq>
 800459c:	4602      	mov	r2, r0
 800459e:	687b      	ldr	r3, [r7, #4]
 80045a0:	60da      	str	r2, [r3, #12]
}
 80045a2:	bf00      	nop
 80045a4:	3708      	adds	r7, #8
 80045a6:	46bd      	mov	sp, r7
 80045a8:	bd80      	pop	{r7, pc}
	...

080045ac <RCC_GetSystemClockFreq>:
/**
  * @brief  Return SYSTEM clock frequency
  * @retval SYSTEM clock frequency (in Hz)
  */
uint32_t RCC_GetSystemClockFreq(void)
{
 80045ac:	b580      	push	{r7, lr}
 80045ae:	b082      	sub	sp, #8
 80045b0:	af00      	add	r7, sp, #0
  uint32_t frequency = 0U;
 80045b2:	2300      	movs	r3, #0
 80045b4:	607b      	str	r3, [r7, #4]

  /* Get SYSCLK source -------------------------------------------------------*/
  switch (LL_RCC_GetSysClkSource())
 80045b6:	f7ff ff63 	bl	8004480 <LL_RCC_GetSysClkSource>
 80045ba:	4603      	mov	r3, r0
 80045bc:	2b04      	cmp	r3, #4
 80045be:	d006      	beq.n	80045ce <RCC_GetSystemClockFreq+0x22>
 80045c0:	2b08      	cmp	r3, #8
 80045c2:	d007      	beq.n	80045d4 <RCC_GetSystemClockFreq+0x28>
 80045c4:	2b00      	cmp	r3, #0
 80045c6:	d10a      	bne.n	80045de <RCC_GetSystemClockFreq+0x32>
  {
    case LL_RCC_SYS_CLKSOURCE_STATUS_HSI:  /* HSI used as system clock  source */
      frequency = HSI_VALUE;
 80045c8:	4b09      	ldr	r3, [pc, #36]	; (80045f0 <RCC_GetSystemClockFreq+0x44>)
 80045ca:	607b      	str	r3, [r7, #4]
      break;
 80045cc:	e00a      	b.n	80045e4 <RCC_GetSystemClockFreq+0x38>

    case LL_RCC_SYS_CLKSOURCE_STATUS_HSE:  /* HSE used as system clock  source */
      frequency = HSE_VALUE;
 80045ce:	4b09      	ldr	r3, [pc, #36]	; (80045f4 <RCC_GetSystemClockFreq+0x48>)
 80045d0:	607b      	str	r3, [r7, #4]
      break;
 80045d2:	e007      	b.n	80045e4 <RCC_GetSystemClockFreq+0x38>

    case LL_RCC_SYS_CLKSOURCE_STATUS_PLL:  /* PLL used as system clock  source */
      frequency = RCC_PLL_GetFreqDomain_SYS(LL_RCC_SYS_CLKSOURCE_STATUS_PLL);
 80045d4:	2008      	movs	r0, #8
 80045d6:	f000 f84d 	bl	8004674 <RCC_PLL_GetFreqDomain_SYS>
 80045da:	6078      	str	r0, [r7, #4]
      break;
 80045dc:	e002      	b.n	80045e4 <RCC_GetSystemClockFreq+0x38>
      frequency = RCC_PLL_GetFreqDomain_SYS(LL_RCC_SYS_CLKSOURCE_STATUS_PLLR);
      break;
#endif /* RCC_PLLR_SYSCLK_SUPPORT */

    default:
      frequency = HSI_VALUE;
 80045de:	4b04      	ldr	r3, [pc, #16]	; (80045f0 <RCC_GetSystemClockFreq+0x44>)
 80045e0:	607b      	str	r3, [r7, #4]
      break;
 80045e2:	bf00      	nop
  }

  return frequency;
 80045e4:	687b      	ldr	r3, [r7, #4]
}
 80045e6:	4618      	mov	r0, r3
 80045e8:	3708      	adds	r7, #8
 80045ea:	46bd      	mov	sp, r7
 80045ec:	bd80      	pop	{r7, pc}
 80045ee:	bf00      	nop
 80045f0:	00f42400 	.word	0x00f42400
 80045f4:	007a1200 	.word	0x007a1200

080045f8 <RCC_GetHCLKClockFreq>:
  * @brief  Return HCLK clock frequency
  * @param  SYSCLK_Frequency SYSCLK clock frequency
  * @retval HCLK clock frequency (in Hz)
  */
uint32_t RCC_GetHCLKClockFreq(uint32_t SYSCLK_Frequency)
{
 80045f8:	b580      	push	{r7, lr}
 80045fa:	b082      	sub	sp, #8
 80045fc:	af00      	add	r7, sp, #0
 80045fe:	6078      	str	r0, [r7, #4]
  /* HCLK clock frequency */
  return __LL_RCC_CALC_HCLK_FREQ(SYSCLK_Frequency, LL_RCC_GetAHBPrescaler());
 8004600:	f7ff ff4c 	bl	800449c <LL_RCC_GetAHBPrescaler>
 8004604:	4603      	mov	r3, r0
 8004606:	091b      	lsrs	r3, r3, #4
 8004608:	f003 030f 	and.w	r3, r3, #15
 800460c:	4a04      	ldr	r2, [pc, #16]	; (8004620 <RCC_GetHCLKClockFreq+0x28>)
 800460e:	5cd3      	ldrb	r3, [r2, r3]
 8004610:	461a      	mov	r2, r3
 8004612:	687b      	ldr	r3, [r7, #4]
 8004614:	40d3      	lsrs	r3, r2
}
 8004616:	4618      	mov	r0, r3
 8004618:	3708      	adds	r7, #8
 800461a:	46bd      	mov	sp, r7
 800461c:	bd80      	pop	{r7, pc}
 800461e:	bf00      	nop
 8004620:	08007bf0 	.word	0x08007bf0

08004624 <RCC_GetPCLK1ClockFreq>:
  * @brief  Return PCLK1 clock frequency
  * @param  HCLK_Frequency HCLK clock frequency
  * @retval PCLK1 clock frequency (in Hz)
  */
uint32_t RCC_GetPCLK1ClockFreq(uint32_t HCLK_Frequency)
{
 8004624:	b580      	push	{r7, lr}
 8004626:	b082      	sub	sp, #8
 8004628:	af00      	add	r7, sp, #0
 800462a:	6078      	str	r0, [r7, #4]
  /* PCLK1 clock frequency */
  return __LL_RCC_CALC_PCLK1_FREQ(HCLK_Frequency, LL_RCC_GetAPB1Prescaler());
 800462c:	f7ff ff44 	bl	80044b8 <LL_RCC_GetAPB1Prescaler>
 8004630:	4603      	mov	r3, r0
 8004632:	0a9b      	lsrs	r3, r3, #10
 8004634:	4a04      	ldr	r2, [pc, #16]	; (8004648 <RCC_GetPCLK1ClockFreq+0x24>)
 8004636:	5cd3      	ldrb	r3, [r2, r3]
 8004638:	461a      	mov	r2, r3
 800463a:	687b      	ldr	r3, [r7, #4]
 800463c:	40d3      	lsrs	r3, r2
}
 800463e:	4618      	mov	r0, r3
 8004640:	3708      	adds	r7, #8
 8004642:	46bd      	mov	sp, r7
 8004644:	bd80      	pop	{r7, pc}
 8004646:	bf00      	nop
 8004648:	08007c00 	.word	0x08007c00

0800464c <RCC_GetPCLK2ClockFreq>:
  * @brief  Return PCLK2 clock frequency
  * @param  HCLK_Frequency HCLK clock frequency
  * @retval PCLK2 clock frequency (in Hz)
  */
uint32_t RCC_GetPCLK2ClockFreq(uint32_t HCLK_Frequency)
{
 800464c:	b580      	push	{r7, lr}
 800464e:	b082      	sub	sp, #8
 8004650:	af00      	add	r7, sp, #0
 8004652:	6078      	str	r0, [r7, #4]
  /* PCLK2 clock frequency */
  return __LL_RCC_CALC_PCLK2_FREQ(HCLK_Frequency, LL_RCC_GetAPB2Prescaler());
 8004654:	f7ff ff3e 	bl	80044d4 <LL_RCC_GetAPB2Prescaler>
 8004658:	4603      	mov	r3, r0
 800465a:	0b5b      	lsrs	r3, r3, #13
 800465c:	4a04      	ldr	r2, [pc, #16]	; (8004670 <RCC_GetPCLK2ClockFreq+0x24>)
 800465e:	5cd3      	ldrb	r3, [r2, r3]
 8004660:	461a      	mov	r2, r3
 8004662:	687b      	ldr	r3, [r7, #4]
 8004664:	40d3      	lsrs	r3, r2
}
 8004666:	4618      	mov	r0, r3
 8004668:	3708      	adds	r7, #8
 800466a:	46bd      	mov	sp, r7
 800466c:	bd80      	pop	{r7, pc}
 800466e:	bf00      	nop
 8004670:	08007c00 	.word	0x08007c00

08004674 <RCC_PLL_GetFreqDomain_SYS>:
  * @brief  Return PLL clock frequency used for system domain
  * @param  SYSCLK_Source System clock source
  * @retval PLL clock frequency (in Hz)
  */
uint32_t RCC_PLL_GetFreqDomain_SYS(uint32_t SYSCLK_Source)
{
 8004674:	b590      	push	{r4, r7, lr}
 8004676:	b087      	sub	sp, #28
 8004678:	af00      	add	r7, sp, #0
 800467a:	6078      	str	r0, [r7, #4]
  uint32_t pllinputfreq = 0U, pllsource = 0U, plloutputfreq = 0U;
 800467c:	2300      	movs	r3, #0
 800467e:	617b      	str	r3, [r7, #20]
 8004680:	2300      	movs	r3, #0
 8004682:	60fb      	str	r3, [r7, #12]
 8004684:	2300      	movs	r3, #0
 8004686:	613b      	str	r3, [r7, #16]

  /* PLL_VCO = (HSE_VALUE or HSI_VALUE / PLLM) * PLLN
     SYSCLK = PLL_VCO / (PLLP or PLLR)
  */
  pllsource = LL_RCC_PLL_GetMainSource();
 8004688:	f7ff ff32 	bl	80044f0 <LL_RCC_PLL_GetMainSource>
 800468c:	60f8      	str	r0, [r7, #12]

  switch (pllsource)
 800468e:	68fb      	ldr	r3, [r7, #12]
 8004690:	2b00      	cmp	r3, #0
 8004692:	d003      	beq.n	800469c <RCC_PLL_GetFreqDomain_SYS+0x28>
 8004694:	f5b3 0f80 	cmp.w	r3, #4194304	; 0x400000
 8004698:	d003      	beq.n	80046a2 <RCC_PLL_GetFreqDomain_SYS+0x2e>
 800469a:	e005      	b.n	80046a8 <RCC_PLL_GetFreqDomain_SYS+0x34>
  {
    case LL_RCC_PLLSOURCE_HSI:  /* HSI used as PLL clock source */
      pllinputfreq = HSI_VALUE;
 800469c:	4b12      	ldr	r3, [pc, #72]	; (80046e8 <RCC_PLL_GetFreqDomain_SYS+0x74>)
 800469e:	617b      	str	r3, [r7, #20]
      break;
 80046a0:	e005      	b.n	80046ae <RCC_PLL_GetFreqDomain_SYS+0x3a>

    case LL_RCC_PLLSOURCE_HSE:  /* HSE used as PLL clock source */
      pllinputfreq = HSE_VALUE;
 80046a2:	4b12      	ldr	r3, [pc, #72]	; (80046ec <RCC_PLL_GetFreqDomain_SYS+0x78>)
 80046a4:	617b      	str	r3, [r7, #20]
      break;
 80046a6:	e002      	b.n	80046ae <RCC_PLL_GetFreqDomain_SYS+0x3a>

    default:
      pllinputfreq = HSI_VALUE;
 80046a8:	4b0f      	ldr	r3, [pc, #60]	; (80046e8 <RCC_PLL_GetFreqDomain_SYS+0x74>)
 80046aa:	617b      	str	r3, [r7, #20]
      break;
 80046ac:	bf00      	nop
  }

  if (SYSCLK_Source == LL_RCC_SYS_CLKSOURCE_STATUS_PLL)
 80046ae:	687b      	ldr	r3, [r7, #4]
 80046b0:	2b08      	cmp	r3, #8
 80046b2:	d113      	bne.n	80046dc <RCC_PLL_GetFreqDomain_SYS+0x68>
  {
    plloutputfreq = __LL_RCC_CALC_PLLCLK_FREQ(pllinputfreq, LL_RCC_PLL_GetDivider(),
 80046b4:	f7ff ff46 	bl	8004544 <LL_RCC_PLL_GetDivider>
 80046b8:	4602      	mov	r2, r0
 80046ba:	697b      	ldr	r3, [r7, #20]
 80046bc:	fbb3 f4f2 	udiv	r4, r3, r2
 80046c0:	f7ff ff24 	bl	800450c <LL_RCC_PLL_GetN>
 80046c4:	4603      	mov	r3, r0
 80046c6:	fb03 f404 	mul.w	r4, r3, r4
 80046ca:	f7ff ff2d 	bl	8004528 <LL_RCC_PLL_GetP>
 80046ce:	4603      	mov	r3, r0
 80046d0:	0c1b      	lsrs	r3, r3, #16
 80046d2:	3301      	adds	r3, #1
 80046d4:	005b      	lsls	r3, r3, #1
 80046d6:	fbb4 f3f3 	udiv	r3, r4, r3
 80046da:	613b      	str	r3, [r7, #16]
    plloutputfreq = __LL_RCC_CALC_PLLRCLK_FREQ(pllinputfreq, LL_RCC_PLL_GetDivider(),
                                        LL_RCC_PLL_GetN(), LL_RCC_PLL_GetR());
  }
#endif /* RCC_PLLR_SYSCLK_SUPPORT */

  return plloutputfreq;
 80046dc:	693b      	ldr	r3, [r7, #16]
}
 80046de:	4618      	mov	r0, r3
 80046e0:	371c      	adds	r7, #28
 80046e2:	46bd      	mov	sp, r7
 80046e4:	bd90      	pop	{r4, r7, pc}
 80046e6:	bf00      	nop
 80046e8:	00f42400 	.word	0x00f42400
 80046ec:	007a1200 	.word	0x007a1200

080046f0 <LL_SPI_IsEnabled>:
{
 80046f0:	b480      	push	{r7}
 80046f2:	b083      	sub	sp, #12
 80046f4:	af00      	add	r7, sp, #0
 80046f6:	6078      	str	r0, [r7, #4]
  return ((READ_BIT(SPIx->CR1, SPI_CR1_SPE) == (SPI_CR1_SPE)) ? 1UL : 0UL);
 80046f8:	687b      	ldr	r3, [r7, #4]
 80046fa:	681b      	ldr	r3, [r3, #0]
 80046fc:	f003 0340 	and.w	r3, r3, #64	; 0x40
 8004700:	2b40      	cmp	r3, #64	; 0x40
 8004702:	d101      	bne.n	8004708 <LL_SPI_IsEnabled+0x18>
 8004704:	2301      	movs	r3, #1
 8004706:	e000      	b.n	800470a <LL_SPI_IsEnabled+0x1a>
 8004708:	2300      	movs	r3, #0
}
 800470a:	4618      	mov	r0, r3
 800470c:	370c      	adds	r7, #12
 800470e:	46bd      	mov	sp, r7
 8004710:	f85d 7b04 	ldr.w	r7, [sp], #4
 8004714:	4770      	bx	lr

08004716 <LL_SPI_SetCRCPolynomial>:
{
 8004716:	b480      	push	{r7}
 8004718:	b083      	sub	sp, #12
 800471a:	af00      	add	r7, sp, #0
 800471c:	6078      	str	r0, [r7, #4]
 800471e:	6039      	str	r1, [r7, #0]
  WRITE_REG(SPIx->CRCPR, (uint16_t)CRCPoly);
 8004720:	683b      	ldr	r3, [r7, #0]
 8004722:	b29b      	uxth	r3, r3
 8004724:	461a      	mov	r2, r3
 8004726:	687b      	ldr	r3, [r7, #4]
 8004728:	611a      	str	r2, [r3, #16]
}
 800472a:	bf00      	nop
 800472c:	370c      	adds	r7, #12
 800472e:	46bd      	mov	sp, r7
 8004730:	f85d 7b04 	ldr.w	r7, [sp], #4
 8004734:	4770      	bx	lr

08004736 <LL_SPI_Init>:
  * @param  SPIx SPI Instance
  * @param  SPI_InitStruct pointer to a @ref LL_SPI_InitTypeDef structure
  * @retval An ErrorStatus enumeration value. (Return always SUCCESS)
  */
ErrorStatus LL_SPI_Init(SPI_TypeDef *SPIx, LL_SPI_InitTypeDef *SPI_InitStruct)
{
 8004736:	b580      	push	{r7, lr}
 8004738:	b084      	sub	sp, #16
 800473a:	af00      	add	r7, sp, #0
 800473c:	6078      	str	r0, [r7, #4]
 800473e:	6039      	str	r1, [r7, #0]
  ErrorStatus status = ERROR;
 8004740:	2301      	movs	r3, #1
 8004742:	73fb      	strb	r3, [r7, #15]
  assert_param(IS_LL_SPI_NSS(SPI_InitStruct->NSS));
  assert_param(IS_LL_SPI_BAUDRATE(SPI_InitStruct->BaudRate));
  assert_param(IS_LL_SPI_BITORDER(SPI_InitStruct->BitOrder));
  assert_param(IS_LL_SPI_CRCCALCULATION(SPI_InitStruct->CRCCalculation));

  if (LL_SPI_IsEnabled(SPIx) == 0x00000000U)
 8004744:	6878      	ldr	r0, [r7, #4]
 8004746:	f7ff ffd3 	bl	80046f0 <LL_SPI_IsEnabled>
 800474a:	4603      	mov	r3, r0
 800474c:	2b00      	cmp	r3, #0
 800474e:	d139      	bne.n	80047c4 <LL_SPI_Init+0x8e>
     * - NSS management:     SPI_CR1_SSM bit
     * - BaudRate prescaler: SPI_CR1_BR[2:0] bits
     * - BitOrder:           SPI_CR1_LSBFIRST bit
     * - CRCCalculation:     SPI_CR1_CRCEN bit
     */
    MODIFY_REG(SPIx->CR1,
 8004750:	687b      	ldr	r3, [r7, #4]
 8004752:	681b      	ldr	r3, [r3, #0]
 8004754:	f423 437f 	bic.w	r3, r3, #65280	; 0xff00
 8004758:	f023 03bf 	bic.w	r3, r3, #191	; 0xbf
 800475c:	683a      	ldr	r2, [r7, #0]
 800475e:	6811      	ldr	r1, [r2, #0]
 8004760:	683a      	ldr	r2, [r7, #0]
 8004762:	6852      	ldr	r2, [r2, #4]
 8004764:	4311      	orrs	r1, r2
 8004766:	683a      	ldr	r2, [r7, #0]
 8004768:	6892      	ldr	r2, [r2, #8]
 800476a:	4311      	orrs	r1, r2
 800476c:	683a      	ldr	r2, [r7, #0]
 800476e:	68d2      	ldr	r2, [r2, #12]
 8004770:	4311      	orrs	r1, r2
 8004772:	683a      	ldr	r2, [r7, #0]
 8004774:	6912      	ldr	r2, [r2, #16]
 8004776:	4311      	orrs	r1, r2
 8004778:	683a      	ldr	r2, [r7, #0]
 800477a:	6952      	ldr	r2, [r2, #20]
 800477c:	4311      	orrs	r1, r2
 800477e:	683a      	ldr	r2, [r7, #0]
 8004780:	6992      	ldr	r2, [r2, #24]
 8004782:	4311      	orrs	r1, r2
 8004784:	683a      	ldr	r2, [r7, #0]
 8004786:	69d2      	ldr	r2, [r2, #28]
 8004788:	4311      	orrs	r1, r2
 800478a:	683a      	ldr	r2, [r7, #0]
 800478c:	6a12      	ldr	r2, [r2, #32]
 800478e:	430a      	orrs	r2, r1
 8004790:	431a      	orrs	r2, r3
 8004792:	687b      	ldr	r3, [r7, #4]
 8004794:	601a      	str	r2, [r3, #0]

    /*---------------------------- SPIx CR2 Configuration ------------------------
     * Configure SPIx CR2 with parameters:
     * - NSS management:     SSOE bit
     */
    MODIFY_REG(SPIx->CR2, SPI_CR2_SSOE, (SPI_InitStruct->NSS >> 16U));
 8004796:	687b      	ldr	r3, [r7, #4]
 8004798:	685b      	ldr	r3, [r3, #4]
 800479a:	f023 0204 	bic.w	r2, r3, #4
 800479e:	683b      	ldr	r3, [r7, #0]
 80047a0:	695b      	ldr	r3, [r3, #20]
 80047a2:	0c1b      	lsrs	r3, r3, #16
 80047a4:	431a      	orrs	r2, r3
 80047a6:	687b      	ldr	r3, [r7, #4]
 80047a8:	605a      	str	r2, [r3, #4]

    /*---------------------------- SPIx CRCPR Configuration ----------------------
     * Configure SPIx CRCPR with parameters:
     * - CRCPoly:            CRCPOLY[15:0] bits
     */
    if (SPI_InitStruct->CRCCalculation == LL_SPI_CRCCALCULATION_ENABLE)
 80047aa:	683b      	ldr	r3, [r7, #0]
 80047ac:	6a1b      	ldr	r3, [r3, #32]
 80047ae:	f5b3 5f00 	cmp.w	r3, #8192	; 0x2000
 80047b2:	d105      	bne.n	80047c0 <LL_SPI_Init+0x8a>
    {
      assert_param(IS_LL_SPI_CRC_POLYNOMIAL(SPI_InitStruct->CRCPoly));
      LL_SPI_SetCRCPolynomial(SPIx, SPI_InitStruct->CRCPoly);
 80047b4:	683b      	ldr	r3, [r7, #0]
 80047b6:	6a5b      	ldr	r3, [r3, #36]	; 0x24
 80047b8:	4619      	mov	r1, r3
 80047ba:	6878      	ldr	r0, [r7, #4]
 80047bc:	f7ff ffab 	bl	8004716 <LL_SPI_SetCRCPolynomial>
    }
    status = SUCCESS;
 80047c0:	2300      	movs	r3, #0
 80047c2:	73fb      	strb	r3, [r7, #15]
  }

  /* Activate the SPI mode (Reset I2SMOD bit in I2SCFGR register) */
  CLEAR_BIT(SPIx->I2SCFGR, SPI_I2SCFGR_I2SMOD);
 80047c4:	687b      	ldr	r3, [r7, #4]
 80047c6:	69db      	ldr	r3, [r3, #28]
 80047c8:	f423 6200 	bic.w	r2, r3, #2048	; 0x800
 80047cc:	687b      	ldr	r3, [r7, #4]
 80047ce:	61da      	str	r2, [r3, #28]
  return status;
 80047d0:	7bfb      	ldrb	r3, [r7, #15]
}
 80047d2:	4618      	mov	r0, r3
 80047d4:	3710      	adds	r7, #16
 80047d6:	46bd      	mov	sp, r7
 80047d8:	bd80      	pop	{r7, pc}

080047da <LL_TIM_SetPrescaler>:
{
 80047da:	b480      	push	{r7}
 80047dc:	b083      	sub	sp, #12
 80047de:	af00      	add	r7, sp, #0
 80047e0:	6078      	str	r0, [r7, #4]
 80047e2:	6039      	str	r1, [r7, #0]
  WRITE_REG(TIMx->PSC, Prescaler);
 80047e4:	687b      	ldr	r3, [r7, #4]
 80047e6:	683a      	ldr	r2, [r7, #0]
 80047e8:	629a      	str	r2, [r3, #40]	; 0x28
}
 80047ea:	bf00      	nop
 80047ec:	370c      	adds	r7, #12
 80047ee:	46bd      	mov	sp, r7
 80047f0:	f85d 7b04 	ldr.w	r7, [sp], #4
 80047f4:	4770      	bx	lr

080047f6 <LL_TIM_SetAutoReload>:
{
 80047f6:	b480      	push	{r7}
 80047f8:	b083      	sub	sp, #12
 80047fa:	af00      	add	r7, sp, #0
 80047fc:	6078      	str	r0, [r7, #4]
 80047fe:	6039      	str	r1, [r7, #0]
  WRITE_REG(TIMx->ARR, AutoReload);
 8004800:	687b      	ldr	r3, [r7, #4]
 8004802:	683a      	ldr	r2, [r7, #0]
 8004804:	62da      	str	r2, [r3, #44]	; 0x2c
}
 8004806:	bf00      	nop
 8004808:	370c      	adds	r7, #12
 800480a:	46bd      	mov	sp, r7
 800480c:	f85d 7b04 	ldr.w	r7, [sp], #4
 8004810:	4770      	bx	lr

08004812 <LL_TIM_SetRepetitionCounter>:
{
 8004812:	b480      	push	{r7}
 8004814:	b083      	sub	sp, #12
 8004816:	af00      	add	r7, sp, #0
 8004818:	6078      	str	r0, [r7, #4]
 800481a:	6039      	str	r1, [r7, #0]
  WRITE_REG(TIMx->RCR, RepetitionCounter);
 800481c:	687b      	ldr	r3, [r7, #4]
 800481e:	683a      	ldr	r2, [r7, #0]
 8004820:	631a      	str	r2, [r3, #48]	; 0x30
}
 8004822:	bf00      	nop
 8004824:	370c      	adds	r7, #12
 8004826:	46bd      	mov	sp, r7
 8004828:	f85d 7b04 	ldr.w	r7, [sp], #4
 800482c:	4770      	bx	lr

0800482e <LL_TIM_OC_SetCompareCH1>:
{
 800482e:	b480      	push	{r7}
 8004830:	b083      	sub	sp, #12
 8004832:	af00      	add	r7, sp, #0
 8004834:	6078      	str	r0, [r7, #4]
 8004836:	6039      	str	r1, [r7, #0]
  WRITE_REG(TIMx->CCR1, CompareValue);
 8004838:	687b      	ldr	r3, [r7, #4]
 800483a:	683a      	ldr	r2, [r7, #0]
 800483c:	635a      	str	r2, [r3, #52]	; 0x34
}
 800483e:	bf00      	nop
 8004840:	370c      	adds	r7, #12
 8004842:	46bd      	mov	sp, r7
 8004844:	f85d 7b04 	ldr.w	r7, [sp], #4
 8004848:	4770      	bx	lr

0800484a <LL_TIM_OC_SetCompareCH2>:
{
 800484a:	b480      	push	{r7}
 800484c:	b083      	sub	sp, #12
 800484e:	af00      	add	r7, sp, #0
 8004850:	6078      	str	r0, [r7, #4]
 8004852:	6039      	str	r1, [r7, #0]
  WRITE_REG(TIMx->CCR2, CompareValue);
 8004854:	687b      	ldr	r3, [r7, #4]
 8004856:	683a      	ldr	r2, [r7, #0]
 8004858:	639a      	str	r2, [r3, #56]	; 0x38
}
 800485a:	bf00      	nop
 800485c:	370c      	adds	r7, #12
 800485e:	46bd      	mov	sp, r7
 8004860:	f85d 7b04 	ldr.w	r7, [sp], #4
 8004864:	4770      	bx	lr

08004866 <LL_TIM_OC_SetCompareCH3>:
{
 8004866:	b480      	push	{r7}
 8004868:	b083      	sub	sp, #12
 800486a:	af00      	add	r7, sp, #0
 800486c:	6078      	str	r0, [r7, #4]
 800486e:	6039      	str	r1, [r7, #0]
  WRITE_REG(TIMx->CCR3, CompareValue);
 8004870:	687b      	ldr	r3, [r7, #4]
 8004872:	683a      	ldr	r2, [r7, #0]
 8004874:	63da      	str	r2, [r3, #60]	; 0x3c
}
 8004876:	bf00      	nop
 8004878:	370c      	adds	r7, #12
 800487a:	46bd      	mov	sp, r7
 800487c:	f85d 7b04 	ldr.w	r7, [sp], #4
 8004880:	4770      	bx	lr

08004882 <LL_TIM_OC_SetCompareCH4>:
{
 8004882:	b480      	push	{r7}
 8004884:	b083      	sub	sp, #12
 8004886:	af00      	add	r7, sp, #0
 8004888:	6078      	str	r0, [r7, #4]
 800488a:	6039      	str	r1, [r7, #0]
  WRITE_REG(TIMx->CCR4, CompareValue);
 800488c:	687b      	ldr	r3, [r7, #4]
 800488e:	683a      	ldr	r2, [r7, #0]
 8004890:	641a      	str	r2, [r3, #64]	; 0x40
}
 8004892:	bf00      	nop
 8004894:	370c      	adds	r7, #12
 8004896:	46bd      	mov	sp, r7
 8004898:	f85d 7b04 	ldr.w	r7, [sp], #4
 800489c:	4770      	bx	lr

0800489e <LL_TIM_GenerateEvent_UPDATE>:
  * @rmtoll EGR          UG            LL_TIM_GenerateEvent_UPDATE
  * @param  TIMx Timer instance
  * @retval None
  */
__STATIC_INLINE void LL_TIM_GenerateEvent_UPDATE(TIM_TypeDef *TIMx)
{
 800489e:	b480      	push	{r7}
 80048a0:	b083      	sub	sp, #12
 80048a2:	af00      	add	r7, sp, #0
 80048a4:	6078      	str	r0, [r7, #4]
  SET_BIT(TIMx->EGR, TIM_EGR_UG);
 80048a6:	687b      	ldr	r3, [r7, #4]
 80048a8:	695b      	ldr	r3, [r3, #20]
 80048aa:	f043 0201 	orr.w	r2, r3, #1
 80048ae:	687b      	ldr	r3, [r7, #4]
 80048b0:	615a      	str	r2, [r3, #20]
}
 80048b2:	bf00      	nop
 80048b4:	370c      	adds	r7, #12
 80048b6:	46bd      	mov	sp, r7
 80048b8:	f85d 7b04 	ldr.w	r7, [sp], #4
 80048bc:	4770      	bx	lr
	...

080048c0 <LL_TIM_Init>:
  * @retval An ErrorStatus enumeration value:
  *          - SUCCESS: TIMx registers are de-initialized
  *          - ERROR: not applicable
  */
ErrorStatus LL_TIM_Init(TIM_TypeDef *TIMx, LL_TIM_InitTypeDef *TIM_InitStruct)
{
 80048c0:	b580      	push	{r7, lr}
 80048c2:	b084      	sub	sp, #16
 80048c4:	af00      	add	r7, sp, #0
 80048c6:	6078      	str	r0, [r7, #4]
 80048c8:	6039      	str	r1, [r7, #0]
  /* Check the parameters */
  assert_param(IS_TIM_INSTANCE(TIMx));
  assert_param(IS_LL_TIM_COUNTERMODE(TIM_InitStruct->CounterMode));
  assert_param(IS_LL_TIM_CLOCKDIVISION(TIM_InitStruct->ClockDivision));

  tmpcr1 = LL_TIM_ReadReg(TIMx, CR1);
 80048ca:	687b      	ldr	r3, [r7, #4]
 80048cc:	681b      	ldr	r3, [r3, #0]
 80048ce:	60fb      	str	r3, [r7, #12]

  if (IS_TIM_COUNTER_MODE_SELECT_INSTANCE(TIMx))
 80048d0:	687b      	ldr	r3, [r7, #4]
 80048d2:	4a3d      	ldr	r2, [pc, #244]	; (80049c8 <LL_TIM_Init+0x108>)
 80048d4:	4293      	cmp	r3, r2
 80048d6:	d013      	beq.n	8004900 <LL_TIM_Init+0x40>
 80048d8:	687b      	ldr	r3, [r7, #4]
 80048da:	f1b3 4f80 	cmp.w	r3, #1073741824	; 0x40000000
 80048de:	d00f      	beq.n	8004900 <LL_TIM_Init+0x40>
 80048e0:	687b      	ldr	r3, [r7, #4]
 80048e2:	4a3a      	ldr	r2, [pc, #232]	; (80049cc <LL_TIM_Init+0x10c>)
 80048e4:	4293      	cmp	r3, r2
 80048e6:	d00b      	beq.n	8004900 <LL_TIM_Init+0x40>
 80048e8:	687b      	ldr	r3, [r7, #4]
 80048ea:	4a39      	ldr	r2, [pc, #228]	; (80049d0 <LL_TIM_Init+0x110>)
 80048ec:	4293      	cmp	r3, r2
 80048ee:	d007      	beq.n	8004900 <LL_TIM_Init+0x40>
 80048f0:	687b      	ldr	r3, [r7, #4]
 80048f2:	4a38      	ldr	r2, [pc, #224]	; (80049d4 <LL_TIM_Init+0x114>)
 80048f4:	4293      	cmp	r3, r2
 80048f6:	d003      	beq.n	8004900 <LL_TIM_Init+0x40>
 80048f8:	687b      	ldr	r3, [r7, #4]
 80048fa:	4a37      	ldr	r2, [pc, #220]	; (80049d8 <LL_TIM_Init+0x118>)
 80048fc:	4293      	cmp	r3, r2
 80048fe:	d106      	bne.n	800490e <LL_TIM_Init+0x4e>
  {
    /* Select the Counter Mode */
    MODIFY_REG(tmpcr1, (TIM_CR1_DIR | TIM_CR1_CMS), TIM_InitStruct->CounterMode);
 8004900:	68fb      	ldr	r3, [r7, #12]
 8004902:	f023 0270 	bic.w	r2, r3, #112	; 0x70
 8004906:	683b      	ldr	r3, [r7, #0]
 8004908:	685b      	ldr	r3, [r3, #4]
 800490a:	4313      	orrs	r3, r2
 800490c:	60fb      	str	r3, [r7, #12]
  }

  if (IS_TIM_CLOCK_DIVISION_INSTANCE(TIMx))
 800490e:	687b      	ldr	r3, [r7, #4]
 8004910:	4a2d      	ldr	r2, [pc, #180]	; (80049c8 <LL_TIM_Init+0x108>)
 8004912:	4293      	cmp	r3, r2
 8004914:	d02b      	beq.n	800496e <LL_TIM_Init+0xae>
 8004916:	687b      	ldr	r3, [r7, #4]
 8004918:	f1b3 4f80 	cmp.w	r3, #1073741824	; 0x40000000
 800491c:	d027      	beq.n	800496e <LL_TIM_Init+0xae>
 800491e:	687b      	ldr	r3, [r7, #4]
 8004920:	4a2a      	ldr	r2, [pc, #168]	; (80049cc <LL_TIM_Init+0x10c>)
 8004922:	4293      	cmp	r3, r2
 8004924:	d023      	beq.n	800496e <LL_TIM_Init+0xae>
 8004926:	687b      	ldr	r3, [r7, #4]
 8004928:	4a29      	ldr	r2, [pc, #164]	; (80049d0 <LL_TIM_Init+0x110>)
 800492a:	4293      	cmp	r3, r2
 800492c:	d01f      	beq.n	800496e <LL_TIM_Init+0xae>
 800492e:	687b      	ldr	r3, [r7, #4]
 8004930:	4a28      	ldr	r2, [pc, #160]	; (80049d4 <LL_TIM_Init+0x114>)
 8004932:	4293      	cmp	r3, r2
 8004934:	d01b      	beq.n	800496e <LL_TIM_Init+0xae>
 8004936:	687b      	ldr	r3, [r7, #4]
 8004938:	4a27      	ldr	r2, [pc, #156]	; (80049d8 <LL_TIM_Init+0x118>)
 800493a:	4293      	cmp	r3, r2
 800493c:	d017      	beq.n	800496e <LL_TIM_Init+0xae>
 800493e:	687b      	ldr	r3, [r7, #4]
 8004940:	4a26      	ldr	r2, [pc, #152]	; (80049dc <LL_TIM_Init+0x11c>)
 8004942:	4293      	cmp	r3, r2
 8004944:	d013      	beq.n	800496e <LL_TIM_Init+0xae>
 8004946:	687b      	ldr	r3, [r7, #4]
 8004948:	4a25      	ldr	r2, [pc, #148]	; (80049e0 <LL_TIM_Init+0x120>)
 800494a:	4293      	cmp	r3, r2
 800494c:	d00f      	beq.n	800496e <LL_TIM_Init+0xae>
 800494e:	687b      	ldr	r3, [r7, #4]
 8004950:	4a24      	ldr	r2, [pc, #144]	; (80049e4 <LL_TIM_Init+0x124>)
 8004952:	4293      	cmp	r3, r2
 8004954:	d00b      	beq.n	800496e <LL_TIM_Init+0xae>
 8004956:	687b      	ldr	r3, [r7, #4]
 8004958:	4a23      	ldr	r2, [pc, #140]	; (80049e8 <LL_TIM_Init+0x128>)
 800495a:	4293      	cmp	r3, r2
 800495c:	d007      	beq.n	800496e <LL_TIM_Init+0xae>
 800495e:	687b      	ldr	r3, [r7, #4]
 8004960:	4a22      	ldr	r2, [pc, #136]	; (80049ec <LL_TIM_Init+0x12c>)
 8004962:	4293      	cmp	r3, r2
 8004964:	d003      	beq.n	800496e <LL_TIM_Init+0xae>
 8004966:	687b      	ldr	r3, [r7, #4]
 8004968:	4a21      	ldr	r2, [pc, #132]	; (80049f0 <LL_TIM_Init+0x130>)
 800496a:	4293      	cmp	r3, r2
 800496c:	d106      	bne.n	800497c <LL_TIM_Init+0xbc>
  {
    /* Set the clock division */
    MODIFY_REG(tmpcr1, TIM_CR1_CKD, TIM_InitStruct->ClockDivision);
 800496e:	68fb      	ldr	r3, [r7, #12]
 8004970:	f423 7240 	bic.w	r2, r3, #768	; 0x300
 8004974:	683b      	ldr	r3, [r7, #0]
 8004976:	68db      	ldr	r3, [r3, #12]
 8004978:	4313      	orrs	r3, r2
 800497a:	60fb      	str	r3, [r7, #12]
  }

  /* Write to TIMx CR1 */
  LL_TIM_WriteReg(TIMx, CR1, tmpcr1);
 800497c:	687b      	ldr	r3, [r7, #4]
 800497e:	68fa      	ldr	r2, [r7, #12]
 8004980:	601a      	str	r2, [r3, #0]

  /* Set the Autoreload value */
  LL_TIM_SetAutoReload(TIMx, TIM_InitStruct->Autoreload);
 8004982:	683b      	ldr	r3, [r7, #0]
 8004984:	689b      	ldr	r3, [r3, #8]
 8004986:	4619      	mov	r1, r3
 8004988:	6878      	ldr	r0, [r7, #4]
 800498a:	f7ff ff34 	bl	80047f6 <LL_TIM_SetAutoReload>

  /* Set the Prescaler value */
  LL_TIM_SetPrescaler(TIMx, TIM_InitStruct->Prescaler);
 800498e:	683b      	ldr	r3, [r7, #0]
 8004990:	881b      	ldrh	r3, [r3, #0]
 8004992:	4619      	mov	r1, r3
 8004994:	6878      	ldr	r0, [r7, #4]
 8004996:	f7ff ff20 	bl	80047da <LL_TIM_SetPrescaler>

  if (IS_TIM_REPETITION_COUNTER_INSTANCE(TIMx))
 800499a:	687b      	ldr	r3, [r7, #4]
 800499c:	4a0a      	ldr	r2, [pc, #40]	; (80049c8 <LL_TIM_Init+0x108>)
 800499e:	4293      	cmp	r3, r2
 80049a0:	d003      	beq.n	80049aa <LL_TIM_Init+0xea>
 80049a2:	687b      	ldr	r3, [r7, #4]
 80049a4:	4a0c      	ldr	r2, [pc, #48]	; (80049d8 <LL_TIM_Init+0x118>)
 80049a6:	4293      	cmp	r3, r2
 80049a8:	d105      	bne.n	80049b6 <LL_TIM_Init+0xf6>
  {
    /* Set the Repetition Counter value */
    LL_TIM_SetRepetitionCounter(TIMx, TIM_InitStruct->RepetitionCounter);
 80049aa:	683b      	ldr	r3, [r7, #0]
 80049ac:	7c1b      	ldrb	r3, [r3, #16]
 80049ae:	4619      	mov	r1, r3
 80049b0:	6878      	ldr	r0, [r7, #4]
 80049b2:	f7ff ff2e 	bl	8004812 <LL_TIM_SetRepetitionCounter>
  }

  /* Generate an update event to reload the Prescaler
     and the repetition counter value (if applicable) immediately */
  LL_TIM_GenerateEvent_UPDATE(TIMx);
 80049b6:	6878      	ldr	r0, [r7, #4]
 80049b8:	f7ff ff71 	bl	800489e <LL_TIM_GenerateEvent_UPDATE>

  return SUCCESS;
 80049bc:	2300      	movs	r3, #0
}
 80049be:	4618      	mov	r0, r3
 80049c0:	3710      	adds	r7, #16
 80049c2:	46bd      	mov	sp, r7
 80049c4:	bd80      	pop	{r7, pc}
 80049c6:	bf00      	nop
 80049c8:	40010000 	.word	0x40010000
 80049cc:	40000400 	.word	0x40000400
 80049d0:	40000800 	.word	0x40000800
 80049d4:	40000c00 	.word	0x40000c00
 80049d8:	40010400 	.word	0x40010400
 80049dc:	40014000 	.word	0x40014000
 80049e0:	40014400 	.word	0x40014400
 80049e4:	40014800 	.word	0x40014800
 80049e8:	40001800 	.word	0x40001800
 80049ec:	40001c00 	.word	0x40001c00
 80049f0:	40002000 	.word	0x40002000

080049f4 <LL_TIM_OC_Init>:
  * @retval An ErrorStatus enumeration value:
  *          - SUCCESS: TIMx output channel is initialized
  *          - ERROR: TIMx output channel is not initialized
  */
ErrorStatus LL_TIM_OC_Init(TIM_TypeDef *TIMx, uint32_t Channel, LL_TIM_OC_InitTypeDef *TIM_OC_InitStruct)
{
 80049f4:	b580      	push	{r7, lr}
 80049f6:	b086      	sub	sp, #24
 80049f8:	af00      	add	r7, sp, #0
 80049fa:	60f8      	str	r0, [r7, #12]
 80049fc:	60b9      	str	r1, [r7, #8]
 80049fe:	607a      	str	r2, [r7, #4]
  ErrorStatus result = ERROR;
 8004a00:	2301      	movs	r3, #1
 8004a02:	75fb      	strb	r3, [r7, #23]

  switch (Channel)
 8004a04:	68bb      	ldr	r3, [r7, #8]
 8004a06:	2b10      	cmp	r3, #16
 8004a08:	d012      	beq.n	8004a30 <LL_TIM_OC_Init+0x3c>
 8004a0a:	2b10      	cmp	r3, #16
 8004a0c:	d802      	bhi.n	8004a14 <LL_TIM_OC_Init+0x20>
 8004a0e:	2b01      	cmp	r3, #1
 8004a10:	d007      	beq.n	8004a22 <LL_TIM_OC_Init+0x2e>
      break;
    case LL_TIM_CHANNEL_CH4:
      result = OC4Config(TIMx, TIM_OC_InitStruct);
      break;
    default:
      break;
 8004a12:	e022      	b.n	8004a5a <LL_TIM_OC_Init+0x66>
  switch (Channel)
 8004a14:	f5b3 7f80 	cmp.w	r3, #256	; 0x100
 8004a18:	d011      	beq.n	8004a3e <LL_TIM_OC_Init+0x4a>
 8004a1a:	f5b3 5f80 	cmp.w	r3, #4096	; 0x1000
 8004a1e:	d015      	beq.n	8004a4c <LL_TIM_OC_Init+0x58>
      break;
 8004a20:	e01b      	b.n	8004a5a <LL_TIM_OC_Init+0x66>
      result = OC1Config(TIMx, TIM_OC_InitStruct);
 8004a22:	6879      	ldr	r1, [r7, #4]
 8004a24:	68f8      	ldr	r0, [r7, #12]
 8004a26:	f000 f81d 	bl	8004a64 <OC1Config>
 8004a2a:	4603      	mov	r3, r0
 8004a2c:	75fb      	strb	r3, [r7, #23]
      break;
 8004a2e:	e014      	b.n	8004a5a <LL_TIM_OC_Init+0x66>
      result = OC2Config(TIMx, TIM_OC_InitStruct);
 8004a30:	6879      	ldr	r1, [r7, #4]
 8004a32:	68f8      	ldr	r0, [r7, #12]
 8004a34:	f000 f882 	bl	8004b3c <OC2Config>
 8004a38:	4603      	mov	r3, r0
 8004a3a:	75fb      	strb	r3, [r7, #23]
      break;
 8004a3c:	e00d      	b.n	8004a5a <LL_TIM_OC_Init+0x66>
      result = OC3Config(TIMx, TIM_OC_InitStruct);
 8004a3e:	6879      	ldr	r1, [r7, #4]
 8004a40:	68f8      	ldr	r0, [r7, #12]
 8004a42:	f000 f8eb 	bl	8004c1c <OC3Config>
 8004a46:	4603      	mov	r3, r0
 8004a48:	75fb      	strb	r3, [r7, #23]
      break;
 8004a4a:	e006      	b.n	8004a5a <LL_TIM_OC_Init+0x66>
      result = OC4Config(TIMx, TIM_OC_InitStruct);
 8004a4c:	6879      	ldr	r1, [r7, #4]
 8004a4e:	68f8      	ldr	r0, [r7, #12]
 8004a50:	f000 f954 	bl	8004cfc <OC4Config>
 8004a54:	4603      	mov	r3, r0
 8004a56:	75fb      	strb	r3, [r7, #23]
      break;
 8004a58:	bf00      	nop
  }

  return result;
 8004a5a:	7dfb      	ldrb	r3, [r7, #23]
}
 8004a5c:	4618      	mov	r0, r3
 8004a5e:	3718      	adds	r7, #24
 8004a60:	46bd      	mov	sp, r7
 8004a62:	bd80      	pop	{r7, pc}

08004a64 <OC1Config>:
  * @retval An ErrorStatus enumeration value:
  *          - SUCCESS: TIMx registers are de-initialized
  *          - ERROR: not applicable
  */
static ErrorStatus OC1Config(TIM_TypeDef *TIMx, LL_TIM_OC_InitTypeDef *TIM_OCInitStruct)
{
 8004a64:	b580      	push	{r7, lr}
 8004a66:	b086      	sub	sp, #24
 8004a68:	af00      	add	r7, sp, #0
 8004a6a:	6078      	str	r0, [r7, #4]
 8004a6c:	6039      	str	r1, [r7, #0]
  assert_param(IS_LL_TIM_OCPOLARITY(TIM_OCInitStruct->OCPolarity));
  assert_param(IS_LL_TIM_OCSTATE(TIM_OCInitStruct->OCNState));
  assert_param(IS_LL_TIM_OCPOLARITY(TIM_OCInitStruct->OCNPolarity));

  /* Disable the Channel 1: Reset the CC1E Bit */
  CLEAR_BIT(TIMx->CCER, TIM_CCER_CC1E);
 8004a6e:	687b      	ldr	r3, [r7, #4]
 8004a70:	6a1b      	ldr	r3, [r3, #32]
 8004a72:	f023 0201 	bic.w	r2, r3, #1
 8004a76:	687b      	ldr	r3, [r7, #4]
 8004a78:	621a      	str	r2, [r3, #32]

  /* Get the TIMx CCER register value */
  tmpccer = LL_TIM_ReadReg(TIMx, CCER);
 8004a7a:	687b      	ldr	r3, [r7, #4]
 8004a7c:	6a1b      	ldr	r3, [r3, #32]
 8004a7e:	617b      	str	r3, [r7, #20]

  /* Get the TIMx CR2 register value */
  tmpcr2 = LL_TIM_ReadReg(TIMx, CR2);
 8004a80:	687b      	ldr	r3, [r7, #4]
 8004a82:	685b      	ldr	r3, [r3, #4]
 8004a84:	613b      	str	r3, [r7, #16]

  /* Get the TIMx CCMR1 register value */
  tmpccmr1 = LL_TIM_ReadReg(TIMx, CCMR1);
 8004a86:	687b      	ldr	r3, [r7, #4]
 8004a88:	699b      	ldr	r3, [r3, #24]
 8004a8a:	60fb      	str	r3, [r7, #12]

  /* Reset Capture/Compare selection Bits */
  CLEAR_BIT(tmpccmr1, TIM_CCMR1_CC1S);
 8004a8c:	68fb      	ldr	r3, [r7, #12]
 8004a8e:	f023 0303 	bic.w	r3, r3, #3
 8004a92:	60fb      	str	r3, [r7, #12]

  /* Set the Output Compare Mode */
  MODIFY_REG(tmpccmr1, TIM_CCMR1_OC1M, TIM_OCInitStruct->OCMode);
 8004a94:	68fb      	ldr	r3, [r7, #12]
 8004a96:	f023 0270 	bic.w	r2, r3, #112	; 0x70
 8004a9a:	683b      	ldr	r3, [r7, #0]
 8004a9c:	681b      	ldr	r3, [r3, #0]
 8004a9e:	4313      	orrs	r3, r2
 8004aa0:	60fb      	str	r3, [r7, #12]

  /* Set the Output Compare Polarity */
  MODIFY_REG(tmpccer, TIM_CCER_CC1P, TIM_OCInitStruct->OCPolarity);
 8004aa2:	697b      	ldr	r3, [r7, #20]
 8004aa4:	f023 0202 	bic.w	r2, r3, #2
 8004aa8:	683b      	ldr	r3, [r7, #0]
 8004aaa:	691b      	ldr	r3, [r3, #16]
 8004aac:	4313      	orrs	r3, r2
 8004aae:	617b      	str	r3, [r7, #20]

  /* Set the Output State */
  MODIFY_REG(tmpccer, TIM_CCER_CC1E, TIM_OCInitStruct->OCState);
 8004ab0:	697b      	ldr	r3, [r7, #20]
 8004ab2:	f023 0201 	bic.w	r2, r3, #1
 8004ab6:	683b      	ldr	r3, [r7, #0]
 8004ab8:	685b      	ldr	r3, [r3, #4]
 8004aba:	4313      	orrs	r3, r2
 8004abc:	617b      	str	r3, [r7, #20]

  if (IS_TIM_BREAK_INSTANCE(TIMx))
 8004abe:	687b      	ldr	r3, [r7, #4]
 8004ac0:	4a1c      	ldr	r2, [pc, #112]	; (8004b34 <OC1Config+0xd0>)
 8004ac2:	4293      	cmp	r3, r2
 8004ac4:	d003      	beq.n	8004ace <OC1Config+0x6a>
 8004ac6:	687b      	ldr	r3, [r7, #4]
 8004ac8:	4a1b      	ldr	r2, [pc, #108]	; (8004b38 <OC1Config+0xd4>)
 8004aca:	4293      	cmp	r3, r2
 8004acc:	d11e      	bne.n	8004b0c <OC1Config+0xa8>
  {
    assert_param(IS_LL_TIM_OCIDLESTATE(TIM_OCInitStruct->OCNIdleState));
    assert_param(IS_LL_TIM_OCIDLESTATE(TIM_OCInitStruct->OCIdleState));

    /* Set the complementary output Polarity */
    MODIFY_REG(tmpccer, TIM_CCER_CC1NP, TIM_OCInitStruct->OCNPolarity << 2U);
 8004ace:	697b      	ldr	r3, [r7, #20]
 8004ad0:	f023 0208 	bic.w	r2, r3, #8
 8004ad4:	683b      	ldr	r3, [r7, #0]
 8004ad6:	695b      	ldr	r3, [r3, #20]
 8004ad8:	009b      	lsls	r3, r3, #2
 8004ada:	4313      	orrs	r3, r2
 8004adc:	617b      	str	r3, [r7, #20]

    /* Set the complementary output State */
    MODIFY_REG(tmpccer, TIM_CCER_CC1NE, TIM_OCInitStruct->OCNState << 2U);
 8004ade:	697b      	ldr	r3, [r7, #20]
 8004ae0:	f023 0204 	bic.w	r2, r3, #4
 8004ae4:	683b      	ldr	r3, [r7, #0]
 8004ae6:	689b      	ldr	r3, [r3, #8]
 8004ae8:	009b      	lsls	r3, r3, #2
 8004aea:	4313      	orrs	r3, r2
 8004aec:	617b      	str	r3, [r7, #20]

    /* Set the Output Idle state */
    MODIFY_REG(tmpcr2, TIM_CR2_OIS1, TIM_OCInitStruct->OCIdleState);
 8004aee:	693b      	ldr	r3, [r7, #16]
 8004af0:	f423 7280 	bic.w	r2, r3, #256	; 0x100
 8004af4:	683b      	ldr	r3, [r7, #0]
 8004af6:	699b      	ldr	r3, [r3, #24]
 8004af8:	4313      	orrs	r3, r2
 8004afa:	613b      	str	r3, [r7, #16]

    /* Set the complementary output Idle state */
    MODIFY_REG(tmpcr2, TIM_CR2_OIS1N, TIM_OCInitStruct->OCNIdleState << 1U);
 8004afc:	693b      	ldr	r3, [r7, #16]
 8004afe:	f423 7200 	bic.w	r2, r3, #512	; 0x200
 8004b02:	683b      	ldr	r3, [r7, #0]
 8004b04:	69db      	ldr	r3, [r3, #28]
 8004b06:	005b      	lsls	r3, r3, #1
 8004b08:	4313      	orrs	r3, r2
 8004b0a:	613b      	str	r3, [r7, #16]
  }

  /* Write to TIMx CR2 */
  LL_TIM_WriteReg(TIMx, CR2, tmpcr2);
 8004b0c:	687b      	ldr	r3, [r7, #4]
 8004b0e:	693a      	ldr	r2, [r7, #16]
 8004b10:	605a      	str	r2, [r3, #4]

  /* Write to TIMx CCMR1 */
  LL_TIM_WriteReg(TIMx, CCMR1, tmpccmr1);
 8004b12:	687b      	ldr	r3, [r7, #4]
 8004b14:	68fa      	ldr	r2, [r7, #12]
 8004b16:	619a      	str	r2, [r3, #24]

  /* Set the Capture Compare Register value */
  LL_TIM_OC_SetCompareCH1(TIMx, TIM_OCInitStruct->CompareValue);
 8004b18:	683b      	ldr	r3, [r7, #0]
 8004b1a:	68db      	ldr	r3, [r3, #12]
 8004b1c:	4619      	mov	r1, r3
 8004b1e:	6878      	ldr	r0, [r7, #4]
 8004b20:	f7ff fe85 	bl	800482e <LL_TIM_OC_SetCompareCH1>

  /* Write to TIMx CCER */
  LL_TIM_WriteReg(TIMx, CCER, tmpccer);
 8004b24:	687b      	ldr	r3, [r7, #4]
 8004b26:	697a      	ldr	r2, [r7, #20]
 8004b28:	621a      	str	r2, [r3, #32]

  return SUCCESS;
 8004b2a:	2300      	movs	r3, #0
}
 8004b2c:	4618      	mov	r0, r3
 8004b2e:	3718      	adds	r7, #24
 8004b30:	46bd      	mov	sp, r7
 8004b32:	bd80      	pop	{r7, pc}
 8004b34:	40010000 	.word	0x40010000
 8004b38:	40010400 	.word	0x40010400

08004b3c <OC2Config>:
  * @retval An ErrorStatus enumeration value:
  *          - SUCCESS: TIMx registers are de-initialized
  *          - ERROR: not applicable
  */
static ErrorStatus OC2Config(TIM_TypeDef *TIMx, LL_TIM_OC_InitTypeDef *TIM_OCInitStruct)
{
 8004b3c:	b580      	push	{r7, lr}
 8004b3e:	b086      	sub	sp, #24
 8004b40:	af00      	add	r7, sp, #0
 8004b42:	6078      	str	r0, [r7, #4]
 8004b44:	6039      	str	r1, [r7, #0]
  assert_param(IS_LL_TIM_OCPOLARITY(TIM_OCInitStruct->OCPolarity));
  assert_param(IS_LL_TIM_OCSTATE(TIM_OCInitStruct->OCNState));
  assert_param(IS_LL_TIM_OCPOLARITY(TIM_OCInitStruct->OCNPolarity));

  /* Disable the Channel 2: Reset the CC2E Bit */
  CLEAR_BIT(TIMx->CCER, TIM_CCER_CC2E);
 8004b46:	687b      	ldr	r3, [r7, #4]
 8004b48:	6a1b      	ldr	r3, [r3, #32]
 8004b4a:	f023 0210 	bic.w	r2, r3, #16
 8004b4e:	687b      	ldr	r3, [r7, #4]
 8004b50:	621a      	str	r2, [r3, #32]

  /* Get the TIMx CCER register value */
  tmpccer =  LL_TIM_ReadReg(TIMx, CCER);
 8004b52:	687b      	ldr	r3, [r7, #4]
 8004b54:	6a1b      	ldr	r3, [r3, #32]
 8004b56:	617b      	str	r3, [r7, #20]

  /* Get the TIMx CR2 register value */
  tmpcr2 = LL_TIM_ReadReg(TIMx, CR2);
 8004b58:	687b      	ldr	r3, [r7, #4]
 8004b5a:	685b      	ldr	r3, [r3, #4]
 8004b5c:	613b      	str	r3, [r7, #16]

  /* Get the TIMx CCMR1 register value */
  tmpccmr1 = LL_TIM_ReadReg(TIMx, CCMR1);
 8004b5e:	687b      	ldr	r3, [r7, #4]
 8004b60:	699b      	ldr	r3, [r3, #24]
 8004b62:	60fb      	str	r3, [r7, #12]

  /* Reset Capture/Compare selection Bits */
  CLEAR_BIT(tmpccmr1, TIM_CCMR1_CC2S);
 8004b64:	68fb      	ldr	r3, [r7, #12]
 8004b66:	f423 7340 	bic.w	r3, r3, #768	; 0x300
 8004b6a:	60fb      	str	r3, [r7, #12]

  /* Select the Output Compare Mode */
  MODIFY_REG(tmpccmr1, TIM_CCMR1_OC2M, TIM_OCInitStruct->OCMode << 8U);
 8004b6c:	68fb      	ldr	r3, [r7, #12]
 8004b6e:	f423 42e0 	bic.w	r2, r3, #28672	; 0x7000
 8004b72:	683b      	ldr	r3, [r7, #0]
 8004b74:	681b      	ldr	r3, [r3, #0]
 8004b76:	021b      	lsls	r3, r3, #8
 8004b78:	4313      	orrs	r3, r2
 8004b7a:	60fb      	str	r3, [r7, #12]

  /* Set the Output Compare Polarity */
  MODIFY_REG(tmpccer, TIM_CCER_CC2P, TIM_OCInitStruct->OCPolarity << 4U);
 8004b7c:	697b      	ldr	r3, [r7, #20]
 8004b7e:	f023 0220 	bic.w	r2, r3, #32
 8004b82:	683b      	ldr	r3, [r7, #0]
 8004b84:	691b      	ldr	r3, [r3, #16]
 8004b86:	011b      	lsls	r3, r3, #4
 8004b88:	4313      	orrs	r3, r2
 8004b8a:	617b      	str	r3, [r7, #20]

  /* Set the Output State */
  MODIFY_REG(tmpccer, TIM_CCER_CC2E, TIM_OCInitStruct->OCState << 4U);
 8004b8c:	697b      	ldr	r3, [r7, #20]
 8004b8e:	f023 0210 	bic.w	r2, r3, #16
 8004b92:	683b      	ldr	r3, [r7, #0]
 8004b94:	685b      	ldr	r3, [r3, #4]
 8004b96:	011b      	lsls	r3, r3, #4
 8004b98:	4313      	orrs	r3, r2
 8004b9a:	617b      	str	r3, [r7, #20]

  if (IS_TIM_BREAK_INSTANCE(TIMx))
 8004b9c:	687b      	ldr	r3, [r7, #4]
 8004b9e:	4a1d      	ldr	r2, [pc, #116]	; (8004c14 <OC2Config+0xd8>)
 8004ba0:	4293      	cmp	r3, r2
 8004ba2:	d003      	beq.n	8004bac <OC2Config+0x70>
 8004ba4:	687b      	ldr	r3, [r7, #4]
 8004ba6:	4a1c      	ldr	r2, [pc, #112]	; (8004c18 <OC2Config+0xdc>)
 8004ba8:	4293      	cmp	r3, r2
 8004baa:	d11f      	bne.n	8004bec <OC2Config+0xb0>
  {
    assert_param(IS_LL_TIM_OCIDLESTATE(TIM_OCInitStruct->OCNIdleState));
    assert_param(IS_LL_TIM_OCIDLESTATE(TIM_OCInitStruct->OCIdleState));

    /* Set the complementary output Polarity */
    MODIFY_REG(tmpccer, TIM_CCER_CC2NP, TIM_OCInitStruct->OCNPolarity << 6U);
 8004bac:	697b      	ldr	r3, [r7, #20]
 8004bae:	f023 0280 	bic.w	r2, r3, #128	; 0x80
 8004bb2:	683b      	ldr	r3, [r7, #0]
 8004bb4:	695b      	ldr	r3, [r3, #20]
 8004bb6:	019b      	lsls	r3, r3, #6
 8004bb8:	4313      	orrs	r3, r2
 8004bba:	617b      	str	r3, [r7, #20]

    /* Set the complementary output State */
    MODIFY_REG(tmpccer, TIM_CCER_CC2NE, TIM_OCInitStruct->OCNState << 6U);
 8004bbc:	697b      	ldr	r3, [r7, #20]
 8004bbe:	f023 0240 	bic.w	r2, r3, #64	; 0x40
 8004bc2:	683b      	ldr	r3, [r7, #0]
 8004bc4:	689b      	ldr	r3, [r3, #8]
 8004bc6:	019b      	lsls	r3, r3, #6
 8004bc8:	4313      	orrs	r3, r2
 8004bca:	617b      	str	r3, [r7, #20]

    /* Set the Output Idle state */
    MODIFY_REG(tmpcr2, TIM_CR2_OIS2, TIM_OCInitStruct->OCIdleState << 2U);
 8004bcc:	693b      	ldr	r3, [r7, #16]
 8004bce:	f423 6280 	bic.w	r2, r3, #1024	; 0x400
 8004bd2:	683b      	ldr	r3, [r7, #0]
 8004bd4:	699b      	ldr	r3, [r3, #24]
 8004bd6:	009b      	lsls	r3, r3, #2
 8004bd8:	4313      	orrs	r3, r2
 8004bda:	613b      	str	r3, [r7, #16]

    /* Set the complementary output Idle state */
    MODIFY_REG(tmpcr2, TIM_CR2_OIS2N, TIM_OCInitStruct->OCNIdleState << 3U);
 8004bdc:	693b      	ldr	r3, [r7, #16]
 8004bde:	f423 6200 	bic.w	r2, r3, #2048	; 0x800
 8004be2:	683b      	ldr	r3, [r7, #0]
 8004be4:	69db      	ldr	r3, [r3, #28]
 8004be6:	00db      	lsls	r3, r3, #3
 8004be8:	4313      	orrs	r3, r2
 8004bea:	613b      	str	r3, [r7, #16]
  }

  /* Write to TIMx CR2 */
  LL_TIM_WriteReg(TIMx, CR2, tmpcr2);
 8004bec:	687b      	ldr	r3, [r7, #4]
 8004bee:	693a      	ldr	r2, [r7, #16]
 8004bf0:	605a      	str	r2, [r3, #4]

  /* Write to TIMx CCMR1 */
  LL_TIM_WriteReg(TIMx, CCMR1, tmpccmr1);
 8004bf2:	687b      	ldr	r3, [r7, #4]
 8004bf4:	68fa      	ldr	r2, [r7, #12]
 8004bf6:	619a      	str	r2, [r3, #24]

  /* Set the Capture Compare Register value */
  LL_TIM_OC_SetCompareCH2(TIMx, TIM_OCInitStruct->CompareValue);
 8004bf8:	683b      	ldr	r3, [r7, #0]
 8004bfa:	68db      	ldr	r3, [r3, #12]
 8004bfc:	4619      	mov	r1, r3
 8004bfe:	6878      	ldr	r0, [r7, #4]
 8004c00:	f7ff fe23 	bl	800484a <LL_TIM_OC_SetCompareCH2>

  /* Write to TIMx CCER */
  LL_TIM_WriteReg(TIMx, CCER, tmpccer);
 8004c04:	687b      	ldr	r3, [r7, #4]
 8004c06:	697a      	ldr	r2, [r7, #20]
 8004c08:	621a      	str	r2, [r3, #32]

  return SUCCESS;
 8004c0a:	2300      	movs	r3, #0
}
 8004c0c:	4618      	mov	r0, r3
 8004c0e:	3718      	adds	r7, #24
 8004c10:	46bd      	mov	sp, r7
 8004c12:	bd80      	pop	{r7, pc}
 8004c14:	40010000 	.word	0x40010000
 8004c18:	40010400 	.word	0x40010400

08004c1c <OC3Config>:
  * @retval An ErrorStatus enumeration value:
  *          - SUCCESS: TIMx registers are de-initialized
  *          - ERROR: not applicable
  */
static ErrorStatus OC3Config(TIM_TypeDef *TIMx, LL_TIM_OC_InitTypeDef *TIM_OCInitStruct)
{
 8004c1c:	b580      	push	{r7, lr}
 8004c1e:	b086      	sub	sp, #24
 8004c20:	af00      	add	r7, sp, #0
 8004c22:	6078      	str	r0, [r7, #4]
 8004c24:	6039      	str	r1, [r7, #0]
  assert_param(IS_LL_TIM_OCPOLARITY(TIM_OCInitStruct->OCPolarity));
  assert_param(IS_LL_TIM_OCSTATE(TIM_OCInitStruct->OCNState));
  assert_param(IS_LL_TIM_OCPOLARITY(TIM_OCInitStruct->OCNPolarity));

  /* Disable the Channel 3: Reset the CC3E Bit */
  CLEAR_BIT(TIMx->CCER, TIM_CCER_CC3E);
 8004c26:	687b      	ldr	r3, [r7, #4]
 8004c28:	6a1b      	ldr	r3, [r3, #32]
 8004c2a:	f423 7280 	bic.w	r2, r3, #256	; 0x100
 8004c2e:	687b      	ldr	r3, [r7, #4]
 8004c30:	621a      	str	r2, [r3, #32]

  /* Get the TIMx CCER register value */
  tmpccer =  LL_TIM_ReadReg(TIMx, CCER);
 8004c32:	687b      	ldr	r3, [r7, #4]
 8004c34:	6a1b      	ldr	r3, [r3, #32]
 8004c36:	617b      	str	r3, [r7, #20]

  /* Get the TIMx CR2 register value */
  tmpcr2 = LL_TIM_ReadReg(TIMx, CR2);
 8004c38:	687b      	ldr	r3, [r7, #4]
 8004c3a:	685b      	ldr	r3, [r3, #4]
 8004c3c:	613b      	str	r3, [r7, #16]

  /* Get the TIMx CCMR2 register value */
  tmpccmr2 = LL_TIM_ReadReg(TIMx, CCMR2);
 8004c3e:	687b      	ldr	r3, [r7, #4]
 8004c40:	69db      	ldr	r3, [r3, #28]
 8004c42:	60fb      	str	r3, [r7, #12]

  /* Reset Capture/Compare selection Bits */
  CLEAR_BIT(tmpccmr2, TIM_CCMR2_CC3S);
 8004c44:	68fb      	ldr	r3, [r7, #12]
 8004c46:	f023 0303 	bic.w	r3, r3, #3
 8004c4a:	60fb      	str	r3, [r7, #12]

  /* Select the Output Compare Mode */
  MODIFY_REG(tmpccmr2, TIM_CCMR2_OC3M, TIM_OCInitStruct->OCMode);
 8004c4c:	68fb      	ldr	r3, [r7, #12]
 8004c4e:	f023 0270 	bic.w	r2, r3, #112	; 0x70
 8004c52:	683b      	ldr	r3, [r7, #0]
 8004c54:	681b      	ldr	r3, [r3, #0]
 8004c56:	4313      	orrs	r3, r2
 8004c58:	60fb      	str	r3, [r7, #12]

  /* Set the Output Compare Polarity */
  MODIFY_REG(tmpccer, TIM_CCER_CC3P, TIM_OCInitStruct->OCPolarity << 8U);
 8004c5a:	697b      	ldr	r3, [r7, #20]
 8004c5c:	f423 7200 	bic.w	r2, r3, #512	; 0x200
 8004c60:	683b      	ldr	r3, [r7, #0]
 8004c62:	691b      	ldr	r3, [r3, #16]
 8004c64:	021b      	lsls	r3, r3, #8
 8004c66:	4313      	orrs	r3, r2
 8004c68:	617b      	str	r3, [r7, #20]

  /* Set the Output State */
  MODIFY_REG(tmpccer, TIM_CCER_CC3E, TIM_OCInitStruct->OCState << 8U);
 8004c6a:	697b      	ldr	r3, [r7, #20]
 8004c6c:	f423 7280 	bic.w	r2, r3, #256	; 0x100
 8004c70:	683b      	ldr	r3, [r7, #0]
 8004c72:	685b      	ldr	r3, [r3, #4]
 8004c74:	021b      	lsls	r3, r3, #8
 8004c76:	4313      	orrs	r3, r2
 8004c78:	617b      	str	r3, [r7, #20]

  if (IS_TIM_BREAK_INSTANCE(TIMx))
 8004c7a:	687b      	ldr	r3, [r7, #4]
 8004c7c:	4a1d      	ldr	r2, [pc, #116]	; (8004cf4 <OC3Config+0xd8>)
 8004c7e:	4293      	cmp	r3, r2
 8004c80:	d003      	beq.n	8004c8a <OC3Config+0x6e>
 8004c82:	687b      	ldr	r3, [r7, #4]
 8004c84:	4a1c      	ldr	r2, [pc, #112]	; (8004cf8 <OC3Config+0xdc>)
 8004c86:	4293      	cmp	r3, r2
 8004c88:	d11f      	bne.n	8004cca <OC3Config+0xae>
  {
    assert_param(IS_LL_TIM_OCIDLESTATE(TIM_OCInitStruct->OCNIdleState));
    assert_param(IS_LL_TIM_OCIDLESTATE(TIM_OCInitStruct->OCIdleState));

    /* Set the complementary output Polarity */
    MODIFY_REG(tmpccer, TIM_CCER_CC3NP, TIM_OCInitStruct->OCNPolarity << 10U);
 8004c8a:	697b      	ldr	r3, [r7, #20]
 8004c8c:	f423 6200 	bic.w	r2, r3, #2048	; 0x800
 8004c90:	683b      	ldr	r3, [r7, #0]
 8004c92:	695b      	ldr	r3, [r3, #20]
 8004c94:	029b      	lsls	r3, r3, #10
 8004c96:	4313      	orrs	r3, r2
 8004c98:	617b      	str	r3, [r7, #20]

    /* Set the complementary output State */
    MODIFY_REG(tmpccer, TIM_CCER_CC3NE, TIM_OCInitStruct->OCNState << 10U);
 8004c9a:	697b      	ldr	r3, [r7, #20]
 8004c9c:	f423 6280 	bic.w	r2, r3, #1024	; 0x400
 8004ca0:	683b      	ldr	r3, [r7, #0]
 8004ca2:	689b      	ldr	r3, [r3, #8]
 8004ca4:	029b      	lsls	r3, r3, #10
 8004ca6:	4313      	orrs	r3, r2
 8004ca8:	617b      	str	r3, [r7, #20]

    /* Set the Output Idle state */
    MODIFY_REG(tmpcr2, TIM_CR2_OIS3, TIM_OCInitStruct->OCIdleState << 4U);
 8004caa:	693b      	ldr	r3, [r7, #16]
 8004cac:	f423 5280 	bic.w	r2, r3, #4096	; 0x1000
 8004cb0:	683b      	ldr	r3, [r7, #0]
 8004cb2:	699b      	ldr	r3, [r3, #24]
 8004cb4:	011b      	lsls	r3, r3, #4
 8004cb6:	4313      	orrs	r3, r2
 8004cb8:	613b      	str	r3, [r7, #16]

    /* Set the complementary output Idle state */
    MODIFY_REG(tmpcr2, TIM_CR2_OIS3N, TIM_OCInitStruct->OCNIdleState << 5U);
 8004cba:	693b      	ldr	r3, [r7, #16]
 8004cbc:	f423 5200 	bic.w	r2, r3, #8192	; 0x2000
 8004cc0:	683b      	ldr	r3, [r7, #0]
 8004cc2:	69db      	ldr	r3, [r3, #28]
 8004cc4:	015b      	lsls	r3, r3, #5
 8004cc6:	4313      	orrs	r3, r2
 8004cc8:	613b      	str	r3, [r7, #16]
  }

  /* Write to TIMx CR2 */
  LL_TIM_WriteReg(TIMx, CR2, tmpcr2);
 8004cca:	687b      	ldr	r3, [r7, #4]
 8004ccc:	693a      	ldr	r2, [r7, #16]
 8004cce:	605a      	str	r2, [r3, #4]

  /* Write to TIMx CCMR2 */
  LL_TIM_WriteReg(TIMx, CCMR2, tmpccmr2);
 8004cd0:	687b      	ldr	r3, [r7, #4]
 8004cd2:	68fa      	ldr	r2, [r7, #12]
 8004cd4:	61da      	str	r2, [r3, #28]

  /* Set the Capture Compare Register value */
  LL_TIM_OC_SetCompareCH3(TIMx, TIM_OCInitStruct->CompareValue);
 8004cd6:	683b      	ldr	r3, [r7, #0]
 8004cd8:	68db      	ldr	r3, [r3, #12]
 8004cda:	4619      	mov	r1, r3
 8004cdc:	6878      	ldr	r0, [r7, #4]
 8004cde:	f7ff fdc2 	bl	8004866 <LL_TIM_OC_SetCompareCH3>

  /* Write to TIMx CCER */
  LL_TIM_WriteReg(TIMx, CCER, tmpccer);
 8004ce2:	687b      	ldr	r3, [r7, #4]
 8004ce4:	697a      	ldr	r2, [r7, #20]
 8004ce6:	621a      	str	r2, [r3, #32]

  return SUCCESS;
 8004ce8:	2300      	movs	r3, #0
}
 8004cea:	4618      	mov	r0, r3
 8004cec:	3718      	adds	r7, #24
 8004cee:	46bd      	mov	sp, r7
 8004cf0:	bd80      	pop	{r7, pc}
 8004cf2:	bf00      	nop
 8004cf4:	40010000 	.word	0x40010000
 8004cf8:	40010400 	.word	0x40010400

08004cfc <OC4Config>:
  * @retval An ErrorStatus enumeration value:
  *          - SUCCESS: TIMx registers are de-initialized
  *          - ERROR: not applicable
  */
static ErrorStatus OC4Config(TIM_TypeDef *TIMx, LL_TIM_OC_InitTypeDef *TIM_OCInitStruct)
{
 8004cfc:	b580      	push	{r7, lr}
 8004cfe:	b086      	sub	sp, #24
 8004d00:	af00      	add	r7, sp, #0
 8004d02:	6078      	str	r0, [r7, #4]
 8004d04:	6039      	str	r1, [r7, #0]
  assert_param(IS_LL_TIM_OCPOLARITY(TIM_OCInitStruct->OCPolarity));
  assert_param(IS_LL_TIM_OCPOLARITY(TIM_OCInitStruct->OCNPolarity));
  assert_param(IS_LL_TIM_OCSTATE(TIM_OCInitStruct->OCNState));

  /* Disable the Channel 4: Reset the CC4E Bit */
  CLEAR_BIT(TIMx->CCER, TIM_CCER_CC4E);
 8004d06:	687b      	ldr	r3, [r7, #4]
 8004d08:	6a1b      	ldr	r3, [r3, #32]
 8004d0a:	f423 5280 	bic.w	r2, r3, #4096	; 0x1000
 8004d0e:	687b      	ldr	r3, [r7, #4]
 8004d10:	621a      	str	r2, [r3, #32]

  /* Get the TIMx CCER register value */
  tmpccer = LL_TIM_ReadReg(TIMx, CCER);
 8004d12:	687b      	ldr	r3, [r7, #4]
 8004d14:	6a1b      	ldr	r3, [r3, #32]
 8004d16:	613b      	str	r3, [r7, #16]

  /* Get the TIMx CR2 register value */
  tmpcr2 =  LL_TIM_ReadReg(TIMx, CR2);
 8004d18:	687b      	ldr	r3, [r7, #4]
 8004d1a:	685b      	ldr	r3, [r3, #4]
 8004d1c:	617b      	str	r3, [r7, #20]

  /* Get the TIMx CCMR2 register value */
  tmpccmr2 = LL_TIM_ReadReg(TIMx, CCMR2);
 8004d1e:	687b      	ldr	r3, [r7, #4]
 8004d20:	69db      	ldr	r3, [r3, #28]
 8004d22:	60fb      	str	r3, [r7, #12]

  /* Reset Capture/Compare selection Bits */
  CLEAR_BIT(tmpccmr2, TIM_CCMR2_CC4S);
 8004d24:	68fb      	ldr	r3, [r7, #12]
 8004d26:	f423 7340 	bic.w	r3, r3, #768	; 0x300
 8004d2a:	60fb      	str	r3, [r7, #12]

  /* Select the Output Compare Mode */
  MODIFY_REG(tmpccmr2, TIM_CCMR2_OC4M, TIM_OCInitStruct->OCMode << 8U);
 8004d2c:	68fb      	ldr	r3, [r7, #12]
 8004d2e:	f423 42e0 	bic.w	r2, r3, #28672	; 0x7000
 8004d32:	683b      	ldr	r3, [r7, #0]
 8004d34:	681b      	ldr	r3, [r3, #0]
 8004d36:	021b      	lsls	r3, r3, #8
 8004d38:	4313      	orrs	r3, r2
 8004d3a:	60fb      	str	r3, [r7, #12]

  /* Set the Output Compare Polarity */
  MODIFY_REG(tmpccer, TIM_CCER_CC4P, TIM_OCInitStruct->OCPolarity << 12U);
 8004d3c:	693b      	ldr	r3, [r7, #16]
 8004d3e:	f423 5200 	bic.w	r2, r3, #8192	; 0x2000
 8004d42:	683b      	ldr	r3, [r7, #0]
 8004d44:	691b      	ldr	r3, [r3, #16]
 8004d46:	031b      	lsls	r3, r3, #12
 8004d48:	4313      	orrs	r3, r2
 8004d4a:	613b      	str	r3, [r7, #16]

  /* Set the Output State */
  MODIFY_REG(tmpccer, TIM_CCER_CC4E, TIM_OCInitStruct->OCState << 12U);
 8004d4c:	693b      	ldr	r3, [r7, #16]
 8004d4e:	f423 5280 	bic.w	r2, r3, #4096	; 0x1000
 8004d52:	683b      	ldr	r3, [r7, #0]
 8004d54:	685b      	ldr	r3, [r3, #4]
 8004d56:	031b      	lsls	r3, r3, #12
 8004d58:	4313      	orrs	r3, r2
 8004d5a:	613b      	str	r3, [r7, #16]

  if (IS_TIM_BREAK_INSTANCE(TIMx))
 8004d5c:	687b      	ldr	r3, [r7, #4]
 8004d5e:	4a11      	ldr	r2, [pc, #68]	; (8004da4 <OC4Config+0xa8>)
 8004d60:	4293      	cmp	r3, r2
 8004d62:	d003      	beq.n	8004d6c <OC4Config+0x70>
 8004d64:	687b      	ldr	r3, [r7, #4]
 8004d66:	4a10      	ldr	r2, [pc, #64]	; (8004da8 <OC4Config+0xac>)
 8004d68:	4293      	cmp	r3, r2
 8004d6a:	d107      	bne.n	8004d7c <OC4Config+0x80>
  {
    assert_param(IS_LL_TIM_OCIDLESTATE(TIM_OCInitStruct->OCNIdleState));
    assert_param(IS_LL_TIM_OCIDLESTATE(TIM_OCInitStruct->OCIdleState));

    /* Set the Output Idle state */
    MODIFY_REG(tmpcr2, TIM_CR2_OIS4, TIM_OCInitStruct->OCIdleState << 6U);
 8004d6c:	697b      	ldr	r3, [r7, #20]
 8004d6e:	f423 4280 	bic.w	r2, r3, #16384	; 0x4000
 8004d72:	683b      	ldr	r3, [r7, #0]
 8004d74:	699b      	ldr	r3, [r3, #24]
 8004d76:	019b      	lsls	r3, r3, #6
 8004d78:	4313      	orrs	r3, r2
 8004d7a:	617b      	str	r3, [r7, #20]
  }

  /* Write to TIMx CR2 */
  LL_TIM_WriteReg(TIMx, CR2, tmpcr2);
 8004d7c:	687b      	ldr	r3, [r7, #4]
 8004d7e:	697a      	ldr	r2, [r7, #20]
 8004d80:	605a      	str	r2, [r3, #4]

  /* Write to TIMx CCMR2 */
  LL_TIM_WriteReg(TIMx, CCMR2, tmpccmr2);
 8004d82:	687b      	ldr	r3, [r7, #4]
 8004d84:	68fa      	ldr	r2, [r7, #12]
 8004d86:	61da      	str	r2, [r3, #28]

  /* Set the Capture Compare Register value */
  LL_TIM_OC_SetCompareCH4(TIMx, TIM_OCInitStruct->CompareValue);
 8004d88:	683b      	ldr	r3, [r7, #0]
 8004d8a:	68db      	ldr	r3, [r3, #12]
 8004d8c:	4619      	mov	r1, r3
 8004d8e:	6878      	ldr	r0, [r7, #4]
 8004d90:	f7ff fd77 	bl	8004882 <LL_TIM_OC_SetCompareCH4>

  /* Write to TIMx CCER */
  LL_TIM_WriteReg(TIMx, CCER, tmpccer);
 8004d94:	687b      	ldr	r3, [r7, #4]
 8004d96:	693a      	ldr	r2, [r7, #16]
 8004d98:	621a      	str	r2, [r3, #32]

  return SUCCESS;
 8004d9a:	2300      	movs	r3, #0
}
 8004d9c:	4618      	mov	r0, r3
 8004d9e:	3718      	adds	r7, #24
 8004da0:	46bd      	mov	sp, r7
 8004da2:	bd80      	pop	{r7, pc}
 8004da4:	40010000 	.word	0x40010000
 8004da8:	40010400 	.word	0x40010400

08004dac <LL_USART_IsEnabled>:
{
 8004dac:	b480      	push	{r7}
 8004dae:	b083      	sub	sp, #12
 8004db0:	af00      	add	r7, sp, #0
 8004db2:	6078      	str	r0, [r7, #4]
  return (READ_BIT(USARTx->CR1, USART_CR1_UE) == (USART_CR1_UE));
 8004db4:	687b      	ldr	r3, [r7, #4]
 8004db6:	68db      	ldr	r3, [r3, #12]
 8004db8:	f403 5300 	and.w	r3, r3, #8192	; 0x2000
 8004dbc:	f5b3 5f00 	cmp.w	r3, #8192	; 0x2000
 8004dc0:	bf0c      	ite	eq
 8004dc2:	2301      	moveq	r3, #1
 8004dc4:	2300      	movne	r3, #0
 8004dc6:	b2db      	uxtb	r3, r3
}
 8004dc8:	4618      	mov	r0, r3
 8004dca:	370c      	adds	r7, #12
 8004dcc:	46bd      	mov	sp, r7
 8004dce:	f85d 7b04 	ldr.w	r7, [sp], #4
 8004dd2:	4770      	bx	lr

08004dd4 <LL_USART_SetStopBitsLength>:
{
 8004dd4:	b480      	push	{r7}
 8004dd6:	b083      	sub	sp, #12
 8004dd8:	af00      	add	r7, sp, #0
 8004dda:	6078      	str	r0, [r7, #4]
 8004ddc:	6039      	str	r1, [r7, #0]
  MODIFY_REG(USARTx->CR2, USART_CR2_STOP, StopBits);
 8004dde:	687b      	ldr	r3, [r7, #4]
 8004de0:	691b      	ldr	r3, [r3, #16]
 8004de2:	f423 5240 	bic.w	r2, r3, #12288	; 0x3000
 8004de6:	683b      	ldr	r3, [r7, #0]
 8004de8:	431a      	orrs	r2, r3
 8004dea:	687b      	ldr	r3, [r7, #4]
 8004dec:	611a      	str	r2, [r3, #16]
}
 8004dee:	bf00      	nop
 8004df0:	370c      	adds	r7, #12
 8004df2:	46bd      	mov	sp, r7
 8004df4:	f85d 7b04 	ldr.w	r7, [sp], #4
 8004df8:	4770      	bx	lr

08004dfa <LL_USART_SetHWFlowCtrl>:
{
 8004dfa:	b480      	push	{r7}
 8004dfc:	b083      	sub	sp, #12
 8004dfe:	af00      	add	r7, sp, #0
 8004e00:	6078      	str	r0, [r7, #4]
 8004e02:	6039      	str	r1, [r7, #0]
  MODIFY_REG(USARTx->CR3, USART_CR3_RTSE | USART_CR3_CTSE, HardwareFlowControl);
 8004e04:	687b      	ldr	r3, [r7, #4]
 8004e06:	695b      	ldr	r3, [r3, #20]
 8004e08:	f423 7240 	bic.w	r2, r3, #768	; 0x300
 8004e0c:	683b      	ldr	r3, [r7, #0]
 8004e0e:	431a      	orrs	r2, r3
 8004e10:	687b      	ldr	r3, [r7, #4]
 8004e12:	615a      	str	r2, [r3, #20]
}
 8004e14:	bf00      	nop
 8004e16:	370c      	adds	r7, #12
 8004e18:	46bd      	mov	sp, r7
 8004e1a:	f85d 7b04 	ldr.w	r7, [sp], #4
 8004e1e:	4770      	bx	lr

08004e20 <LL_USART_SetBaudRate>:
{
 8004e20:	e92d 4ff0 	stmdb	sp!, {r4, r5, r6, r7, r8, r9, sl, fp, lr}
 8004e24:	b085      	sub	sp, #20
 8004e26:	af00      	add	r7, sp, #0
 8004e28:	60f8      	str	r0, [r7, #12]
 8004e2a:	60b9      	str	r1, [r7, #8]
 8004e2c:	607a      	str	r2, [r7, #4]
 8004e2e:	603b      	str	r3, [r7, #0]
  if (OverSampling == LL_USART_OVERSAMPLING_8)
 8004e30:	687b      	ldr	r3, [r7, #4]
 8004e32:	f5b3 4f00 	cmp.w	r3, #32768	; 0x8000
 8004e36:	f040 80c1 	bne.w	8004fbc <LL_USART_SetBaudRate+0x19c>
    USARTx->BRR = (uint16_t)(__LL_USART_DIV_SAMPLING8(PeriphClk, BaudRate));
 8004e3a:	68bb      	ldr	r3, [r7, #8]
 8004e3c:	461d      	mov	r5, r3
 8004e3e:	f04f 0600 	mov.w	r6, #0
 8004e42:	46a8      	mov	r8, r5
 8004e44:	46b1      	mov	r9, r6
 8004e46:	eb18 0308 	adds.w	r3, r8, r8
 8004e4a:	eb49 0409 	adc.w	r4, r9, r9
 8004e4e:	4698      	mov	r8, r3
 8004e50:	46a1      	mov	r9, r4
 8004e52:	eb18 0805 	adds.w	r8, r8, r5
 8004e56:	eb49 0906 	adc.w	r9, r9, r6
 8004e5a:	f04f 0100 	mov.w	r1, #0
 8004e5e:	f04f 0200 	mov.w	r2, #0
 8004e62:	ea4f 02c9 	mov.w	r2, r9, lsl #3
 8004e66:	ea42 7258 	orr.w	r2, r2, r8, lsr #29
 8004e6a:	ea4f 01c8 	mov.w	r1, r8, lsl #3
 8004e6e:	4688      	mov	r8, r1
 8004e70:	4691      	mov	r9, r2
 8004e72:	eb18 0005 	adds.w	r0, r8, r5
 8004e76:	eb49 0106 	adc.w	r1, r9, r6
 8004e7a:	683b      	ldr	r3, [r7, #0]
 8004e7c:	461d      	mov	r5, r3
 8004e7e:	f04f 0600 	mov.w	r6, #0
 8004e82:	196b      	adds	r3, r5, r5
 8004e84:	eb46 0406 	adc.w	r4, r6, r6
 8004e88:	461a      	mov	r2, r3
 8004e8a:	4623      	mov	r3, r4
 8004e8c:	f7fb fe8c 	bl	8000ba8 <__aeabi_uldivmod>
 8004e90:	4603      	mov	r3, r0
 8004e92:	460c      	mov	r4, r1
 8004e94:	461a      	mov	r2, r3
 8004e96:	4bb5      	ldr	r3, [pc, #724]	; (800516c <LL_USART_SetBaudRate+0x34c>)
 8004e98:	fba3 2302 	umull	r2, r3, r3, r2
 8004e9c:	095b      	lsrs	r3, r3, #5
 8004e9e:	b29b      	uxth	r3, r3
 8004ea0:	011b      	lsls	r3, r3, #4
 8004ea2:	fa1f f883 	uxth.w	r8, r3
 8004ea6:	68bb      	ldr	r3, [r7, #8]
 8004ea8:	461d      	mov	r5, r3
 8004eaa:	f04f 0600 	mov.w	r6, #0
 8004eae:	46a9      	mov	r9, r5
 8004eb0:	46b2      	mov	sl, r6
 8004eb2:	eb19 0309 	adds.w	r3, r9, r9
 8004eb6:	eb4a 040a 	adc.w	r4, sl, sl
 8004eba:	4699      	mov	r9, r3
 8004ebc:	46a2      	mov	sl, r4
 8004ebe:	eb19 0905 	adds.w	r9, r9, r5
 8004ec2:	eb4a 0a06 	adc.w	sl, sl, r6
 8004ec6:	f04f 0100 	mov.w	r1, #0
 8004eca:	f04f 0200 	mov.w	r2, #0
 8004ece:	ea4f 02ca 	mov.w	r2, sl, lsl #3
 8004ed2:	ea42 7259 	orr.w	r2, r2, r9, lsr #29
 8004ed6:	ea4f 01c9 	mov.w	r1, r9, lsl #3
 8004eda:	4689      	mov	r9, r1
 8004edc:	4692      	mov	sl, r2
 8004ede:	eb19 0005 	adds.w	r0, r9, r5
 8004ee2:	eb4a 0106 	adc.w	r1, sl, r6
 8004ee6:	683b      	ldr	r3, [r7, #0]
 8004ee8:	461d      	mov	r5, r3
 8004eea:	f04f 0600 	mov.w	r6, #0
 8004eee:	196b      	adds	r3, r5, r5
 8004ef0:	eb46 0406 	adc.w	r4, r6, r6
 8004ef4:	461a      	mov	r2, r3
 8004ef6:	4623      	mov	r3, r4
 8004ef8:	f7fb fe56 	bl	8000ba8 <__aeabi_uldivmod>
 8004efc:	4603      	mov	r3, r0
 8004efe:	460c      	mov	r4, r1
 8004f00:	461a      	mov	r2, r3
 8004f02:	4b9a      	ldr	r3, [pc, #616]	; (800516c <LL_USART_SetBaudRate+0x34c>)
 8004f04:	fba3 1302 	umull	r1, r3, r3, r2
 8004f08:	095b      	lsrs	r3, r3, #5
 8004f0a:	2164      	movs	r1, #100	; 0x64
 8004f0c:	fb01 f303 	mul.w	r3, r1, r3
 8004f10:	1ad3      	subs	r3, r2, r3
 8004f12:	00db      	lsls	r3, r3, #3
 8004f14:	3332      	adds	r3, #50	; 0x32
 8004f16:	4a95      	ldr	r2, [pc, #596]	; (800516c <LL_USART_SetBaudRate+0x34c>)
 8004f18:	fba2 2303 	umull	r2, r3, r2, r3
 8004f1c:	095b      	lsrs	r3, r3, #5
 8004f1e:	b29b      	uxth	r3, r3
 8004f20:	005b      	lsls	r3, r3, #1
 8004f22:	b29b      	uxth	r3, r3
 8004f24:	f403 73f8 	and.w	r3, r3, #496	; 0x1f0
 8004f28:	b29b      	uxth	r3, r3
 8004f2a:	4443      	add	r3, r8
 8004f2c:	fa1f f883 	uxth.w	r8, r3
 8004f30:	68bb      	ldr	r3, [r7, #8]
 8004f32:	461d      	mov	r5, r3
 8004f34:	f04f 0600 	mov.w	r6, #0
 8004f38:	46a9      	mov	r9, r5
 8004f3a:	46b2      	mov	sl, r6
 8004f3c:	eb19 0309 	adds.w	r3, r9, r9
 8004f40:	eb4a 040a 	adc.w	r4, sl, sl
 8004f44:	4699      	mov	r9, r3
 8004f46:	46a2      	mov	sl, r4
 8004f48:	eb19 0905 	adds.w	r9, r9, r5
 8004f4c:	eb4a 0a06 	adc.w	sl, sl, r6
 8004f50:	f04f 0100 	mov.w	r1, #0
 8004f54:	f04f 0200 	mov.w	r2, #0
 8004f58:	ea4f 02ca 	mov.w	r2, sl, lsl #3
 8004f5c:	ea42 7259 	orr.w	r2, r2, r9, lsr #29
 8004f60:	ea4f 01c9 	mov.w	r1, r9, lsl #3
 8004f64:	4689      	mov	r9, r1
 8004f66:	4692      	mov	sl, r2
 8004f68:	eb19 0005 	adds.w	r0, r9, r5
 8004f6c:	eb4a 0106 	adc.w	r1, sl, r6
 8004f70:	683b      	ldr	r3, [r7, #0]
 8004f72:	461d      	mov	r5, r3
 8004f74:	f04f 0600 	mov.w	r6, #0
 8004f78:	196b      	adds	r3, r5, r5
 8004f7a:	eb46 0406 	adc.w	r4, r6, r6
 8004f7e:	461a      	mov	r2, r3
 8004f80:	4623      	mov	r3, r4
 8004f82:	f7fb fe11 	bl	8000ba8 <__aeabi_uldivmod>
 8004f86:	4603      	mov	r3, r0
 8004f88:	460c      	mov	r4, r1
 8004f8a:	461a      	mov	r2, r3
 8004f8c:	4b77      	ldr	r3, [pc, #476]	; (800516c <LL_USART_SetBaudRate+0x34c>)
 8004f8e:	fba3 1302 	umull	r1, r3, r3, r2
 8004f92:	095b      	lsrs	r3, r3, #5
 8004f94:	2164      	movs	r1, #100	; 0x64
 8004f96:	fb01 f303 	mul.w	r3, r1, r3
 8004f9a:	1ad3      	subs	r3, r2, r3
 8004f9c:	00db      	lsls	r3, r3, #3
 8004f9e:	3332      	adds	r3, #50	; 0x32
 8004fa0:	4a72      	ldr	r2, [pc, #456]	; (800516c <LL_USART_SetBaudRate+0x34c>)
 8004fa2:	fba2 2303 	umull	r2, r3, r2, r3
 8004fa6:	095b      	lsrs	r3, r3, #5
 8004fa8:	b29b      	uxth	r3, r3
 8004faa:	f003 0307 	and.w	r3, r3, #7
 8004fae:	b29b      	uxth	r3, r3
 8004fb0:	4443      	add	r3, r8
 8004fb2:	b29b      	uxth	r3, r3
 8004fb4:	461a      	mov	r2, r3
 8004fb6:	68fb      	ldr	r3, [r7, #12]
 8004fb8:	609a      	str	r2, [r3, #8]
}
 8004fba:	e0d2      	b.n	8005162 <LL_USART_SetBaudRate+0x342>
    USARTx->BRR = (uint16_t)(__LL_USART_DIV_SAMPLING16(PeriphClk, BaudRate));
 8004fbc:	68bb      	ldr	r3, [r7, #8]
 8004fbe:	469a      	mov	sl, r3
 8004fc0:	f04f 0b00 	mov.w	fp, #0
 8004fc4:	46d0      	mov	r8, sl
 8004fc6:	46d9      	mov	r9, fp
 8004fc8:	eb18 0308 	adds.w	r3, r8, r8
 8004fcc:	eb49 0409 	adc.w	r4, r9, r9
 8004fd0:	4698      	mov	r8, r3
 8004fd2:	46a1      	mov	r9, r4
 8004fd4:	eb18 080a 	adds.w	r8, r8, sl
 8004fd8:	eb49 090b 	adc.w	r9, r9, fp
 8004fdc:	f04f 0100 	mov.w	r1, #0
 8004fe0:	f04f 0200 	mov.w	r2, #0
 8004fe4:	ea4f 02c9 	mov.w	r2, r9, lsl #3
 8004fe8:	ea42 7258 	orr.w	r2, r2, r8, lsr #29
 8004fec:	ea4f 01c8 	mov.w	r1, r8, lsl #3
 8004ff0:	4688      	mov	r8, r1
 8004ff2:	4691      	mov	r9, r2
 8004ff4:	eb1a 0508 	adds.w	r5, sl, r8
 8004ff8:	eb4b 0609 	adc.w	r6, fp, r9
 8004ffc:	683b      	ldr	r3, [r7, #0]
 8004ffe:	4619      	mov	r1, r3
 8005000:	f04f 0200 	mov.w	r2, #0
 8005004:	f04f 0300 	mov.w	r3, #0
 8005008:	f04f 0400 	mov.w	r4, #0
 800500c:	0094      	lsls	r4, r2, #2
 800500e:	ea44 7491 	orr.w	r4, r4, r1, lsr #30
 8005012:	008b      	lsls	r3, r1, #2
 8005014:	461a      	mov	r2, r3
 8005016:	4623      	mov	r3, r4
 8005018:	4628      	mov	r0, r5
 800501a:	4631      	mov	r1, r6
 800501c:	f7fb fdc4 	bl	8000ba8 <__aeabi_uldivmod>
 8005020:	4603      	mov	r3, r0
 8005022:	460c      	mov	r4, r1
 8005024:	461a      	mov	r2, r3
 8005026:	4b51      	ldr	r3, [pc, #324]	; (800516c <LL_USART_SetBaudRate+0x34c>)
 8005028:	fba3 2302 	umull	r2, r3, r3, r2
 800502c:	095b      	lsrs	r3, r3, #5
 800502e:	b29b      	uxth	r3, r3
 8005030:	011b      	lsls	r3, r3, #4
 8005032:	fa1f f883 	uxth.w	r8, r3
 8005036:	68bb      	ldr	r3, [r7, #8]
 8005038:	469b      	mov	fp, r3
 800503a:	f04f 0c00 	mov.w	ip, #0
 800503e:	46d9      	mov	r9, fp
 8005040:	46e2      	mov	sl, ip
 8005042:	eb19 0309 	adds.w	r3, r9, r9
 8005046:	eb4a 040a 	adc.w	r4, sl, sl
 800504a:	4699      	mov	r9, r3
 800504c:	46a2      	mov	sl, r4
 800504e:	eb19 090b 	adds.w	r9, r9, fp
 8005052:	eb4a 0a0c 	adc.w	sl, sl, ip
 8005056:	f04f 0100 	mov.w	r1, #0
 800505a:	f04f 0200 	mov.w	r2, #0
 800505e:	ea4f 02ca 	mov.w	r2, sl, lsl #3
 8005062:	ea42 7259 	orr.w	r2, r2, r9, lsr #29
 8005066:	ea4f 01c9 	mov.w	r1, r9, lsl #3
 800506a:	4689      	mov	r9, r1
 800506c:	4692      	mov	sl, r2
 800506e:	eb1b 0509 	adds.w	r5, fp, r9
 8005072:	eb4c 060a 	adc.w	r6, ip, sl
 8005076:	683b      	ldr	r3, [r7, #0]
 8005078:	4619      	mov	r1, r3
 800507a:	f04f 0200 	mov.w	r2, #0
 800507e:	f04f 0300 	mov.w	r3, #0
 8005082:	f04f 0400 	mov.w	r4, #0
 8005086:	0094      	lsls	r4, r2, #2
 8005088:	ea44 7491 	orr.w	r4, r4, r1, lsr #30
 800508c:	008b      	lsls	r3, r1, #2
 800508e:	461a      	mov	r2, r3
 8005090:	4623      	mov	r3, r4
 8005092:	4628      	mov	r0, r5
 8005094:	4631      	mov	r1, r6
 8005096:	f7fb fd87 	bl	8000ba8 <__aeabi_uldivmod>
 800509a:	4603      	mov	r3, r0
 800509c:	460c      	mov	r4, r1
 800509e:	461a      	mov	r2, r3
 80050a0:	4b32      	ldr	r3, [pc, #200]	; (800516c <LL_USART_SetBaudRate+0x34c>)
 80050a2:	fba3 1302 	umull	r1, r3, r3, r2
 80050a6:	095b      	lsrs	r3, r3, #5
 80050a8:	2164      	movs	r1, #100	; 0x64
 80050aa:	fb01 f303 	mul.w	r3, r1, r3
 80050ae:	1ad3      	subs	r3, r2, r3
 80050b0:	011b      	lsls	r3, r3, #4
 80050b2:	3332      	adds	r3, #50	; 0x32
 80050b4:	4a2d      	ldr	r2, [pc, #180]	; (800516c <LL_USART_SetBaudRate+0x34c>)
 80050b6:	fba2 2303 	umull	r2, r3, r2, r3
 80050ba:	095b      	lsrs	r3, r3, #5
 80050bc:	b29b      	uxth	r3, r3
 80050be:	f003 03f0 	and.w	r3, r3, #240	; 0xf0
 80050c2:	b29b      	uxth	r3, r3
 80050c4:	4443      	add	r3, r8
 80050c6:	fa1f f883 	uxth.w	r8, r3
 80050ca:	68bb      	ldr	r3, [r7, #8]
 80050cc:	469b      	mov	fp, r3
 80050ce:	f04f 0c00 	mov.w	ip, #0
 80050d2:	46d9      	mov	r9, fp
 80050d4:	46e2      	mov	sl, ip
 80050d6:	eb19 0309 	adds.w	r3, r9, r9
 80050da:	eb4a 040a 	adc.w	r4, sl, sl
 80050de:	4699      	mov	r9, r3
 80050e0:	46a2      	mov	sl, r4
 80050e2:	eb19 090b 	adds.w	r9, r9, fp
 80050e6:	eb4a 0a0c 	adc.w	sl, sl, ip
 80050ea:	f04f 0100 	mov.w	r1, #0
 80050ee:	f04f 0200 	mov.w	r2, #0
 80050f2:	ea4f 02ca 	mov.w	r2, sl, lsl #3
 80050f6:	ea42 7259 	orr.w	r2, r2, r9, lsr #29
 80050fa:	ea4f 01c9 	mov.w	r1, r9, lsl #3
 80050fe:	4689      	mov	r9, r1
 8005100:	4692      	mov	sl, r2
 8005102:	eb1b 0509 	adds.w	r5, fp, r9
 8005106:	eb4c 060a 	adc.w	r6, ip, sl
 800510a:	683b      	ldr	r3, [r7, #0]
 800510c:	4619      	mov	r1, r3
 800510e:	f04f 0200 	mov.w	r2, #0
 8005112:	f04f 0300 	mov.w	r3, #0
 8005116:	f04f 0400 	mov.w	r4, #0
 800511a:	0094      	lsls	r4, r2, #2
 800511c:	ea44 7491 	orr.w	r4, r4, r1, lsr #30
 8005120:	008b      	lsls	r3, r1, #2
 8005122:	461a      	mov	r2, r3
 8005124:	4623      	mov	r3, r4
 8005126:	4628      	mov	r0, r5
 8005128:	4631      	mov	r1, r6
 800512a:	f7fb fd3d 	bl	8000ba8 <__aeabi_uldivmod>
 800512e:	4603      	mov	r3, r0
 8005130:	460c      	mov	r4, r1
 8005132:	461a      	mov	r2, r3
 8005134:	4b0d      	ldr	r3, [pc, #52]	; (800516c <LL_USART_SetBaudRate+0x34c>)
 8005136:	fba3 1302 	umull	r1, r3, r3, r2
 800513a:	095b      	lsrs	r3, r3, #5
 800513c:	2164      	movs	r1, #100	; 0x64
 800513e:	fb01 f303 	mul.w	r3, r1, r3
 8005142:	1ad3      	subs	r3, r2, r3
 8005144:	011b      	lsls	r3, r3, #4
 8005146:	3332      	adds	r3, #50	; 0x32
 8005148:	4a08      	ldr	r2, [pc, #32]	; (800516c <LL_USART_SetBaudRate+0x34c>)
 800514a:	fba2 2303 	umull	r2, r3, r2, r3
 800514e:	095b      	lsrs	r3, r3, #5
 8005150:	b29b      	uxth	r3, r3
 8005152:	f003 030f 	and.w	r3, r3, #15
 8005156:	b29b      	uxth	r3, r3
 8005158:	4443      	add	r3, r8
 800515a:	b29b      	uxth	r3, r3
 800515c:	461a      	mov	r2, r3
 800515e:	68fb      	ldr	r3, [r7, #12]
 8005160:	609a      	str	r2, [r3, #8]
}
 8005162:	bf00      	nop
 8005164:	3714      	adds	r7, #20
 8005166:	46bd      	mov	sp, r7
 8005168:	e8bd 8ff0 	ldmia.w	sp!, {r4, r5, r6, r7, r8, r9, sl, fp, pc}
 800516c:	51eb851f 	.word	0x51eb851f

08005170 <LL_USART_Init>:
  * @retval An ErrorStatus enumeration value:
  *          - SUCCESS: USART registers are initialized according to USART_InitStruct content
  *          - ERROR: Problem occurred during USART Registers initialization
  */
ErrorStatus LL_USART_Init(USART_TypeDef *USARTx, LL_USART_InitTypeDef *USART_InitStruct)
{
 8005170:	b580      	push	{r7, lr}
 8005172:	b088      	sub	sp, #32
 8005174:	af00      	add	r7, sp, #0
 8005176:	6078      	str	r0, [r7, #4]
 8005178:	6039      	str	r1, [r7, #0]
  ErrorStatus status = ERROR;
 800517a:	2301      	movs	r3, #1
 800517c:	77fb      	strb	r3, [r7, #31]
  uint32_t periphclk = LL_RCC_PERIPH_FREQUENCY_NO;
 800517e:	2300      	movs	r3, #0
 8005180:	61bb      	str	r3, [r7, #24]
  assert_param(IS_LL_USART_HWCONTROL(USART_InitStruct->HardwareFlowControl));
  assert_param(IS_LL_USART_OVERSAMPLING(USART_InitStruct->OverSampling));

  /* USART needs to be in disabled state, in order to be able to configure some bits in
     CRx registers */
  if (LL_USART_IsEnabled(USARTx) == 0U)
 8005182:	6878      	ldr	r0, [r7, #4]
 8005184:	f7ff fe12 	bl	8004dac <LL_USART_IsEnabled>
 8005188:	4603      	mov	r3, r0
 800518a:	2b00      	cmp	r3, #0
 800518c:	d15e      	bne.n	800524c <LL_USART_Init+0xdc>
     * - DataWidth:          USART_CR1_M bits according to USART_InitStruct->DataWidth value
     * - Parity:             USART_CR1_PCE, USART_CR1_PS bits according to USART_InitStruct->Parity value
     * - TransferDirection:  USART_CR1_TE, USART_CR1_RE bits according to USART_InitStruct->TransferDirection value
     * - Oversampling:       USART_CR1_OVER8 bit according to USART_InitStruct->OverSampling value.
     */
    MODIFY_REG(USARTx->CR1,
 800518e:	687b      	ldr	r3, [r7, #4]
 8005190:	68db      	ldr	r3, [r3, #12]
 8005192:	f423 4316 	bic.w	r3, r3, #38400	; 0x9600
 8005196:	f023 030c 	bic.w	r3, r3, #12
 800519a:	683a      	ldr	r2, [r7, #0]
 800519c:	6851      	ldr	r1, [r2, #4]
 800519e:	683a      	ldr	r2, [r7, #0]
 80051a0:	68d2      	ldr	r2, [r2, #12]
 80051a2:	4311      	orrs	r1, r2
 80051a4:	683a      	ldr	r2, [r7, #0]
 80051a6:	6912      	ldr	r2, [r2, #16]
 80051a8:	4311      	orrs	r1, r2
 80051aa:	683a      	ldr	r2, [r7, #0]
 80051ac:	6992      	ldr	r2, [r2, #24]
 80051ae:	430a      	orrs	r2, r1
 80051b0:	431a      	orrs	r2, r3
 80051b2:	687b      	ldr	r3, [r7, #4]
 80051b4:	60da      	str	r2, [r3, #12]
    /*---------------------------- USART CR2 Configuration -----------------------
     * Configure USARTx CR2 (Stop bits) with parameters:
     * - Stop Bits:          USART_CR2_STOP bits according to USART_InitStruct->StopBits value.
     * - CLKEN, CPOL, CPHA and LBCL bits are to be configured using LL_USART_ClockInit().
     */
    LL_USART_SetStopBitsLength(USARTx, USART_InitStruct->StopBits);
 80051b6:	683b      	ldr	r3, [r7, #0]
 80051b8:	689b      	ldr	r3, [r3, #8]
 80051ba:	4619      	mov	r1, r3
 80051bc:	6878      	ldr	r0, [r7, #4]
 80051be:	f7ff fe09 	bl	8004dd4 <LL_USART_SetStopBitsLength>

    /*---------------------------- USART CR3 Configuration -----------------------
     * Configure USARTx CR3 (Hardware Flow Control) with parameters:
     * - HardwareFlowControl: USART_CR3_RTSE, USART_CR3_CTSE bits according to USART_InitStruct->HardwareFlowControl value.
     */
    LL_USART_SetHWFlowCtrl(USARTx, USART_InitStruct->HardwareFlowControl);
 80051c2:	683b      	ldr	r3, [r7, #0]
 80051c4:	695b      	ldr	r3, [r3, #20]
 80051c6:	4619      	mov	r1, r3
 80051c8:	6878      	ldr	r0, [r7, #4]
 80051ca:	f7ff fe16 	bl	8004dfa <LL_USART_SetHWFlowCtrl>

    /*---------------------------- USART BRR Configuration -----------------------
     * Retrieve Clock frequency used for USART Peripheral
     */
    LL_RCC_GetSystemClocksFreq(&rcc_clocks);
 80051ce:	f107 0308 	add.w	r3, r7, #8
 80051d2:	4618      	mov	r0, r3
 80051d4:	f7ff f9c4 	bl	8004560 <LL_RCC_GetSystemClocksFreq>
    if (USARTx == USART1)
 80051d8:	687b      	ldr	r3, [r7, #4]
 80051da:	4a1f      	ldr	r2, [pc, #124]	; (8005258 <LL_USART_Init+0xe8>)
 80051dc:	4293      	cmp	r3, r2
 80051de:	d102      	bne.n	80051e6 <LL_USART_Init+0x76>
    {
      periphclk = rcc_clocks.PCLK2_Frequency;
 80051e0:	697b      	ldr	r3, [r7, #20]
 80051e2:	61bb      	str	r3, [r7, #24]
 80051e4:	e021      	b.n	800522a <LL_USART_Init+0xba>
    }
    else if (USARTx == USART2)
 80051e6:	687b      	ldr	r3, [r7, #4]
 80051e8:	4a1c      	ldr	r2, [pc, #112]	; (800525c <LL_USART_Init+0xec>)
 80051ea:	4293      	cmp	r3, r2
 80051ec:	d102      	bne.n	80051f4 <LL_USART_Init+0x84>
    {
      periphclk = rcc_clocks.PCLK1_Frequency;
 80051ee:	693b      	ldr	r3, [r7, #16]
 80051f0:	61bb      	str	r3, [r7, #24]
 80051f2:	e01a      	b.n	800522a <LL_USART_Init+0xba>
    }
#if defined(USART3)
    else if (USARTx == USART3)
 80051f4:	687b      	ldr	r3, [r7, #4]
 80051f6:	4a1a      	ldr	r2, [pc, #104]	; (8005260 <LL_USART_Init+0xf0>)
 80051f8:	4293      	cmp	r3, r2
 80051fa:	d102      	bne.n	8005202 <LL_USART_Init+0x92>
    {
      periphclk = rcc_clocks.PCLK1_Frequency;
 80051fc:	693b      	ldr	r3, [r7, #16]
 80051fe:	61bb      	str	r3, [r7, #24]
 8005200:	e013      	b.n	800522a <LL_USART_Init+0xba>
    }
#endif /* USART3 */
#if defined(USART6)
    else if (USARTx == USART6)
 8005202:	687b      	ldr	r3, [r7, #4]
 8005204:	4a17      	ldr	r2, [pc, #92]	; (8005264 <LL_USART_Init+0xf4>)
 8005206:	4293      	cmp	r3, r2
 8005208:	d102      	bne.n	8005210 <LL_USART_Init+0xa0>
    {
      periphclk = rcc_clocks.PCLK2_Frequency;
 800520a:	697b      	ldr	r3, [r7, #20]
 800520c:	61bb      	str	r3, [r7, #24]
 800520e:	e00c      	b.n	800522a <LL_USART_Init+0xba>
    }
#endif /* USART6 */
#if defined(UART4)
    else if (USARTx == UART4)
 8005210:	687b      	ldr	r3, [r7, #4]
 8005212:	4a15      	ldr	r2, [pc, #84]	; (8005268 <LL_USART_Init+0xf8>)
 8005214:	4293      	cmp	r3, r2
 8005216:	d102      	bne.n	800521e <LL_USART_Init+0xae>
    {
      periphclk = rcc_clocks.PCLK1_Frequency;
 8005218:	693b      	ldr	r3, [r7, #16]
 800521a:	61bb      	str	r3, [r7, #24]
 800521c:	e005      	b.n	800522a <LL_USART_Init+0xba>
    }
#endif /* UART4 */
#if defined(UART5)
    else if (USARTx == UART5)
 800521e:	687b      	ldr	r3, [r7, #4]
 8005220:	4a12      	ldr	r2, [pc, #72]	; (800526c <LL_USART_Init+0xfc>)
 8005222:	4293      	cmp	r3, r2
 8005224:	d101      	bne.n	800522a <LL_USART_Init+0xba>
    {
      periphclk = rcc_clocks.PCLK1_Frequency;
 8005226:	693b      	ldr	r3, [r7, #16]
 8005228:	61bb      	str	r3, [r7, #24]

    /* Configure the USART Baud Rate :
       - valid baud rate value (different from 0) is required
       - Peripheral clock as returned by RCC service, should be valid (different from 0).
    */
    if ((periphclk != LL_RCC_PERIPH_FREQUENCY_NO)
 800522a:	69bb      	ldr	r3, [r7, #24]
 800522c:	2b00      	cmp	r3, #0
 800522e:	d00d      	beq.n	800524c <LL_USART_Init+0xdc>
        && (USART_InitStruct->BaudRate != 0U))
 8005230:	683b      	ldr	r3, [r7, #0]
 8005232:	681b      	ldr	r3, [r3, #0]
 8005234:	2b00      	cmp	r3, #0
 8005236:	d009      	beq.n	800524c <LL_USART_Init+0xdc>
    {
      status = SUCCESS;
 8005238:	2300      	movs	r3, #0
 800523a:	77fb      	strb	r3, [r7, #31]
      LL_USART_SetBaudRate(USARTx,
 800523c:	683b      	ldr	r3, [r7, #0]
 800523e:	699a      	ldr	r2, [r3, #24]
 8005240:	683b      	ldr	r3, [r7, #0]
 8005242:	681b      	ldr	r3, [r3, #0]
 8005244:	69b9      	ldr	r1, [r7, #24]
 8005246:	6878      	ldr	r0, [r7, #4]
 8005248:	f7ff fdea 	bl	8004e20 <LL_USART_SetBaudRate>
      assert_param(IS_LL_USART_BRR_MAX(USARTx->BRR));
    }
  }
  /* Endif (=> USART not in Disabled state => return ERROR) */

  return (status);
 800524c:	7ffb      	ldrb	r3, [r7, #31]
}
 800524e:	4618      	mov	r0, r3
 8005250:	3720      	adds	r7, #32
 8005252:	46bd      	mov	sp, r7
 8005254:	bd80      	pop	{r7, pc}
 8005256:	bf00      	nop
 8005258:	40011000 	.word	0x40011000
 800525c:	40004400 	.word	0x40004400
 8005260:	40004800 	.word	0x40004800
 8005264:	40011400 	.word	0x40011400
 8005268:	40004c00 	.word	0x40004c00
 800526c:	40005000 	.word	0x40005000

08005270 <__errno>:
 8005270:	4b01      	ldr	r3, [pc, #4]	; (8005278 <__errno+0x8>)
 8005272:	6818      	ldr	r0, [r3, #0]
 8005274:	4770      	bx	lr
 8005276:	bf00      	nop
 8005278:	2000000c 	.word	0x2000000c

0800527c <__libc_init_array>:
 800527c:	b570      	push	{r4, r5, r6, lr}
 800527e:	4e0d      	ldr	r6, [pc, #52]	; (80052b4 <__libc_init_array+0x38>)
 8005280:	4c0d      	ldr	r4, [pc, #52]	; (80052b8 <__libc_init_array+0x3c>)
 8005282:	1ba4      	subs	r4, r4, r6
 8005284:	10a4      	asrs	r4, r4, #2
 8005286:	2500      	movs	r5, #0
 8005288:	42a5      	cmp	r5, r4
 800528a:	d109      	bne.n	80052a0 <__libc_init_array+0x24>
 800528c:	4e0b      	ldr	r6, [pc, #44]	; (80052bc <__libc_init_array+0x40>)
 800528e:	4c0c      	ldr	r4, [pc, #48]	; (80052c0 <__libc_init_array+0x44>)
 8005290:	f002 fbac 	bl	80079ec <_init>
 8005294:	1ba4      	subs	r4, r4, r6
 8005296:	10a4      	asrs	r4, r4, #2
 8005298:	2500      	movs	r5, #0
 800529a:	42a5      	cmp	r5, r4
 800529c:	d105      	bne.n	80052aa <__libc_init_array+0x2e>
 800529e:	bd70      	pop	{r4, r5, r6, pc}
 80052a0:	f856 3025 	ldr.w	r3, [r6, r5, lsl #2]
 80052a4:	4798      	blx	r3
 80052a6:	3501      	adds	r5, #1
 80052a8:	e7ee      	b.n	8005288 <__libc_init_array+0xc>
 80052aa:	f856 3025 	ldr.w	r3, [r6, r5, lsl #2]
 80052ae:	4798      	blx	r3
 80052b0:	3501      	adds	r5, #1
 80052b2:	e7f2      	b.n	800529a <__libc_init_array+0x1e>
 80052b4:	08007ee0 	.word	0x08007ee0
 80052b8:	08007ee0 	.word	0x08007ee0
 80052bc:	08007ee0 	.word	0x08007ee0
 80052c0:	08007ee4 	.word	0x08007ee4

080052c4 <memset>:
 80052c4:	4402      	add	r2, r0
 80052c6:	4603      	mov	r3, r0
 80052c8:	4293      	cmp	r3, r2
 80052ca:	d100      	bne.n	80052ce <memset+0xa>
 80052cc:	4770      	bx	lr
 80052ce:	f803 1b01 	strb.w	r1, [r3], #1
 80052d2:	e7f9      	b.n	80052c8 <memset+0x4>

080052d4 <__cvt>:
 80052d4:	e92d 47ff 	stmdb	sp!, {r0, r1, r2, r3, r4, r5, r6, r7, r8, r9, sl, lr}
 80052d8:	ec55 4b10 	vmov	r4, r5, d0
 80052dc:	9f0d      	ldr	r7, [sp, #52]	; 0x34
 80052de:	f8dd a030 	ldr.w	sl, [sp, #48]	; 0x30
 80052e2:	2d00      	cmp	r5, #0
 80052e4:	460e      	mov	r6, r1
 80052e6:	4691      	mov	r9, r2
 80052e8:	4619      	mov	r1, r3
 80052ea:	bfb8      	it	lt
 80052ec:	4622      	movlt	r2, r4
 80052ee:	462b      	mov	r3, r5
 80052f0:	f027 0720 	bic.w	r7, r7, #32
 80052f4:	bfbb      	ittet	lt
 80052f6:	f105 4300 	addlt.w	r3, r5, #2147483648	; 0x80000000
 80052fa:	461d      	movlt	r5, r3
 80052fc:	2300      	movge	r3, #0
 80052fe:	232d      	movlt	r3, #45	; 0x2d
 8005300:	bfb8      	it	lt
 8005302:	4614      	movlt	r4, r2
 8005304:	2f46      	cmp	r7, #70	; 0x46
 8005306:	700b      	strb	r3, [r1, #0]
 8005308:	d004      	beq.n	8005314 <__cvt+0x40>
 800530a:	2f45      	cmp	r7, #69	; 0x45
 800530c:	d100      	bne.n	8005310 <__cvt+0x3c>
 800530e:	3601      	adds	r6, #1
 8005310:	2102      	movs	r1, #2
 8005312:	e000      	b.n	8005316 <__cvt+0x42>
 8005314:	2103      	movs	r1, #3
 8005316:	ab03      	add	r3, sp, #12
 8005318:	9301      	str	r3, [sp, #4]
 800531a:	ab02      	add	r3, sp, #8
 800531c:	9300      	str	r3, [sp, #0]
 800531e:	4632      	mov	r2, r6
 8005320:	4653      	mov	r3, sl
 8005322:	ec45 4b10 	vmov	d0, r4, r5
 8005326:	f000 fdfb 	bl	8005f20 <_dtoa_r>
 800532a:	2f47      	cmp	r7, #71	; 0x47
 800532c:	4680      	mov	r8, r0
 800532e:	d102      	bne.n	8005336 <__cvt+0x62>
 8005330:	f019 0f01 	tst.w	r9, #1
 8005334:	d026      	beq.n	8005384 <__cvt+0xb0>
 8005336:	2f46      	cmp	r7, #70	; 0x46
 8005338:	eb08 0906 	add.w	r9, r8, r6
 800533c:	d111      	bne.n	8005362 <__cvt+0x8e>
 800533e:	f898 3000 	ldrb.w	r3, [r8]
 8005342:	2b30      	cmp	r3, #48	; 0x30
 8005344:	d10a      	bne.n	800535c <__cvt+0x88>
 8005346:	2200      	movs	r2, #0
 8005348:	2300      	movs	r3, #0
 800534a:	4620      	mov	r0, r4
 800534c:	4629      	mov	r1, r5
 800534e:	f7fb fbbb 	bl	8000ac8 <__aeabi_dcmpeq>
 8005352:	b918      	cbnz	r0, 800535c <__cvt+0x88>
 8005354:	f1c6 0601 	rsb	r6, r6, #1
 8005358:	f8ca 6000 	str.w	r6, [sl]
 800535c:	f8da 3000 	ldr.w	r3, [sl]
 8005360:	4499      	add	r9, r3
 8005362:	2200      	movs	r2, #0
 8005364:	2300      	movs	r3, #0
 8005366:	4620      	mov	r0, r4
 8005368:	4629      	mov	r1, r5
 800536a:	f7fb fbad 	bl	8000ac8 <__aeabi_dcmpeq>
 800536e:	b938      	cbnz	r0, 8005380 <__cvt+0xac>
 8005370:	2230      	movs	r2, #48	; 0x30
 8005372:	9b03      	ldr	r3, [sp, #12]
 8005374:	454b      	cmp	r3, r9
 8005376:	d205      	bcs.n	8005384 <__cvt+0xb0>
 8005378:	1c59      	adds	r1, r3, #1
 800537a:	9103      	str	r1, [sp, #12]
 800537c:	701a      	strb	r2, [r3, #0]
 800537e:	e7f8      	b.n	8005372 <__cvt+0x9e>
 8005380:	f8cd 900c 	str.w	r9, [sp, #12]
 8005384:	9b03      	ldr	r3, [sp, #12]
 8005386:	9a0e      	ldr	r2, [sp, #56]	; 0x38
 8005388:	eba3 0308 	sub.w	r3, r3, r8
 800538c:	4640      	mov	r0, r8
 800538e:	6013      	str	r3, [r2, #0]
 8005390:	b004      	add	sp, #16
 8005392:	e8bd 87f0 	ldmia.w	sp!, {r4, r5, r6, r7, r8, r9, sl, pc}

08005396 <__exponent>:
 8005396:	b5f7      	push	{r0, r1, r2, r4, r5, r6, r7, lr}
 8005398:	2900      	cmp	r1, #0
 800539a:	4604      	mov	r4, r0
 800539c:	bfba      	itte	lt
 800539e:	4249      	neglt	r1, r1
 80053a0:	232d      	movlt	r3, #45	; 0x2d
 80053a2:	232b      	movge	r3, #43	; 0x2b
 80053a4:	2909      	cmp	r1, #9
 80053a6:	f804 2b02 	strb.w	r2, [r4], #2
 80053aa:	7043      	strb	r3, [r0, #1]
 80053ac:	dd20      	ble.n	80053f0 <__exponent+0x5a>
 80053ae:	f10d 0307 	add.w	r3, sp, #7
 80053b2:	461f      	mov	r7, r3
 80053b4:	260a      	movs	r6, #10
 80053b6:	fb91 f5f6 	sdiv	r5, r1, r6
 80053ba:	fb06 1115 	mls	r1, r6, r5, r1
 80053be:	3130      	adds	r1, #48	; 0x30
 80053c0:	2d09      	cmp	r5, #9
 80053c2:	f803 1c01 	strb.w	r1, [r3, #-1]
 80053c6:	f103 32ff 	add.w	r2, r3, #4294967295
 80053ca:	4629      	mov	r1, r5
 80053cc:	dc09      	bgt.n	80053e2 <__exponent+0x4c>
 80053ce:	3130      	adds	r1, #48	; 0x30
 80053d0:	3b02      	subs	r3, #2
 80053d2:	f802 1c01 	strb.w	r1, [r2, #-1]
 80053d6:	42bb      	cmp	r3, r7
 80053d8:	4622      	mov	r2, r4
 80053da:	d304      	bcc.n	80053e6 <__exponent+0x50>
 80053dc:	1a10      	subs	r0, r2, r0
 80053de:	b003      	add	sp, #12
 80053e0:	bdf0      	pop	{r4, r5, r6, r7, pc}
 80053e2:	4613      	mov	r3, r2
 80053e4:	e7e7      	b.n	80053b6 <__exponent+0x20>
 80053e6:	f813 2b01 	ldrb.w	r2, [r3], #1
 80053ea:	f804 2b01 	strb.w	r2, [r4], #1
 80053ee:	e7f2      	b.n	80053d6 <__exponent+0x40>
 80053f0:	2330      	movs	r3, #48	; 0x30
 80053f2:	4419      	add	r1, r3
 80053f4:	7083      	strb	r3, [r0, #2]
 80053f6:	1d02      	adds	r2, r0, #4
 80053f8:	70c1      	strb	r1, [r0, #3]
 80053fa:	e7ef      	b.n	80053dc <__exponent+0x46>

080053fc <_printf_float>:
 80053fc:	e92d 4ff0 	stmdb	sp!, {r4, r5, r6, r7, r8, r9, sl, fp, lr}
 8005400:	b08d      	sub	sp, #52	; 0x34
 8005402:	460c      	mov	r4, r1
 8005404:	f8dd 8058 	ldr.w	r8, [sp, #88]	; 0x58
 8005408:	4616      	mov	r6, r2
 800540a:	461f      	mov	r7, r3
 800540c:	4605      	mov	r5, r0
 800540e:	f001 fcb9 	bl	8006d84 <_localeconv_r>
 8005412:	6803      	ldr	r3, [r0, #0]
 8005414:	9304      	str	r3, [sp, #16]
 8005416:	4618      	mov	r0, r3
 8005418:	f7fa feda 	bl	80001d0 <strlen>
 800541c:	2300      	movs	r3, #0
 800541e:	930a      	str	r3, [sp, #40]	; 0x28
 8005420:	f8d8 3000 	ldr.w	r3, [r8]
 8005424:	9005      	str	r0, [sp, #20]
 8005426:	3307      	adds	r3, #7
 8005428:	f023 0307 	bic.w	r3, r3, #7
 800542c:	f103 0208 	add.w	r2, r3, #8
 8005430:	f894 a018 	ldrb.w	sl, [r4, #24]
 8005434:	f8d4 b000 	ldr.w	fp, [r4]
 8005438:	f8c8 2000 	str.w	r2, [r8]
 800543c:	e9d3 2300 	ldrd	r2, r3, [r3]
 8005440:	e9c4 2312 	strd	r2, r3, [r4, #72]	; 0x48
 8005444:	e9d4 8912 	ldrd	r8, r9, [r4, #72]	; 0x48
 8005448:	f029 4300 	bic.w	r3, r9, #2147483648	; 0x80000000
 800544c:	9307      	str	r3, [sp, #28]
 800544e:	f8cd 8018 	str.w	r8, [sp, #24]
 8005452:	f04f 32ff 	mov.w	r2, #4294967295
 8005456:	4ba7      	ldr	r3, [pc, #668]	; (80056f4 <_printf_float+0x2f8>)
 8005458:	e9dd 0106 	ldrd	r0, r1, [sp, #24]
 800545c:	f7fb fb66 	bl	8000b2c <__aeabi_dcmpun>
 8005460:	bb70      	cbnz	r0, 80054c0 <_printf_float+0xc4>
 8005462:	f04f 32ff 	mov.w	r2, #4294967295
 8005466:	4ba3      	ldr	r3, [pc, #652]	; (80056f4 <_printf_float+0x2f8>)
 8005468:	e9dd 0106 	ldrd	r0, r1, [sp, #24]
 800546c:	f7fb fb40 	bl	8000af0 <__aeabi_dcmple>
 8005470:	bb30      	cbnz	r0, 80054c0 <_printf_float+0xc4>
 8005472:	2200      	movs	r2, #0
 8005474:	2300      	movs	r3, #0
 8005476:	4640      	mov	r0, r8
 8005478:	4649      	mov	r1, r9
 800547a:	f7fb fb2f 	bl	8000adc <__aeabi_dcmplt>
 800547e:	b110      	cbz	r0, 8005486 <_printf_float+0x8a>
 8005480:	232d      	movs	r3, #45	; 0x2d
 8005482:	f884 3043 	strb.w	r3, [r4, #67]	; 0x43
 8005486:	4a9c      	ldr	r2, [pc, #624]	; (80056f8 <_printf_float+0x2fc>)
 8005488:	4b9c      	ldr	r3, [pc, #624]	; (80056fc <_printf_float+0x300>)
 800548a:	f1ba 0f47 	cmp.w	sl, #71	; 0x47
 800548e:	bf8c      	ite	hi
 8005490:	4690      	movhi	r8, r2
 8005492:	4698      	movls	r8, r3
 8005494:	2303      	movs	r3, #3
 8005496:	f02b 0204 	bic.w	r2, fp, #4
 800549a:	6123      	str	r3, [r4, #16]
 800549c:	6022      	str	r2, [r4, #0]
 800549e:	f04f 0900 	mov.w	r9, #0
 80054a2:	9700      	str	r7, [sp, #0]
 80054a4:	4633      	mov	r3, r6
 80054a6:	aa0b      	add	r2, sp, #44	; 0x2c
 80054a8:	4621      	mov	r1, r4
 80054aa:	4628      	mov	r0, r5
 80054ac:	f000 f9e6 	bl	800587c <_printf_common>
 80054b0:	3001      	adds	r0, #1
 80054b2:	f040 808d 	bne.w	80055d0 <_printf_float+0x1d4>
 80054b6:	f04f 30ff 	mov.w	r0, #4294967295
 80054ba:	b00d      	add	sp, #52	; 0x34
 80054bc:	e8bd 8ff0 	ldmia.w	sp!, {r4, r5, r6, r7, r8, r9, sl, fp, pc}
 80054c0:	4642      	mov	r2, r8
 80054c2:	464b      	mov	r3, r9
 80054c4:	4640      	mov	r0, r8
 80054c6:	4649      	mov	r1, r9
 80054c8:	f7fb fb30 	bl	8000b2c <__aeabi_dcmpun>
 80054cc:	b110      	cbz	r0, 80054d4 <_printf_float+0xd8>
 80054ce:	4a8c      	ldr	r2, [pc, #560]	; (8005700 <_printf_float+0x304>)
 80054d0:	4b8c      	ldr	r3, [pc, #560]	; (8005704 <_printf_float+0x308>)
 80054d2:	e7da      	b.n	800548a <_printf_float+0x8e>
 80054d4:	6861      	ldr	r1, [r4, #4]
 80054d6:	1c4b      	adds	r3, r1, #1
 80054d8:	f44b 6280 	orr.w	r2, fp, #1024	; 0x400
 80054dc:	a80a      	add	r0, sp, #40	; 0x28
 80054de:	d13e      	bne.n	800555e <_printf_float+0x162>
 80054e0:	2306      	movs	r3, #6
 80054e2:	6063      	str	r3, [r4, #4]
 80054e4:	2300      	movs	r3, #0
 80054e6:	e9cd 0302 	strd	r0, r3, [sp, #8]
 80054ea:	ab09      	add	r3, sp, #36	; 0x24
 80054ec:	9300      	str	r3, [sp, #0]
 80054ee:	ec49 8b10 	vmov	d0, r8, r9
 80054f2:	f10d 0323 	add.w	r3, sp, #35	; 0x23
 80054f6:	6022      	str	r2, [r4, #0]
 80054f8:	f8cd a004 	str.w	sl, [sp, #4]
 80054fc:	6861      	ldr	r1, [r4, #4]
 80054fe:	4628      	mov	r0, r5
 8005500:	f7ff fee8 	bl	80052d4 <__cvt>
 8005504:	f00a 03df 	and.w	r3, sl, #223	; 0xdf
 8005508:	2b47      	cmp	r3, #71	; 0x47
 800550a:	4680      	mov	r8, r0
 800550c:	d109      	bne.n	8005522 <_printf_float+0x126>
 800550e:	9b09      	ldr	r3, [sp, #36]	; 0x24
 8005510:	1cd8      	adds	r0, r3, #3
 8005512:	db02      	blt.n	800551a <_printf_float+0x11e>
 8005514:	6862      	ldr	r2, [r4, #4]
 8005516:	4293      	cmp	r3, r2
 8005518:	dd47      	ble.n	80055aa <_printf_float+0x1ae>
 800551a:	f1aa 0a02 	sub.w	sl, sl, #2
 800551e:	fa5f fa8a 	uxtb.w	sl, sl
 8005522:	f1ba 0f65 	cmp.w	sl, #101	; 0x65
 8005526:	9909      	ldr	r1, [sp, #36]	; 0x24
 8005528:	d824      	bhi.n	8005574 <_printf_float+0x178>
 800552a:	3901      	subs	r1, #1
 800552c:	4652      	mov	r2, sl
 800552e:	f104 0050 	add.w	r0, r4, #80	; 0x50
 8005532:	9109      	str	r1, [sp, #36]	; 0x24
 8005534:	f7ff ff2f 	bl	8005396 <__exponent>
 8005538:	9a0a      	ldr	r2, [sp, #40]	; 0x28
 800553a:	1813      	adds	r3, r2, r0
 800553c:	2a01      	cmp	r2, #1
 800553e:	4681      	mov	r9, r0
 8005540:	6123      	str	r3, [r4, #16]
 8005542:	dc02      	bgt.n	800554a <_printf_float+0x14e>
 8005544:	6822      	ldr	r2, [r4, #0]
 8005546:	07d1      	lsls	r1, r2, #31
 8005548:	d501      	bpl.n	800554e <_printf_float+0x152>
 800554a:	3301      	adds	r3, #1
 800554c:	6123      	str	r3, [r4, #16]
 800554e:	f89d 3023 	ldrb.w	r3, [sp, #35]	; 0x23
 8005552:	2b00      	cmp	r3, #0
 8005554:	d0a5      	beq.n	80054a2 <_printf_float+0xa6>
 8005556:	232d      	movs	r3, #45	; 0x2d
 8005558:	f884 3043 	strb.w	r3, [r4, #67]	; 0x43
 800555c:	e7a1      	b.n	80054a2 <_printf_float+0xa6>
 800555e:	f1ba 0f67 	cmp.w	sl, #103	; 0x67
 8005562:	f000 8177 	beq.w	8005854 <_printf_float+0x458>
 8005566:	f1ba 0f47 	cmp.w	sl, #71	; 0x47
 800556a:	d1bb      	bne.n	80054e4 <_printf_float+0xe8>
 800556c:	2900      	cmp	r1, #0
 800556e:	d1b9      	bne.n	80054e4 <_printf_float+0xe8>
 8005570:	2301      	movs	r3, #1
 8005572:	e7b6      	b.n	80054e2 <_printf_float+0xe6>
 8005574:	f1ba 0f66 	cmp.w	sl, #102	; 0x66
 8005578:	d119      	bne.n	80055ae <_printf_float+0x1b2>
 800557a:	2900      	cmp	r1, #0
 800557c:	6863      	ldr	r3, [r4, #4]
 800557e:	dd0c      	ble.n	800559a <_printf_float+0x19e>
 8005580:	6121      	str	r1, [r4, #16]
 8005582:	b913      	cbnz	r3, 800558a <_printf_float+0x18e>
 8005584:	6822      	ldr	r2, [r4, #0]
 8005586:	07d2      	lsls	r2, r2, #31
 8005588:	d502      	bpl.n	8005590 <_printf_float+0x194>
 800558a:	3301      	adds	r3, #1
 800558c:	440b      	add	r3, r1
 800558e:	6123      	str	r3, [r4, #16]
 8005590:	9b09      	ldr	r3, [sp, #36]	; 0x24
 8005592:	65a3      	str	r3, [r4, #88]	; 0x58
 8005594:	f04f 0900 	mov.w	r9, #0
 8005598:	e7d9      	b.n	800554e <_printf_float+0x152>
 800559a:	b913      	cbnz	r3, 80055a2 <_printf_float+0x1a6>
 800559c:	6822      	ldr	r2, [r4, #0]
 800559e:	07d0      	lsls	r0, r2, #31
 80055a0:	d501      	bpl.n	80055a6 <_printf_float+0x1aa>
 80055a2:	3302      	adds	r3, #2
 80055a4:	e7f3      	b.n	800558e <_printf_float+0x192>
 80055a6:	2301      	movs	r3, #1
 80055a8:	e7f1      	b.n	800558e <_printf_float+0x192>
 80055aa:	f04f 0a67 	mov.w	sl, #103	; 0x67
 80055ae:	e9dd 3209 	ldrd	r3, r2, [sp, #36]	; 0x24
 80055b2:	4293      	cmp	r3, r2
 80055b4:	db05      	blt.n	80055c2 <_printf_float+0x1c6>
 80055b6:	6822      	ldr	r2, [r4, #0]
 80055b8:	6123      	str	r3, [r4, #16]
 80055ba:	07d1      	lsls	r1, r2, #31
 80055bc:	d5e8      	bpl.n	8005590 <_printf_float+0x194>
 80055be:	3301      	adds	r3, #1
 80055c0:	e7e5      	b.n	800558e <_printf_float+0x192>
 80055c2:	2b00      	cmp	r3, #0
 80055c4:	bfd4      	ite	le
 80055c6:	f1c3 0302 	rsble	r3, r3, #2
 80055ca:	2301      	movgt	r3, #1
 80055cc:	4413      	add	r3, r2
 80055ce:	e7de      	b.n	800558e <_printf_float+0x192>
 80055d0:	6823      	ldr	r3, [r4, #0]
 80055d2:	055a      	lsls	r2, r3, #21
 80055d4:	d407      	bmi.n	80055e6 <_printf_float+0x1ea>
 80055d6:	6923      	ldr	r3, [r4, #16]
 80055d8:	4642      	mov	r2, r8
 80055da:	4631      	mov	r1, r6
 80055dc:	4628      	mov	r0, r5
 80055de:	47b8      	blx	r7
 80055e0:	3001      	adds	r0, #1
 80055e2:	d12b      	bne.n	800563c <_printf_float+0x240>
 80055e4:	e767      	b.n	80054b6 <_printf_float+0xba>
 80055e6:	f1ba 0f65 	cmp.w	sl, #101	; 0x65
 80055ea:	f240 80dc 	bls.w	80057a6 <_printf_float+0x3aa>
 80055ee:	2200      	movs	r2, #0
 80055f0:	2300      	movs	r3, #0
 80055f2:	e9d4 0112 	ldrd	r0, r1, [r4, #72]	; 0x48
 80055f6:	f7fb fa67 	bl	8000ac8 <__aeabi_dcmpeq>
 80055fa:	2800      	cmp	r0, #0
 80055fc:	d033      	beq.n	8005666 <_printf_float+0x26a>
 80055fe:	2301      	movs	r3, #1
 8005600:	4a41      	ldr	r2, [pc, #260]	; (8005708 <_printf_float+0x30c>)
 8005602:	4631      	mov	r1, r6
 8005604:	4628      	mov	r0, r5
 8005606:	47b8      	blx	r7
 8005608:	3001      	adds	r0, #1
 800560a:	f43f af54 	beq.w	80054b6 <_printf_float+0xba>
 800560e:	e9dd 2309 	ldrd	r2, r3, [sp, #36]	; 0x24
 8005612:	429a      	cmp	r2, r3
 8005614:	db02      	blt.n	800561c <_printf_float+0x220>
 8005616:	6823      	ldr	r3, [r4, #0]
 8005618:	07d8      	lsls	r0, r3, #31
 800561a:	d50f      	bpl.n	800563c <_printf_float+0x240>
 800561c:	e9dd 2304 	ldrd	r2, r3, [sp, #16]
 8005620:	4631      	mov	r1, r6
 8005622:	4628      	mov	r0, r5
 8005624:	47b8      	blx	r7
 8005626:	3001      	adds	r0, #1
 8005628:	f43f af45 	beq.w	80054b6 <_printf_float+0xba>
 800562c:	f04f 0800 	mov.w	r8, #0
 8005630:	f104 091a 	add.w	r9, r4, #26
 8005634:	9b0a      	ldr	r3, [sp, #40]	; 0x28
 8005636:	3b01      	subs	r3, #1
 8005638:	4543      	cmp	r3, r8
 800563a:	dc09      	bgt.n	8005650 <_printf_float+0x254>
 800563c:	6823      	ldr	r3, [r4, #0]
 800563e:	079b      	lsls	r3, r3, #30
 8005640:	f100 8103 	bmi.w	800584a <_printf_float+0x44e>
 8005644:	68e0      	ldr	r0, [r4, #12]
 8005646:	9b0b      	ldr	r3, [sp, #44]	; 0x2c
 8005648:	4298      	cmp	r0, r3
 800564a:	bfb8      	it	lt
 800564c:	4618      	movlt	r0, r3
 800564e:	e734      	b.n	80054ba <_printf_float+0xbe>
 8005650:	2301      	movs	r3, #1
 8005652:	464a      	mov	r2, r9
 8005654:	4631      	mov	r1, r6
 8005656:	4628      	mov	r0, r5
 8005658:	47b8      	blx	r7
 800565a:	3001      	adds	r0, #1
 800565c:	f43f af2b 	beq.w	80054b6 <_printf_float+0xba>
 8005660:	f108 0801 	add.w	r8, r8, #1
 8005664:	e7e6      	b.n	8005634 <_printf_float+0x238>
 8005666:	9b09      	ldr	r3, [sp, #36]	; 0x24
 8005668:	2b00      	cmp	r3, #0
 800566a:	dc2b      	bgt.n	80056c4 <_printf_float+0x2c8>
 800566c:	2301      	movs	r3, #1
 800566e:	4a26      	ldr	r2, [pc, #152]	; (8005708 <_printf_float+0x30c>)
 8005670:	4631      	mov	r1, r6
 8005672:	4628      	mov	r0, r5
 8005674:	47b8      	blx	r7
 8005676:	3001      	adds	r0, #1
 8005678:	f43f af1d 	beq.w	80054b6 <_printf_float+0xba>
 800567c:	9b09      	ldr	r3, [sp, #36]	; 0x24
 800567e:	b923      	cbnz	r3, 800568a <_printf_float+0x28e>
 8005680:	9b0a      	ldr	r3, [sp, #40]	; 0x28
 8005682:	b913      	cbnz	r3, 800568a <_printf_float+0x28e>
 8005684:	6823      	ldr	r3, [r4, #0]
 8005686:	07d9      	lsls	r1, r3, #31
 8005688:	d5d8      	bpl.n	800563c <_printf_float+0x240>
 800568a:	e9dd 2304 	ldrd	r2, r3, [sp, #16]
 800568e:	4631      	mov	r1, r6
 8005690:	4628      	mov	r0, r5
 8005692:	47b8      	blx	r7
 8005694:	3001      	adds	r0, #1
 8005696:	f43f af0e 	beq.w	80054b6 <_printf_float+0xba>
 800569a:	f04f 0900 	mov.w	r9, #0
 800569e:	f104 0a1a 	add.w	sl, r4, #26
 80056a2:	9b09      	ldr	r3, [sp, #36]	; 0x24
 80056a4:	425b      	negs	r3, r3
 80056a6:	454b      	cmp	r3, r9
 80056a8:	dc01      	bgt.n	80056ae <_printf_float+0x2b2>
 80056aa:	9b0a      	ldr	r3, [sp, #40]	; 0x28
 80056ac:	e794      	b.n	80055d8 <_printf_float+0x1dc>
 80056ae:	2301      	movs	r3, #1
 80056b0:	4652      	mov	r2, sl
 80056b2:	4631      	mov	r1, r6
 80056b4:	4628      	mov	r0, r5
 80056b6:	47b8      	blx	r7
 80056b8:	3001      	adds	r0, #1
 80056ba:	f43f aefc 	beq.w	80054b6 <_printf_float+0xba>
 80056be:	f109 0901 	add.w	r9, r9, #1
 80056c2:	e7ee      	b.n	80056a2 <_printf_float+0x2a6>
 80056c4:	9a0a      	ldr	r2, [sp, #40]	; 0x28
 80056c6:	6da3      	ldr	r3, [r4, #88]	; 0x58
 80056c8:	429a      	cmp	r2, r3
 80056ca:	bfa8      	it	ge
 80056cc:	461a      	movge	r2, r3
 80056ce:	2a00      	cmp	r2, #0
 80056d0:	4691      	mov	r9, r2
 80056d2:	dd07      	ble.n	80056e4 <_printf_float+0x2e8>
 80056d4:	4613      	mov	r3, r2
 80056d6:	4631      	mov	r1, r6
 80056d8:	4642      	mov	r2, r8
 80056da:	4628      	mov	r0, r5
 80056dc:	47b8      	blx	r7
 80056de:	3001      	adds	r0, #1
 80056e0:	f43f aee9 	beq.w	80054b6 <_printf_float+0xba>
 80056e4:	f104 031a 	add.w	r3, r4, #26
 80056e8:	f04f 0b00 	mov.w	fp, #0
 80056ec:	ea29 79e9 	bic.w	r9, r9, r9, asr #31
 80056f0:	9306      	str	r3, [sp, #24]
 80056f2:	e015      	b.n	8005720 <_printf_float+0x324>
 80056f4:	7fefffff 	.word	0x7fefffff
 80056f8:	08007c20 	.word	0x08007c20
 80056fc:	08007c1c 	.word	0x08007c1c
 8005700:	08007c28 	.word	0x08007c28
 8005704:	08007c24 	.word	0x08007c24
 8005708:	08007c2c 	.word	0x08007c2c
 800570c:	2301      	movs	r3, #1
 800570e:	9a06      	ldr	r2, [sp, #24]
 8005710:	4631      	mov	r1, r6
 8005712:	4628      	mov	r0, r5
 8005714:	47b8      	blx	r7
 8005716:	3001      	adds	r0, #1
 8005718:	f43f aecd 	beq.w	80054b6 <_printf_float+0xba>
 800571c:	f10b 0b01 	add.w	fp, fp, #1
 8005720:	f8d4 a058 	ldr.w	sl, [r4, #88]	; 0x58
 8005724:	ebaa 0309 	sub.w	r3, sl, r9
 8005728:	455b      	cmp	r3, fp
 800572a:	dcef      	bgt.n	800570c <_printf_float+0x310>
 800572c:	e9dd 2309 	ldrd	r2, r3, [sp, #36]	; 0x24
 8005730:	429a      	cmp	r2, r3
 8005732:	44d0      	add	r8, sl
 8005734:	db15      	blt.n	8005762 <_printf_float+0x366>
 8005736:	6823      	ldr	r3, [r4, #0]
 8005738:	07da      	lsls	r2, r3, #31
 800573a:	d412      	bmi.n	8005762 <_printf_float+0x366>
 800573c:	9b0a      	ldr	r3, [sp, #40]	; 0x28
 800573e:	9909      	ldr	r1, [sp, #36]	; 0x24
 8005740:	eba3 020a 	sub.w	r2, r3, sl
 8005744:	eba3 0a01 	sub.w	sl, r3, r1
 8005748:	4592      	cmp	sl, r2
 800574a:	bfa8      	it	ge
 800574c:	4692      	movge	sl, r2
 800574e:	f1ba 0f00 	cmp.w	sl, #0
 8005752:	dc0e      	bgt.n	8005772 <_printf_float+0x376>
 8005754:	f04f 0800 	mov.w	r8, #0
 8005758:	ea2a 7aea 	bic.w	sl, sl, sl, asr #31
 800575c:	f104 091a 	add.w	r9, r4, #26
 8005760:	e019      	b.n	8005796 <_printf_float+0x39a>
 8005762:	e9dd 2304 	ldrd	r2, r3, [sp, #16]
 8005766:	4631      	mov	r1, r6
 8005768:	4628      	mov	r0, r5
 800576a:	47b8      	blx	r7
 800576c:	3001      	adds	r0, #1
 800576e:	d1e5      	bne.n	800573c <_printf_float+0x340>
 8005770:	e6a1      	b.n	80054b6 <_printf_float+0xba>
 8005772:	4653      	mov	r3, sl
 8005774:	4642      	mov	r2, r8
 8005776:	4631      	mov	r1, r6
 8005778:	4628      	mov	r0, r5
 800577a:	47b8      	blx	r7
 800577c:	3001      	adds	r0, #1
 800577e:	d1e9      	bne.n	8005754 <_printf_float+0x358>
 8005780:	e699      	b.n	80054b6 <_printf_float+0xba>
 8005782:	2301      	movs	r3, #1
 8005784:	464a      	mov	r2, r9
 8005786:	4631      	mov	r1, r6
 8005788:	4628      	mov	r0, r5
 800578a:	47b8      	blx	r7
 800578c:	3001      	adds	r0, #1
 800578e:	f43f ae92 	beq.w	80054b6 <_printf_float+0xba>
 8005792:	f108 0801 	add.w	r8, r8, #1
 8005796:	e9dd 2309 	ldrd	r2, r3, [sp, #36]	; 0x24
 800579a:	1a9b      	subs	r3, r3, r2
 800579c:	eba3 030a 	sub.w	r3, r3, sl
 80057a0:	4543      	cmp	r3, r8
 80057a2:	dcee      	bgt.n	8005782 <_printf_float+0x386>
 80057a4:	e74a      	b.n	800563c <_printf_float+0x240>
 80057a6:	9a0a      	ldr	r2, [sp, #40]	; 0x28
 80057a8:	2a01      	cmp	r2, #1
 80057aa:	dc01      	bgt.n	80057b0 <_printf_float+0x3b4>
 80057ac:	07db      	lsls	r3, r3, #31
 80057ae:	d53a      	bpl.n	8005826 <_printf_float+0x42a>
 80057b0:	2301      	movs	r3, #1
 80057b2:	4642      	mov	r2, r8
 80057b4:	4631      	mov	r1, r6
 80057b6:	4628      	mov	r0, r5
 80057b8:	47b8      	blx	r7
 80057ba:	3001      	adds	r0, #1
 80057bc:	f43f ae7b 	beq.w	80054b6 <_printf_float+0xba>
 80057c0:	e9dd 2304 	ldrd	r2, r3, [sp, #16]
 80057c4:	4631      	mov	r1, r6
 80057c6:	4628      	mov	r0, r5
 80057c8:	47b8      	blx	r7
 80057ca:	3001      	adds	r0, #1
 80057cc:	f108 0801 	add.w	r8, r8, #1
 80057d0:	f43f ae71 	beq.w	80054b6 <_printf_float+0xba>
 80057d4:	9b0a      	ldr	r3, [sp, #40]	; 0x28
 80057d6:	2200      	movs	r2, #0
 80057d8:	f103 3aff 	add.w	sl, r3, #4294967295
 80057dc:	e9d4 0112 	ldrd	r0, r1, [r4, #72]	; 0x48
 80057e0:	2300      	movs	r3, #0
 80057e2:	f7fb f971 	bl	8000ac8 <__aeabi_dcmpeq>
 80057e6:	b9c8      	cbnz	r0, 800581c <_printf_float+0x420>
 80057e8:	4653      	mov	r3, sl
 80057ea:	4642      	mov	r2, r8
 80057ec:	4631      	mov	r1, r6
 80057ee:	4628      	mov	r0, r5
 80057f0:	47b8      	blx	r7
 80057f2:	3001      	adds	r0, #1
 80057f4:	d10e      	bne.n	8005814 <_printf_float+0x418>
 80057f6:	e65e      	b.n	80054b6 <_printf_float+0xba>
 80057f8:	2301      	movs	r3, #1
 80057fa:	4652      	mov	r2, sl
 80057fc:	4631      	mov	r1, r6
 80057fe:	4628      	mov	r0, r5
 8005800:	47b8      	blx	r7
 8005802:	3001      	adds	r0, #1
 8005804:	f43f ae57 	beq.w	80054b6 <_printf_float+0xba>
 8005808:	f108 0801 	add.w	r8, r8, #1
 800580c:	9b0a      	ldr	r3, [sp, #40]	; 0x28
 800580e:	3b01      	subs	r3, #1
 8005810:	4543      	cmp	r3, r8
 8005812:	dcf1      	bgt.n	80057f8 <_printf_float+0x3fc>
 8005814:	464b      	mov	r3, r9
 8005816:	f104 0250 	add.w	r2, r4, #80	; 0x50
 800581a:	e6de      	b.n	80055da <_printf_float+0x1de>
 800581c:	f04f 0800 	mov.w	r8, #0
 8005820:	f104 0a1a 	add.w	sl, r4, #26
 8005824:	e7f2      	b.n	800580c <_printf_float+0x410>
 8005826:	2301      	movs	r3, #1
 8005828:	e7df      	b.n	80057ea <_printf_float+0x3ee>
 800582a:	2301      	movs	r3, #1
 800582c:	464a      	mov	r2, r9
 800582e:	4631      	mov	r1, r6
 8005830:	4628      	mov	r0, r5
 8005832:	47b8      	blx	r7
 8005834:	3001      	adds	r0, #1
 8005836:	f43f ae3e 	beq.w	80054b6 <_printf_float+0xba>
 800583a:	f108 0801 	add.w	r8, r8, #1
 800583e:	68e3      	ldr	r3, [r4, #12]
 8005840:	9a0b      	ldr	r2, [sp, #44]	; 0x2c
 8005842:	1a9b      	subs	r3, r3, r2
 8005844:	4543      	cmp	r3, r8
 8005846:	dcf0      	bgt.n	800582a <_printf_float+0x42e>
 8005848:	e6fc      	b.n	8005644 <_printf_float+0x248>
 800584a:	f04f 0800 	mov.w	r8, #0
 800584e:	f104 0919 	add.w	r9, r4, #25
 8005852:	e7f4      	b.n	800583e <_printf_float+0x442>
 8005854:	2900      	cmp	r1, #0
 8005856:	f43f ae8b 	beq.w	8005570 <_printf_float+0x174>
 800585a:	2300      	movs	r3, #0
 800585c:	e9cd 0302 	strd	r0, r3, [sp, #8]
 8005860:	ab09      	add	r3, sp, #36	; 0x24
 8005862:	9300      	str	r3, [sp, #0]
 8005864:	ec49 8b10 	vmov	d0, r8, r9
 8005868:	6022      	str	r2, [r4, #0]
 800586a:	f8cd a004 	str.w	sl, [sp, #4]
 800586e:	f10d 0323 	add.w	r3, sp, #35	; 0x23
 8005872:	4628      	mov	r0, r5
 8005874:	f7ff fd2e 	bl	80052d4 <__cvt>
 8005878:	4680      	mov	r8, r0
 800587a:	e648      	b.n	800550e <_printf_float+0x112>

0800587c <_printf_common>:
 800587c:	e92d 47f0 	stmdb	sp!, {r4, r5, r6, r7, r8, r9, sl, lr}
 8005880:	4691      	mov	r9, r2
 8005882:	461f      	mov	r7, r3
 8005884:	688a      	ldr	r2, [r1, #8]
 8005886:	690b      	ldr	r3, [r1, #16]
 8005888:	f8dd 8020 	ldr.w	r8, [sp, #32]
 800588c:	4293      	cmp	r3, r2
 800588e:	bfb8      	it	lt
 8005890:	4613      	movlt	r3, r2
 8005892:	f8c9 3000 	str.w	r3, [r9]
 8005896:	f891 2043 	ldrb.w	r2, [r1, #67]	; 0x43
 800589a:	4606      	mov	r6, r0
 800589c:	460c      	mov	r4, r1
 800589e:	b112      	cbz	r2, 80058a6 <_printf_common+0x2a>
 80058a0:	3301      	adds	r3, #1
 80058a2:	f8c9 3000 	str.w	r3, [r9]
 80058a6:	6823      	ldr	r3, [r4, #0]
 80058a8:	0699      	lsls	r1, r3, #26
 80058aa:	bf42      	ittt	mi
 80058ac:	f8d9 3000 	ldrmi.w	r3, [r9]
 80058b0:	3302      	addmi	r3, #2
 80058b2:	f8c9 3000 	strmi.w	r3, [r9]
 80058b6:	6825      	ldr	r5, [r4, #0]
 80058b8:	f015 0506 	ands.w	r5, r5, #6
 80058bc:	d107      	bne.n	80058ce <_printf_common+0x52>
 80058be:	f104 0a19 	add.w	sl, r4, #25
 80058c2:	68e3      	ldr	r3, [r4, #12]
 80058c4:	f8d9 2000 	ldr.w	r2, [r9]
 80058c8:	1a9b      	subs	r3, r3, r2
 80058ca:	42ab      	cmp	r3, r5
 80058cc:	dc28      	bgt.n	8005920 <_printf_common+0xa4>
 80058ce:	f894 3043 	ldrb.w	r3, [r4, #67]	; 0x43
 80058d2:	6822      	ldr	r2, [r4, #0]
 80058d4:	3300      	adds	r3, #0
 80058d6:	bf18      	it	ne
 80058d8:	2301      	movne	r3, #1
 80058da:	0692      	lsls	r2, r2, #26
 80058dc:	d42d      	bmi.n	800593a <_printf_common+0xbe>
 80058de:	f104 0243 	add.w	r2, r4, #67	; 0x43
 80058e2:	4639      	mov	r1, r7
 80058e4:	4630      	mov	r0, r6
 80058e6:	47c0      	blx	r8
 80058e8:	3001      	adds	r0, #1
 80058ea:	d020      	beq.n	800592e <_printf_common+0xb2>
 80058ec:	6823      	ldr	r3, [r4, #0]
 80058ee:	68e5      	ldr	r5, [r4, #12]
 80058f0:	f8d9 2000 	ldr.w	r2, [r9]
 80058f4:	f003 0306 	and.w	r3, r3, #6
 80058f8:	2b04      	cmp	r3, #4
 80058fa:	bf08      	it	eq
 80058fc:	1aad      	subeq	r5, r5, r2
 80058fe:	68a3      	ldr	r3, [r4, #8]
 8005900:	6922      	ldr	r2, [r4, #16]
 8005902:	bf0c      	ite	eq
 8005904:	ea25 75e5 	biceq.w	r5, r5, r5, asr #31
 8005908:	2500      	movne	r5, #0
 800590a:	4293      	cmp	r3, r2
 800590c:	bfc4      	itt	gt
 800590e:	1a9b      	subgt	r3, r3, r2
 8005910:	18ed      	addgt	r5, r5, r3
 8005912:	f04f 0900 	mov.w	r9, #0
 8005916:	341a      	adds	r4, #26
 8005918:	454d      	cmp	r5, r9
 800591a:	d11a      	bne.n	8005952 <_printf_common+0xd6>
 800591c:	2000      	movs	r0, #0
 800591e:	e008      	b.n	8005932 <_printf_common+0xb6>
 8005920:	2301      	movs	r3, #1
 8005922:	4652      	mov	r2, sl
 8005924:	4639      	mov	r1, r7
 8005926:	4630      	mov	r0, r6
 8005928:	47c0      	blx	r8
 800592a:	3001      	adds	r0, #1
 800592c:	d103      	bne.n	8005936 <_printf_common+0xba>
 800592e:	f04f 30ff 	mov.w	r0, #4294967295
 8005932:	e8bd 87f0 	ldmia.w	sp!, {r4, r5, r6, r7, r8, r9, sl, pc}
 8005936:	3501      	adds	r5, #1
 8005938:	e7c3      	b.n	80058c2 <_printf_common+0x46>
 800593a:	18e1      	adds	r1, r4, r3
 800593c:	1c5a      	adds	r2, r3, #1
 800593e:	2030      	movs	r0, #48	; 0x30
 8005940:	f881 0043 	strb.w	r0, [r1, #67]	; 0x43
 8005944:	4422      	add	r2, r4
 8005946:	f894 1045 	ldrb.w	r1, [r4, #69]	; 0x45
 800594a:	f882 1043 	strb.w	r1, [r2, #67]	; 0x43
 800594e:	3302      	adds	r3, #2
 8005950:	e7c5      	b.n	80058de <_printf_common+0x62>
 8005952:	2301      	movs	r3, #1
 8005954:	4622      	mov	r2, r4
 8005956:	4639      	mov	r1, r7
 8005958:	4630      	mov	r0, r6
 800595a:	47c0      	blx	r8
 800595c:	3001      	adds	r0, #1
 800595e:	d0e6      	beq.n	800592e <_printf_common+0xb2>
 8005960:	f109 0901 	add.w	r9, r9, #1
 8005964:	e7d8      	b.n	8005918 <_printf_common+0x9c>
	...

08005968 <_printf_i>:
 8005968:	e92d 43f0 	stmdb	sp!, {r4, r5, r6, r7, r8, r9, lr}
 800596c:	f101 0c43 	add.w	ip, r1, #67	; 0x43
 8005970:	460c      	mov	r4, r1
 8005972:	7e09      	ldrb	r1, [r1, #24]
 8005974:	b085      	sub	sp, #20
 8005976:	296e      	cmp	r1, #110	; 0x6e
 8005978:	4617      	mov	r7, r2
 800597a:	4606      	mov	r6, r0
 800597c:	4698      	mov	r8, r3
 800597e:	9a0c      	ldr	r2, [sp, #48]	; 0x30
 8005980:	f000 80b3 	beq.w	8005aea <_printf_i+0x182>
 8005984:	d822      	bhi.n	80059cc <_printf_i+0x64>
 8005986:	2963      	cmp	r1, #99	; 0x63
 8005988:	d036      	beq.n	80059f8 <_printf_i+0x90>
 800598a:	d80a      	bhi.n	80059a2 <_printf_i+0x3a>
 800598c:	2900      	cmp	r1, #0
 800598e:	f000 80b9 	beq.w	8005b04 <_printf_i+0x19c>
 8005992:	2958      	cmp	r1, #88	; 0x58
 8005994:	f000 8083 	beq.w	8005a9e <_printf_i+0x136>
 8005998:	f104 0542 	add.w	r5, r4, #66	; 0x42
 800599c:	f884 1042 	strb.w	r1, [r4, #66]	; 0x42
 80059a0:	e032      	b.n	8005a08 <_printf_i+0xa0>
 80059a2:	2964      	cmp	r1, #100	; 0x64
 80059a4:	d001      	beq.n	80059aa <_printf_i+0x42>
 80059a6:	2969      	cmp	r1, #105	; 0x69
 80059a8:	d1f6      	bne.n	8005998 <_printf_i+0x30>
 80059aa:	6820      	ldr	r0, [r4, #0]
 80059ac:	6813      	ldr	r3, [r2, #0]
 80059ae:	0605      	lsls	r5, r0, #24
 80059b0:	f103 0104 	add.w	r1, r3, #4
 80059b4:	d52a      	bpl.n	8005a0c <_printf_i+0xa4>
 80059b6:	681b      	ldr	r3, [r3, #0]
 80059b8:	6011      	str	r1, [r2, #0]
 80059ba:	2b00      	cmp	r3, #0
 80059bc:	da03      	bge.n	80059c6 <_printf_i+0x5e>
 80059be:	222d      	movs	r2, #45	; 0x2d
 80059c0:	425b      	negs	r3, r3
 80059c2:	f884 2043 	strb.w	r2, [r4, #67]	; 0x43
 80059c6:	486f      	ldr	r0, [pc, #444]	; (8005b84 <_printf_i+0x21c>)
 80059c8:	220a      	movs	r2, #10
 80059ca:	e039      	b.n	8005a40 <_printf_i+0xd8>
 80059cc:	2973      	cmp	r1, #115	; 0x73
 80059ce:	f000 809d 	beq.w	8005b0c <_printf_i+0x1a4>
 80059d2:	d808      	bhi.n	80059e6 <_printf_i+0x7e>
 80059d4:	296f      	cmp	r1, #111	; 0x6f
 80059d6:	d020      	beq.n	8005a1a <_printf_i+0xb2>
 80059d8:	2970      	cmp	r1, #112	; 0x70
 80059da:	d1dd      	bne.n	8005998 <_printf_i+0x30>
 80059dc:	6823      	ldr	r3, [r4, #0]
 80059de:	f043 0320 	orr.w	r3, r3, #32
 80059e2:	6023      	str	r3, [r4, #0]
 80059e4:	e003      	b.n	80059ee <_printf_i+0x86>
 80059e6:	2975      	cmp	r1, #117	; 0x75
 80059e8:	d017      	beq.n	8005a1a <_printf_i+0xb2>
 80059ea:	2978      	cmp	r1, #120	; 0x78
 80059ec:	d1d4      	bne.n	8005998 <_printf_i+0x30>
 80059ee:	2378      	movs	r3, #120	; 0x78
 80059f0:	f884 3045 	strb.w	r3, [r4, #69]	; 0x45
 80059f4:	4864      	ldr	r0, [pc, #400]	; (8005b88 <_printf_i+0x220>)
 80059f6:	e055      	b.n	8005aa4 <_printf_i+0x13c>
 80059f8:	6813      	ldr	r3, [r2, #0]
 80059fa:	1d19      	adds	r1, r3, #4
 80059fc:	681b      	ldr	r3, [r3, #0]
 80059fe:	6011      	str	r1, [r2, #0]
 8005a00:	f104 0542 	add.w	r5, r4, #66	; 0x42
 8005a04:	f884 3042 	strb.w	r3, [r4, #66]	; 0x42
 8005a08:	2301      	movs	r3, #1
 8005a0a:	e08c      	b.n	8005b26 <_printf_i+0x1be>
 8005a0c:	681b      	ldr	r3, [r3, #0]
 8005a0e:	6011      	str	r1, [r2, #0]
 8005a10:	f010 0f40 	tst.w	r0, #64	; 0x40
 8005a14:	bf18      	it	ne
 8005a16:	b21b      	sxthne	r3, r3
 8005a18:	e7cf      	b.n	80059ba <_printf_i+0x52>
 8005a1a:	6813      	ldr	r3, [r2, #0]
 8005a1c:	6825      	ldr	r5, [r4, #0]
 8005a1e:	1d18      	adds	r0, r3, #4
 8005a20:	6010      	str	r0, [r2, #0]
 8005a22:	0628      	lsls	r0, r5, #24
 8005a24:	d501      	bpl.n	8005a2a <_printf_i+0xc2>
 8005a26:	681b      	ldr	r3, [r3, #0]
 8005a28:	e002      	b.n	8005a30 <_printf_i+0xc8>
 8005a2a:	0668      	lsls	r0, r5, #25
 8005a2c:	d5fb      	bpl.n	8005a26 <_printf_i+0xbe>
 8005a2e:	881b      	ldrh	r3, [r3, #0]
 8005a30:	4854      	ldr	r0, [pc, #336]	; (8005b84 <_printf_i+0x21c>)
 8005a32:	296f      	cmp	r1, #111	; 0x6f
 8005a34:	bf14      	ite	ne
 8005a36:	220a      	movne	r2, #10
 8005a38:	2208      	moveq	r2, #8
 8005a3a:	2100      	movs	r1, #0
 8005a3c:	f884 1043 	strb.w	r1, [r4, #67]	; 0x43
 8005a40:	6865      	ldr	r5, [r4, #4]
 8005a42:	60a5      	str	r5, [r4, #8]
 8005a44:	2d00      	cmp	r5, #0
 8005a46:	f2c0 8095 	blt.w	8005b74 <_printf_i+0x20c>
 8005a4a:	6821      	ldr	r1, [r4, #0]
 8005a4c:	f021 0104 	bic.w	r1, r1, #4
 8005a50:	6021      	str	r1, [r4, #0]
 8005a52:	2b00      	cmp	r3, #0
 8005a54:	d13d      	bne.n	8005ad2 <_printf_i+0x16a>
 8005a56:	2d00      	cmp	r5, #0
 8005a58:	f040 808e 	bne.w	8005b78 <_printf_i+0x210>
 8005a5c:	4665      	mov	r5, ip
 8005a5e:	2a08      	cmp	r2, #8
 8005a60:	d10b      	bne.n	8005a7a <_printf_i+0x112>
 8005a62:	6823      	ldr	r3, [r4, #0]
 8005a64:	07db      	lsls	r3, r3, #31
 8005a66:	d508      	bpl.n	8005a7a <_printf_i+0x112>
 8005a68:	6923      	ldr	r3, [r4, #16]
 8005a6a:	6862      	ldr	r2, [r4, #4]
 8005a6c:	429a      	cmp	r2, r3
 8005a6e:	bfde      	ittt	le
 8005a70:	2330      	movle	r3, #48	; 0x30
 8005a72:	f805 3c01 	strble.w	r3, [r5, #-1]
 8005a76:	f105 35ff 	addle.w	r5, r5, #4294967295
 8005a7a:	ebac 0305 	sub.w	r3, ip, r5
 8005a7e:	6123      	str	r3, [r4, #16]
 8005a80:	f8cd 8000 	str.w	r8, [sp]
 8005a84:	463b      	mov	r3, r7
 8005a86:	aa03      	add	r2, sp, #12
 8005a88:	4621      	mov	r1, r4
 8005a8a:	4630      	mov	r0, r6
 8005a8c:	f7ff fef6 	bl	800587c <_printf_common>
 8005a90:	3001      	adds	r0, #1
 8005a92:	d14d      	bne.n	8005b30 <_printf_i+0x1c8>
 8005a94:	f04f 30ff 	mov.w	r0, #4294967295
 8005a98:	b005      	add	sp, #20
 8005a9a:	e8bd 83f0 	ldmia.w	sp!, {r4, r5, r6, r7, r8, r9, pc}
 8005a9e:	4839      	ldr	r0, [pc, #228]	; (8005b84 <_printf_i+0x21c>)
 8005aa0:	f884 1045 	strb.w	r1, [r4, #69]	; 0x45
 8005aa4:	6813      	ldr	r3, [r2, #0]
 8005aa6:	6821      	ldr	r1, [r4, #0]
 8005aa8:	1d1d      	adds	r5, r3, #4
 8005aaa:	681b      	ldr	r3, [r3, #0]
 8005aac:	6015      	str	r5, [r2, #0]
 8005aae:	060a      	lsls	r2, r1, #24
 8005ab0:	d50b      	bpl.n	8005aca <_printf_i+0x162>
 8005ab2:	07ca      	lsls	r2, r1, #31
 8005ab4:	bf44      	itt	mi
 8005ab6:	f041 0120 	orrmi.w	r1, r1, #32
 8005aba:	6021      	strmi	r1, [r4, #0]
 8005abc:	b91b      	cbnz	r3, 8005ac6 <_printf_i+0x15e>
 8005abe:	6822      	ldr	r2, [r4, #0]
 8005ac0:	f022 0220 	bic.w	r2, r2, #32
 8005ac4:	6022      	str	r2, [r4, #0]
 8005ac6:	2210      	movs	r2, #16
 8005ac8:	e7b7      	b.n	8005a3a <_printf_i+0xd2>
 8005aca:	064d      	lsls	r5, r1, #25
 8005acc:	bf48      	it	mi
 8005ace:	b29b      	uxthmi	r3, r3
 8005ad0:	e7ef      	b.n	8005ab2 <_printf_i+0x14a>
 8005ad2:	4665      	mov	r5, ip
 8005ad4:	fbb3 f1f2 	udiv	r1, r3, r2
 8005ad8:	fb02 3311 	mls	r3, r2, r1, r3
 8005adc:	5cc3      	ldrb	r3, [r0, r3]
 8005ade:	f805 3d01 	strb.w	r3, [r5, #-1]!
 8005ae2:	460b      	mov	r3, r1
 8005ae4:	2900      	cmp	r1, #0
 8005ae6:	d1f5      	bne.n	8005ad4 <_printf_i+0x16c>
 8005ae8:	e7b9      	b.n	8005a5e <_printf_i+0xf6>
 8005aea:	6813      	ldr	r3, [r2, #0]
 8005aec:	6825      	ldr	r5, [r4, #0]
 8005aee:	6961      	ldr	r1, [r4, #20]
 8005af0:	1d18      	adds	r0, r3, #4
 8005af2:	6010      	str	r0, [r2, #0]
 8005af4:	0628      	lsls	r0, r5, #24
 8005af6:	681b      	ldr	r3, [r3, #0]
 8005af8:	d501      	bpl.n	8005afe <_printf_i+0x196>
 8005afa:	6019      	str	r1, [r3, #0]
 8005afc:	e002      	b.n	8005b04 <_printf_i+0x19c>
 8005afe:	066a      	lsls	r2, r5, #25
 8005b00:	d5fb      	bpl.n	8005afa <_printf_i+0x192>
 8005b02:	8019      	strh	r1, [r3, #0]
 8005b04:	2300      	movs	r3, #0
 8005b06:	6123      	str	r3, [r4, #16]
 8005b08:	4665      	mov	r5, ip
 8005b0a:	e7b9      	b.n	8005a80 <_printf_i+0x118>
 8005b0c:	6813      	ldr	r3, [r2, #0]
 8005b0e:	1d19      	adds	r1, r3, #4
 8005b10:	6011      	str	r1, [r2, #0]
 8005b12:	681d      	ldr	r5, [r3, #0]
 8005b14:	6862      	ldr	r2, [r4, #4]
 8005b16:	2100      	movs	r1, #0
 8005b18:	4628      	mov	r0, r5
 8005b1a:	f7fa fb61 	bl	80001e0 <memchr>
 8005b1e:	b108      	cbz	r0, 8005b24 <_printf_i+0x1bc>
 8005b20:	1b40      	subs	r0, r0, r5
 8005b22:	6060      	str	r0, [r4, #4]
 8005b24:	6863      	ldr	r3, [r4, #4]
 8005b26:	6123      	str	r3, [r4, #16]
 8005b28:	2300      	movs	r3, #0
 8005b2a:	f884 3043 	strb.w	r3, [r4, #67]	; 0x43
 8005b2e:	e7a7      	b.n	8005a80 <_printf_i+0x118>
 8005b30:	6923      	ldr	r3, [r4, #16]
 8005b32:	462a      	mov	r2, r5
 8005b34:	4639      	mov	r1, r7
 8005b36:	4630      	mov	r0, r6
 8005b38:	47c0      	blx	r8
 8005b3a:	3001      	adds	r0, #1
 8005b3c:	d0aa      	beq.n	8005a94 <_printf_i+0x12c>
 8005b3e:	6823      	ldr	r3, [r4, #0]
 8005b40:	079b      	lsls	r3, r3, #30
 8005b42:	d413      	bmi.n	8005b6c <_printf_i+0x204>
 8005b44:	68e0      	ldr	r0, [r4, #12]
 8005b46:	9b03      	ldr	r3, [sp, #12]
 8005b48:	4298      	cmp	r0, r3
 8005b4a:	bfb8      	it	lt
 8005b4c:	4618      	movlt	r0, r3
 8005b4e:	e7a3      	b.n	8005a98 <_printf_i+0x130>
 8005b50:	2301      	movs	r3, #1
 8005b52:	464a      	mov	r2, r9
 8005b54:	4639      	mov	r1, r7
 8005b56:	4630      	mov	r0, r6
 8005b58:	47c0      	blx	r8
 8005b5a:	3001      	adds	r0, #1
 8005b5c:	d09a      	beq.n	8005a94 <_printf_i+0x12c>
 8005b5e:	3501      	adds	r5, #1
 8005b60:	68e3      	ldr	r3, [r4, #12]
 8005b62:	9a03      	ldr	r2, [sp, #12]
 8005b64:	1a9b      	subs	r3, r3, r2
 8005b66:	42ab      	cmp	r3, r5
 8005b68:	dcf2      	bgt.n	8005b50 <_printf_i+0x1e8>
 8005b6a:	e7eb      	b.n	8005b44 <_printf_i+0x1dc>
 8005b6c:	2500      	movs	r5, #0
 8005b6e:	f104 0919 	add.w	r9, r4, #25
 8005b72:	e7f5      	b.n	8005b60 <_printf_i+0x1f8>
 8005b74:	2b00      	cmp	r3, #0
 8005b76:	d1ac      	bne.n	8005ad2 <_printf_i+0x16a>
 8005b78:	7803      	ldrb	r3, [r0, #0]
 8005b7a:	f884 3042 	strb.w	r3, [r4, #66]	; 0x42
 8005b7e:	f104 0542 	add.w	r5, r4, #66	; 0x42
 8005b82:	e76c      	b.n	8005a5e <_printf_i+0xf6>
 8005b84:	08007c2e 	.word	0x08007c2e
 8005b88:	08007c3f 	.word	0x08007c3f

08005b8c <iprintf>:
 8005b8c:	b40f      	push	{r0, r1, r2, r3}
 8005b8e:	4b0a      	ldr	r3, [pc, #40]	; (8005bb8 <iprintf+0x2c>)
 8005b90:	b513      	push	{r0, r1, r4, lr}
 8005b92:	681c      	ldr	r4, [r3, #0]
 8005b94:	b124      	cbz	r4, 8005ba0 <iprintf+0x14>
 8005b96:	69a3      	ldr	r3, [r4, #24]
 8005b98:	b913      	cbnz	r3, 8005ba0 <iprintf+0x14>
 8005b9a:	4620      	mov	r0, r4
 8005b9c:	f001 f868 	bl	8006c70 <__sinit>
 8005ba0:	ab05      	add	r3, sp, #20
 8005ba2:	9a04      	ldr	r2, [sp, #16]
 8005ba4:	68a1      	ldr	r1, [r4, #8]
 8005ba6:	9301      	str	r3, [sp, #4]
 8005ba8:	4620      	mov	r0, r4
 8005baa:	f001 fd2b 	bl	8007604 <_vfiprintf_r>
 8005bae:	b002      	add	sp, #8
 8005bb0:	e8bd 4010 	ldmia.w	sp!, {r4, lr}
 8005bb4:	b004      	add	sp, #16
 8005bb6:	4770      	bx	lr
 8005bb8:	2000000c 	.word	0x2000000c

08005bbc <_puts_r>:
 8005bbc:	b570      	push	{r4, r5, r6, lr}
 8005bbe:	460e      	mov	r6, r1
 8005bc0:	4605      	mov	r5, r0
 8005bc2:	b118      	cbz	r0, 8005bcc <_puts_r+0x10>
 8005bc4:	6983      	ldr	r3, [r0, #24]
 8005bc6:	b90b      	cbnz	r3, 8005bcc <_puts_r+0x10>
 8005bc8:	f001 f852 	bl	8006c70 <__sinit>
 8005bcc:	69ab      	ldr	r3, [r5, #24]
 8005bce:	68ac      	ldr	r4, [r5, #8]
 8005bd0:	b913      	cbnz	r3, 8005bd8 <_puts_r+0x1c>
 8005bd2:	4628      	mov	r0, r5
 8005bd4:	f001 f84c 	bl	8006c70 <__sinit>
 8005bd8:	4b23      	ldr	r3, [pc, #140]	; (8005c68 <_puts_r+0xac>)
 8005bda:	429c      	cmp	r4, r3
 8005bdc:	d117      	bne.n	8005c0e <_puts_r+0x52>
 8005bde:	686c      	ldr	r4, [r5, #4]
 8005be0:	89a3      	ldrh	r3, [r4, #12]
 8005be2:	071b      	lsls	r3, r3, #28
 8005be4:	d51d      	bpl.n	8005c22 <_puts_r+0x66>
 8005be6:	6923      	ldr	r3, [r4, #16]
 8005be8:	b1db      	cbz	r3, 8005c22 <_puts_r+0x66>
 8005bea:	3e01      	subs	r6, #1
 8005bec:	68a3      	ldr	r3, [r4, #8]
 8005bee:	f816 1f01 	ldrb.w	r1, [r6, #1]!
 8005bf2:	3b01      	subs	r3, #1
 8005bf4:	60a3      	str	r3, [r4, #8]
 8005bf6:	b9e9      	cbnz	r1, 8005c34 <_puts_r+0x78>
 8005bf8:	2b00      	cmp	r3, #0
 8005bfa:	da2e      	bge.n	8005c5a <_puts_r+0x9e>
 8005bfc:	4622      	mov	r2, r4
 8005bfe:	210a      	movs	r1, #10
 8005c00:	4628      	mov	r0, r5
 8005c02:	f000 f83f 	bl	8005c84 <__swbuf_r>
 8005c06:	3001      	adds	r0, #1
 8005c08:	d011      	beq.n	8005c2e <_puts_r+0x72>
 8005c0a:	200a      	movs	r0, #10
 8005c0c:	e011      	b.n	8005c32 <_puts_r+0x76>
 8005c0e:	4b17      	ldr	r3, [pc, #92]	; (8005c6c <_puts_r+0xb0>)
 8005c10:	429c      	cmp	r4, r3
 8005c12:	d101      	bne.n	8005c18 <_puts_r+0x5c>
 8005c14:	68ac      	ldr	r4, [r5, #8]
 8005c16:	e7e3      	b.n	8005be0 <_puts_r+0x24>
 8005c18:	4b15      	ldr	r3, [pc, #84]	; (8005c70 <_puts_r+0xb4>)
 8005c1a:	429c      	cmp	r4, r3
 8005c1c:	bf08      	it	eq
 8005c1e:	68ec      	ldreq	r4, [r5, #12]
 8005c20:	e7de      	b.n	8005be0 <_puts_r+0x24>
 8005c22:	4621      	mov	r1, r4
 8005c24:	4628      	mov	r0, r5
 8005c26:	f000 f87f 	bl	8005d28 <__swsetup_r>
 8005c2a:	2800      	cmp	r0, #0
 8005c2c:	d0dd      	beq.n	8005bea <_puts_r+0x2e>
 8005c2e:	f04f 30ff 	mov.w	r0, #4294967295
 8005c32:	bd70      	pop	{r4, r5, r6, pc}
 8005c34:	2b00      	cmp	r3, #0
 8005c36:	da04      	bge.n	8005c42 <_puts_r+0x86>
 8005c38:	69a2      	ldr	r2, [r4, #24]
 8005c3a:	429a      	cmp	r2, r3
 8005c3c:	dc06      	bgt.n	8005c4c <_puts_r+0x90>
 8005c3e:	290a      	cmp	r1, #10
 8005c40:	d004      	beq.n	8005c4c <_puts_r+0x90>
 8005c42:	6823      	ldr	r3, [r4, #0]
 8005c44:	1c5a      	adds	r2, r3, #1
 8005c46:	6022      	str	r2, [r4, #0]
 8005c48:	7019      	strb	r1, [r3, #0]
 8005c4a:	e7cf      	b.n	8005bec <_puts_r+0x30>
 8005c4c:	4622      	mov	r2, r4
 8005c4e:	4628      	mov	r0, r5
 8005c50:	f000 f818 	bl	8005c84 <__swbuf_r>
 8005c54:	3001      	adds	r0, #1
 8005c56:	d1c9      	bne.n	8005bec <_puts_r+0x30>
 8005c58:	e7e9      	b.n	8005c2e <_puts_r+0x72>
 8005c5a:	6823      	ldr	r3, [r4, #0]
 8005c5c:	200a      	movs	r0, #10
 8005c5e:	1c5a      	adds	r2, r3, #1
 8005c60:	6022      	str	r2, [r4, #0]
 8005c62:	7018      	strb	r0, [r3, #0]
 8005c64:	e7e5      	b.n	8005c32 <_puts_r+0x76>
 8005c66:	bf00      	nop
 8005c68:	08007c80 	.word	0x08007c80
 8005c6c:	08007ca0 	.word	0x08007ca0
 8005c70:	08007c60 	.word	0x08007c60

08005c74 <puts>:
 8005c74:	4b02      	ldr	r3, [pc, #8]	; (8005c80 <puts+0xc>)
 8005c76:	4601      	mov	r1, r0
 8005c78:	6818      	ldr	r0, [r3, #0]
 8005c7a:	f7ff bf9f 	b.w	8005bbc <_puts_r>
 8005c7e:	bf00      	nop
 8005c80:	2000000c 	.word	0x2000000c

08005c84 <__swbuf_r>:
 8005c84:	b5f8      	push	{r3, r4, r5, r6, r7, lr}
 8005c86:	460e      	mov	r6, r1
 8005c88:	4614      	mov	r4, r2
 8005c8a:	4605      	mov	r5, r0
 8005c8c:	b118      	cbz	r0, 8005c96 <__swbuf_r+0x12>
 8005c8e:	6983      	ldr	r3, [r0, #24]
 8005c90:	b90b      	cbnz	r3, 8005c96 <__swbuf_r+0x12>
 8005c92:	f000 ffed 	bl	8006c70 <__sinit>
 8005c96:	4b21      	ldr	r3, [pc, #132]	; (8005d1c <__swbuf_r+0x98>)
 8005c98:	429c      	cmp	r4, r3
 8005c9a:	d12a      	bne.n	8005cf2 <__swbuf_r+0x6e>
 8005c9c:	686c      	ldr	r4, [r5, #4]
 8005c9e:	69a3      	ldr	r3, [r4, #24]
 8005ca0:	60a3      	str	r3, [r4, #8]
 8005ca2:	89a3      	ldrh	r3, [r4, #12]
 8005ca4:	071a      	lsls	r2, r3, #28
 8005ca6:	d52e      	bpl.n	8005d06 <__swbuf_r+0x82>
 8005ca8:	6923      	ldr	r3, [r4, #16]
 8005caa:	b363      	cbz	r3, 8005d06 <__swbuf_r+0x82>
 8005cac:	6923      	ldr	r3, [r4, #16]
 8005cae:	6820      	ldr	r0, [r4, #0]
 8005cb0:	1ac0      	subs	r0, r0, r3
 8005cb2:	6963      	ldr	r3, [r4, #20]
 8005cb4:	b2f6      	uxtb	r6, r6
 8005cb6:	4283      	cmp	r3, r0
 8005cb8:	4637      	mov	r7, r6
 8005cba:	dc04      	bgt.n	8005cc6 <__swbuf_r+0x42>
 8005cbc:	4621      	mov	r1, r4
 8005cbe:	4628      	mov	r0, r5
 8005cc0:	f000 ff6c 	bl	8006b9c <_fflush_r>
 8005cc4:	bb28      	cbnz	r0, 8005d12 <__swbuf_r+0x8e>
 8005cc6:	68a3      	ldr	r3, [r4, #8]
 8005cc8:	3b01      	subs	r3, #1
 8005cca:	60a3      	str	r3, [r4, #8]
 8005ccc:	6823      	ldr	r3, [r4, #0]
 8005cce:	1c5a      	adds	r2, r3, #1
 8005cd0:	6022      	str	r2, [r4, #0]
 8005cd2:	701e      	strb	r6, [r3, #0]
 8005cd4:	6963      	ldr	r3, [r4, #20]
 8005cd6:	3001      	adds	r0, #1
 8005cd8:	4283      	cmp	r3, r0
 8005cda:	d004      	beq.n	8005ce6 <__swbuf_r+0x62>
 8005cdc:	89a3      	ldrh	r3, [r4, #12]
 8005cde:	07db      	lsls	r3, r3, #31
 8005ce0:	d519      	bpl.n	8005d16 <__swbuf_r+0x92>
 8005ce2:	2e0a      	cmp	r6, #10
 8005ce4:	d117      	bne.n	8005d16 <__swbuf_r+0x92>
 8005ce6:	4621      	mov	r1, r4
 8005ce8:	4628      	mov	r0, r5
 8005cea:	f000 ff57 	bl	8006b9c <_fflush_r>
 8005cee:	b190      	cbz	r0, 8005d16 <__swbuf_r+0x92>
 8005cf0:	e00f      	b.n	8005d12 <__swbuf_r+0x8e>
 8005cf2:	4b0b      	ldr	r3, [pc, #44]	; (8005d20 <__swbuf_r+0x9c>)
 8005cf4:	429c      	cmp	r4, r3
 8005cf6:	d101      	bne.n	8005cfc <__swbuf_r+0x78>
 8005cf8:	68ac      	ldr	r4, [r5, #8]
 8005cfa:	e7d0      	b.n	8005c9e <__swbuf_r+0x1a>
 8005cfc:	4b09      	ldr	r3, [pc, #36]	; (8005d24 <__swbuf_r+0xa0>)
 8005cfe:	429c      	cmp	r4, r3
 8005d00:	bf08      	it	eq
 8005d02:	68ec      	ldreq	r4, [r5, #12]
 8005d04:	e7cb      	b.n	8005c9e <__swbuf_r+0x1a>
 8005d06:	4621      	mov	r1, r4
 8005d08:	4628      	mov	r0, r5
 8005d0a:	f000 f80d 	bl	8005d28 <__swsetup_r>
 8005d0e:	2800      	cmp	r0, #0
 8005d10:	d0cc      	beq.n	8005cac <__swbuf_r+0x28>
 8005d12:	f04f 37ff 	mov.w	r7, #4294967295
 8005d16:	4638      	mov	r0, r7
 8005d18:	bdf8      	pop	{r3, r4, r5, r6, r7, pc}
 8005d1a:	bf00      	nop
 8005d1c:	08007c80 	.word	0x08007c80
 8005d20:	08007ca0 	.word	0x08007ca0
 8005d24:	08007c60 	.word	0x08007c60

08005d28 <__swsetup_r>:
 8005d28:	4b32      	ldr	r3, [pc, #200]	; (8005df4 <__swsetup_r+0xcc>)
 8005d2a:	b570      	push	{r4, r5, r6, lr}
 8005d2c:	681d      	ldr	r5, [r3, #0]
 8005d2e:	4606      	mov	r6, r0
 8005d30:	460c      	mov	r4, r1
 8005d32:	b125      	cbz	r5, 8005d3e <__swsetup_r+0x16>
 8005d34:	69ab      	ldr	r3, [r5, #24]
 8005d36:	b913      	cbnz	r3, 8005d3e <__swsetup_r+0x16>
 8005d38:	4628      	mov	r0, r5
 8005d3a:	f000 ff99 	bl	8006c70 <__sinit>
 8005d3e:	4b2e      	ldr	r3, [pc, #184]	; (8005df8 <__swsetup_r+0xd0>)
 8005d40:	429c      	cmp	r4, r3
 8005d42:	d10f      	bne.n	8005d64 <__swsetup_r+0x3c>
 8005d44:	686c      	ldr	r4, [r5, #4]
 8005d46:	f9b4 300c 	ldrsh.w	r3, [r4, #12]
 8005d4a:	b29a      	uxth	r2, r3
 8005d4c:	0715      	lsls	r5, r2, #28
 8005d4e:	d42c      	bmi.n	8005daa <__swsetup_r+0x82>
 8005d50:	06d0      	lsls	r0, r2, #27
 8005d52:	d411      	bmi.n	8005d78 <__swsetup_r+0x50>
 8005d54:	2209      	movs	r2, #9
 8005d56:	6032      	str	r2, [r6, #0]
 8005d58:	f043 0340 	orr.w	r3, r3, #64	; 0x40
 8005d5c:	81a3      	strh	r3, [r4, #12]
 8005d5e:	f04f 30ff 	mov.w	r0, #4294967295
 8005d62:	e03e      	b.n	8005de2 <__swsetup_r+0xba>
 8005d64:	4b25      	ldr	r3, [pc, #148]	; (8005dfc <__swsetup_r+0xd4>)
 8005d66:	429c      	cmp	r4, r3
 8005d68:	d101      	bne.n	8005d6e <__swsetup_r+0x46>
 8005d6a:	68ac      	ldr	r4, [r5, #8]
 8005d6c:	e7eb      	b.n	8005d46 <__swsetup_r+0x1e>
 8005d6e:	4b24      	ldr	r3, [pc, #144]	; (8005e00 <__swsetup_r+0xd8>)
 8005d70:	429c      	cmp	r4, r3
 8005d72:	bf08      	it	eq
 8005d74:	68ec      	ldreq	r4, [r5, #12]
 8005d76:	e7e6      	b.n	8005d46 <__swsetup_r+0x1e>
 8005d78:	0751      	lsls	r1, r2, #29
 8005d7a:	d512      	bpl.n	8005da2 <__swsetup_r+0x7a>
 8005d7c:	6b61      	ldr	r1, [r4, #52]	; 0x34
 8005d7e:	b141      	cbz	r1, 8005d92 <__swsetup_r+0x6a>
 8005d80:	f104 0344 	add.w	r3, r4, #68	; 0x44
 8005d84:	4299      	cmp	r1, r3
 8005d86:	d002      	beq.n	8005d8e <__swsetup_r+0x66>
 8005d88:	4630      	mov	r0, r6
 8005d8a:	f001 fb69 	bl	8007460 <_free_r>
 8005d8e:	2300      	movs	r3, #0
 8005d90:	6363      	str	r3, [r4, #52]	; 0x34
 8005d92:	89a3      	ldrh	r3, [r4, #12]
 8005d94:	f023 0324 	bic.w	r3, r3, #36	; 0x24
 8005d98:	81a3      	strh	r3, [r4, #12]
 8005d9a:	2300      	movs	r3, #0
 8005d9c:	6063      	str	r3, [r4, #4]
 8005d9e:	6923      	ldr	r3, [r4, #16]
 8005da0:	6023      	str	r3, [r4, #0]
 8005da2:	89a3      	ldrh	r3, [r4, #12]
 8005da4:	f043 0308 	orr.w	r3, r3, #8
 8005da8:	81a3      	strh	r3, [r4, #12]
 8005daa:	6923      	ldr	r3, [r4, #16]
 8005dac:	b94b      	cbnz	r3, 8005dc2 <__swsetup_r+0x9a>
 8005dae:	89a3      	ldrh	r3, [r4, #12]
 8005db0:	f403 7320 	and.w	r3, r3, #640	; 0x280
 8005db4:	f5b3 7f00 	cmp.w	r3, #512	; 0x200
 8005db8:	d003      	beq.n	8005dc2 <__swsetup_r+0x9a>
 8005dba:	4621      	mov	r1, r4
 8005dbc:	4630      	mov	r0, r6
 8005dbe:	f001 f813 	bl	8006de8 <__smakebuf_r>
 8005dc2:	89a2      	ldrh	r2, [r4, #12]
 8005dc4:	f012 0301 	ands.w	r3, r2, #1
 8005dc8:	d00c      	beq.n	8005de4 <__swsetup_r+0xbc>
 8005dca:	2300      	movs	r3, #0
 8005dcc:	60a3      	str	r3, [r4, #8]
 8005dce:	6963      	ldr	r3, [r4, #20]
 8005dd0:	425b      	negs	r3, r3
 8005dd2:	61a3      	str	r3, [r4, #24]
 8005dd4:	6923      	ldr	r3, [r4, #16]
 8005dd6:	b953      	cbnz	r3, 8005dee <__swsetup_r+0xc6>
 8005dd8:	f9b4 300c 	ldrsh.w	r3, [r4, #12]
 8005ddc:	f013 0080 	ands.w	r0, r3, #128	; 0x80
 8005de0:	d1ba      	bne.n	8005d58 <__swsetup_r+0x30>
 8005de2:	bd70      	pop	{r4, r5, r6, pc}
 8005de4:	0792      	lsls	r2, r2, #30
 8005de6:	bf58      	it	pl
 8005de8:	6963      	ldrpl	r3, [r4, #20]
 8005dea:	60a3      	str	r3, [r4, #8]
 8005dec:	e7f2      	b.n	8005dd4 <__swsetup_r+0xac>
 8005dee:	2000      	movs	r0, #0
 8005df0:	e7f7      	b.n	8005de2 <__swsetup_r+0xba>
 8005df2:	bf00      	nop
 8005df4:	2000000c 	.word	0x2000000c
 8005df8:	08007c80 	.word	0x08007c80
 8005dfc:	08007ca0 	.word	0x08007ca0
 8005e00:	08007c60 	.word	0x08007c60

08005e04 <quorem>:
 8005e04:	e92d 4ff7 	stmdb	sp!, {r0, r1, r2, r4, r5, r6, r7, r8, r9, sl, fp, lr}
 8005e08:	6903      	ldr	r3, [r0, #16]
 8005e0a:	690c      	ldr	r4, [r1, #16]
 8005e0c:	42a3      	cmp	r3, r4
 8005e0e:	4680      	mov	r8, r0
 8005e10:	f2c0 8082 	blt.w	8005f18 <quorem+0x114>
 8005e14:	3c01      	subs	r4, #1
 8005e16:	f101 0714 	add.w	r7, r1, #20
 8005e1a:	ea4f 0c84 	mov.w	ip, r4, lsl #2
 8005e1e:	f100 0614 	add.w	r6, r0, #20
 8005e22:	f857 5024 	ldr.w	r5, [r7, r4, lsl #2]
 8005e26:	f856 0024 	ldr.w	r0, [r6, r4, lsl #2]
 8005e2a:	eb06 030c 	add.w	r3, r6, ip
 8005e2e:	3501      	adds	r5, #1
 8005e30:	eb07 090c 	add.w	r9, r7, ip
 8005e34:	9301      	str	r3, [sp, #4]
 8005e36:	fbb0 f5f5 	udiv	r5, r0, r5
 8005e3a:	b395      	cbz	r5, 8005ea2 <quorem+0x9e>
 8005e3c:	f04f 0a00 	mov.w	sl, #0
 8005e40:	4638      	mov	r0, r7
 8005e42:	46b6      	mov	lr, r6
 8005e44:	46d3      	mov	fp, sl
 8005e46:	f850 2b04 	ldr.w	r2, [r0], #4
 8005e4a:	b293      	uxth	r3, r2
 8005e4c:	fb05 a303 	mla	r3, r5, r3, sl
 8005e50:	ea4f 4a13 	mov.w	sl, r3, lsr #16
 8005e54:	b29b      	uxth	r3, r3
 8005e56:	ebab 0303 	sub.w	r3, fp, r3
 8005e5a:	0c12      	lsrs	r2, r2, #16
 8005e5c:	f8de b000 	ldr.w	fp, [lr]
 8005e60:	fb05 a202 	mla	r2, r5, r2, sl
 8005e64:	fa13 f38b 	uxtah	r3, r3, fp
 8005e68:	ea4f 4a12 	mov.w	sl, r2, lsr #16
 8005e6c:	fa1f fb82 	uxth.w	fp, r2
 8005e70:	f8de 2000 	ldr.w	r2, [lr]
 8005e74:	ebcb 4212 	rsb	r2, fp, r2, lsr #16
 8005e78:	eb02 4223 	add.w	r2, r2, r3, asr #16
 8005e7c:	b29b      	uxth	r3, r3
 8005e7e:	ea43 4302 	orr.w	r3, r3, r2, lsl #16
 8005e82:	4581      	cmp	r9, r0
 8005e84:	ea4f 4b22 	mov.w	fp, r2, asr #16
 8005e88:	f84e 3b04 	str.w	r3, [lr], #4
 8005e8c:	d2db      	bcs.n	8005e46 <quorem+0x42>
 8005e8e:	f856 300c 	ldr.w	r3, [r6, ip]
 8005e92:	b933      	cbnz	r3, 8005ea2 <quorem+0x9e>
 8005e94:	9b01      	ldr	r3, [sp, #4]
 8005e96:	3b04      	subs	r3, #4
 8005e98:	429e      	cmp	r6, r3
 8005e9a:	461a      	mov	r2, r3
 8005e9c:	d330      	bcc.n	8005f00 <quorem+0xfc>
 8005e9e:	f8c8 4010 	str.w	r4, [r8, #16]
 8005ea2:	4640      	mov	r0, r8
 8005ea4:	f001 fa08 	bl	80072b8 <__mcmp>
 8005ea8:	2800      	cmp	r0, #0
 8005eaa:	db25      	blt.n	8005ef8 <quorem+0xf4>
 8005eac:	3501      	adds	r5, #1
 8005eae:	4630      	mov	r0, r6
 8005eb0:	f04f 0c00 	mov.w	ip, #0
 8005eb4:	f857 2b04 	ldr.w	r2, [r7], #4
 8005eb8:	f8d0 e000 	ldr.w	lr, [r0]
 8005ebc:	b293      	uxth	r3, r2
 8005ebe:	ebac 0303 	sub.w	r3, ip, r3
 8005ec2:	0c12      	lsrs	r2, r2, #16
 8005ec4:	fa13 f38e 	uxtah	r3, r3, lr
 8005ec8:	ebc2 421e 	rsb	r2, r2, lr, lsr #16
 8005ecc:	eb02 4223 	add.w	r2, r2, r3, asr #16
 8005ed0:	b29b      	uxth	r3, r3
 8005ed2:	ea43 4302 	orr.w	r3, r3, r2, lsl #16
 8005ed6:	45b9      	cmp	r9, r7
 8005ed8:	ea4f 4c22 	mov.w	ip, r2, asr #16
 8005edc:	f840 3b04 	str.w	r3, [r0], #4
 8005ee0:	d2e8      	bcs.n	8005eb4 <quorem+0xb0>
 8005ee2:	f856 2024 	ldr.w	r2, [r6, r4, lsl #2]
 8005ee6:	eb06 0384 	add.w	r3, r6, r4, lsl #2
 8005eea:	b92a      	cbnz	r2, 8005ef8 <quorem+0xf4>
 8005eec:	3b04      	subs	r3, #4
 8005eee:	429e      	cmp	r6, r3
 8005ef0:	461a      	mov	r2, r3
 8005ef2:	d30b      	bcc.n	8005f0c <quorem+0x108>
 8005ef4:	f8c8 4010 	str.w	r4, [r8, #16]
 8005ef8:	4628      	mov	r0, r5
 8005efa:	b003      	add	sp, #12
 8005efc:	e8bd 8ff0 	ldmia.w	sp!, {r4, r5, r6, r7, r8, r9, sl, fp, pc}
 8005f00:	6812      	ldr	r2, [r2, #0]
 8005f02:	3b04      	subs	r3, #4
 8005f04:	2a00      	cmp	r2, #0
 8005f06:	d1ca      	bne.n	8005e9e <quorem+0x9a>
 8005f08:	3c01      	subs	r4, #1
 8005f0a:	e7c5      	b.n	8005e98 <quorem+0x94>
 8005f0c:	6812      	ldr	r2, [r2, #0]
 8005f0e:	3b04      	subs	r3, #4
 8005f10:	2a00      	cmp	r2, #0
 8005f12:	d1ef      	bne.n	8005ef4 <quorem+0xf0>
 8005f14:	3c01      	subs	r4, #1
 8005f16:	e7ea      	b.n	8005eee <quorem+0xea>
 8005f18:	2000      	movs	r0, #0
 8005f1a:	e7ee      	b.n	8005efa <quorem+0xf6>
 8005f1c:	0000      	movs	r0, r0
	...

08005f20 <_dtoa_r>:
 8005f20:	e92d 4ff0 	stmdb	sp!, {r4, r5, r6, r7, r8, r9, sl, fp, lr}
 8005f24:	ec57 6b10 	vmov	r6, r7, d0
 8005f28:	b097      	sub	sp, #92	; 0x5c
 8005f2a:	6a45      	ldr	r5, [r0, #36]	; 0x24
 8005f2c:	9106      	str	r1, [sp, #24]
 8005f2e:	4604      	mov	r4, r0
 8005f30:	920b      	str	r2, [sp, #44]	; 0x2c
 8005f32:	9312      	str	r3, [sp, #72]	; 0x48
 8005f34:	f8dd 8080 	ldr.w	r8, [sp, #128]	; 0x80
 8005f38:	e9cd 6700 	strd	r6, r7, [sp]
 8005f3c:	b93d      	cbnz	r5, 8005f4e <_dtoa_r+0x2e>
 8005f3e:	2010      	movs	r0, #16
 8005f40:	f000 ff92 	bl	8006e68 <malloc>
 8005f44:	6260      	str	r0, [r4, #36]	; 0x24
 8005f46:	e9c0 5501 	strd	r5, r5, [r0, #4]
 8005f4a:	6005      	str	r5, [r0, #0]
 8005f4c:	60c5      	str	r5, [r0, #12]
 8005f4e:	6a63      	ldr	r3, [r4, #36]	; 0x24
 8005f50:	6819      	ldr	r1, [r3, #0]
 8005f52:	b151      	cbz	r1, 8005f6a <_dtoa_r+0x4a>
 8005f54:	685a      	ldr	r2, [r3, #4]
 8005f56:	604a      	str	r2, [r1, #4]
 8005f58:	2301      	movs	r3, #1
 8005f5a:	4093      	lsls	r3, r2
 8005f5c:	608b      	str	r3, [r1, #8]
 8005f5e:	4620      	mov	r0, r4
 8005f60:	f000 ffc9 	bl	8006ef6 <_Bfree>
 8005f64:	6a63      	ldr	r3, [r4, #36]	; 0x24
 8005f66:	2200      	movs	r2, #0
 8005f68:	601a      	str	r2, [r3, #0]
 8005f6a:	1e3b      	subs	r3, r7, #0
 8005f6c:	bfbb      	ittet	lt
 8005f6e:	f023 4300 	biclt.w	r3, r3, #2147483648	; 0x80000000
 8005f72:	9301      	strlt	r3, [sp, #4]
 8005f74:	2300      	movge	r3, #0
 8005f76:	2201      	movlt	r2, #1
 8005f78:	bfac      	ite	ge
 8005f7a:	f8c8 3000 	strge.w	r3, [r8]
 8005f7e:	f8c8 2000 	strlt.w	r2, [r8]
 8005f82:	4baf      	ldr	r3, [pc, #700]	; (8006240 <_dtoa_r+0x320>)
 8005f84:	f8dd 8004 	ldr.w	r8, [sp, #4]
 8005f88:	ea33 0308 	bics.w	r3, r3, r8
 8005f8c:	d114      	bne.n	8005fb8 <_dtoa_r+0x98>
 8005f8e:	9a12      	ldr	r2, [sp, #72]	; 0x48
 8005f90:	f242 730f 	movw	r3, #9999	; 0x270f
 8005f94:	6013      	str	r3, [r2, #0]
 8005f96:	9b00      	ldr	r3, [sp, #0]
 8005f98:	b923      	cbnz	r3, 8005fa4 <_dtoa_r+0x84>
 8005f9a:	f3c8 0013 	ubfx	r0, r8, #0, #20
 8005f9e:	2800      	cmp	r0, #0
 8005fa0:	f000 8542 	beq.w	8006a28 <_dtoa_r+0xb08>
 8005fa4:	9b21      	ldr	r3, [sp, #132]	; 0x84
 8005fa6:	f8df b2ac 	ldr.w	fp, [pc, #684]	; 8006254 <_dtoa_r+0x334>
 8005faa:	2b00      	cmp	r3, #0
 8005fac:	f000 8544 	beq.w	8006a38 <_dtoa_r+0xb18>
 8005fb0:	f10b 0303 	add.w	r3, fp, #3
 8005fb4:	f000 bd3e 	b.w	8006a34 <_dtoa_r+0xb14>
 8005fb8:	e9dd 6700 	ldrd	r6, r7, [sp]
 8005fbc:	2200      	movs	r2, #0
 8005fbe:	2300      	movs	r3, #0
 8005fc0:	4630      	mov	r0, r6
 8005fc2:	4639      	mov	r1, r7
 8005fc4:	f7fa fd80 	bl	8000ac8 <__aeabi_dcmpeq>
 8005fc8:	4681      	mov	r9, r0
 8005fca:	b168      	cbz	r0, 8005fe8 <_dtoa_r+0xc8>
 8005fcc:	9a12      	ldr	r2, [sp, #72]	; 0x48
 8005fce:	2301      	movs	r3, #1
 8005fd0:	6013      	str	r3, [r2, #0]
 8005fd2:	9b21      	ldr	r3, [sp, #132]	; 0x84
 8005fd4:	2b00      	cmp	r3, #0
 8005fd6:	f000 8524 	beq.w	8006a22 <_dtoa_r+0xb02>
 8005fda:	4b9a      	ldr	r3, [pc, #616]	; (8006244 <_dtoa_r+0x324>)
 8005fdc:	9a21      	ldr	r2, [sp, #132]	; 0x84
 8005fde:	f103 3bff 	add.w	fp, r3, #4294967295
 8005fe2:	6013      	str	r3, [r2, #0]
 8005fe4:	f000 bd28 	b.w	8006a38 <_dtoa_r+0xb18>
 8005fe8:	aa14      	add	r2, sp, #80	; 0x50
 8005fea:	a915      	add	r1, sp, #84	; 0x54
 8005fec:	ec47 6b10 	vmov	d0, r6, r7
 8005ff0:	4620      	mov	r0, r4
 8005ff2:	f001 f9d8 	bl	80073a6 <__d2b>
 8005ff6:	f3c8 550a 	ubfx	r5, r8, #20, #11
 8005ffa:	9004      	str	r0, [sp, #16]
 8005ffc:	2d00      	cmp	r5, #0
 8005ffe:	d07c      	beq.n	80060fa <_dtoa_r+0x1da>
 8006000:	f3c7 0313 	ubfx	r3, r7, #0, #20
 8006004:	f043 5b7f 	orr.w	fp, r3, #1069547520	; 0x3fc00000
 8006008:	46b2      	mov	sl, r6
 800600a:	f44b 1b40 	orr.w	fp, fp, #3145728	; 0x300000
 800600e:	f2a5 35ff 	subw	r5, r5, #1023	; 0x3ff
 8006012:	f8cd 904c 	str.w	r9, [sp, #76]	; 0x4c
 8006016:	2200      	movs	r2, #0
 8006018:	4b8b      	ldr	r3, [pc, #556]	; (8006248 <_dtoa_r+0x328>)
 800601a:	4650      	mov	r0, sl
 800601c:	4659      	mov	r1, fp
 800601e:	f7fa f933 	bl	8000288 <__aeabi_dsub>
 8006022:	a381      	add	r3, pc, #516	; (adr r3, 8006228 <_dtoa_r+0x308>)
 8006024:	e9d3 2300 	ldrd	r2, r3, [r3]
 8006028:	f7fa fae6 	bl	80005f8 <__aeabi_dmul>
 800602c:	a380      	add	r3, pc, #512	; (adr r3, 8006230 <_dtoa_r+0x310>)
 800602e:	e9d3 2300 	ldrd	r2, r3, [r3]
 8006032:	f7fa f92b 	bl	800028c <__adddf3>
 8006036:	4606      	mov	r6, r0
 8006038:	4628      	mov	r0, r5
 800603a:	460f      	mov	r7, r1
 800603c:	f7fa fa72 	bl	8000524 <__aeabi_i2d>
 8006040:	a37d      	add	r3, pc, #500	; (adr r3, 8006238 <_dtoa_r+0x318>)
 8006042:	e9d3 2300 	ldrd	r2, r3, [r3]
 8006046:	f7fa fad7 	bl	80005f8 <__aeabi_dmul>
 800604a:	4602      	mov	r2, r0
 800604c:	460b      	mov	r3, r1
 800604e:	4630      	mov	r0, r6
 8006050:	4639      	mov	r1, r7
 8006052:	f7fa f91b 	bl	800028c <__adddf3>
 8006056:	4606      	mov	r6, r0
 8006058:	460f      	mov	r7, r1
 800605a:	f7fa fd7d 	bl	8000b58 <__aeabi_d2iz>
 800605e:	2200      	movs	r2, #0
 8006060:	4682      	mov	sl, r0
 8006062:	2300      	movs	r3, #0
 8006064:	4630      	mov	r0, r6
 8006066:	4639      	mov	r1, r7
 8006068:	f7fa fd38 	bl	8000adc <__aeabi_dcmplt>
 800606c:	b148      	cbz	r0, 8006082 <_dtoa_r+0x162>
 800606e:	4650      	mov	r0, sl
 8006070:	f7fa fa58 	bl	8000524 <__aeabi_i2d>
 8006074:	4632      	mov	r2, r6
 8006076:	463b      	mov	r3, r7
 8006078:	f7fa fd26 	bl	8000ac8 <__aeabi_dcmpeq>
 800607c:	b908      	cbnz	r0, 8006082 <_dtoa_r+0x162>
 800607e:	f10a 3aff 	add.w	sl, sl, #4294967295
 8006082:	f1ba 0f16 	cmp.w	sl, #22
 8006086:	d859      	bhi.n	800613c <_dtoa_r+0x21c>
 8006088:	4970      	ldr	r1, [pc, #448]	; (800624c <_dtoa_r+0x32c>)
 800608a:	eb01 01ca 	add.w	r1, r1, sl, lsl #3
 800608e:	e9dd 2300 	ldrd	r2, r3, [sp]
 8006092:	e9d1 0100 	ldrd	r0, r1, [r1]
 8006096:	f7fa fd3f 	bl	8000b18 <__aeabi_dcmpgt>
 800609a:	2800      	cmp	r0, #0
 800609c:	d050      	beq.n	8006140 <_dtoa_r+0x220>
 800609e:	f10a 3aff 	add.w	sl, sl, #4294967295
 80060a2:	2300      	movs	r3, #0
 80060a4:	930f      	str	r3, [sp, #60]	; 0x3c
 80060a6:	9b14      	ldr	r3, [sp, #80]	; 0x50
 80060a8:	1b5d      	subs	r5, r3, r5
 80060aa:	f1b5 0801 	subs.w	r8, r5, #1
 80060ae:	bf49      	itett	mi
 80060b0:	f1c5 0301 	rsbmi	r3, r5, #1
 80060b4:	2300      	movpl	r3, #0
 80060b6:	9305      	strmi	r3, [sp, #20]
 80060b8:	f04f 0800 	movmi.w	r8, #0
 80060bc:	bf58      	it	pl
 80060be:	9305      	strpl	r3, [sp, #20]
 80060c0:	f1ba 0f00 	cmp.w	sl, #0
 80060c4:	db3e      	blt.n	8006144 <_dtoa_r+0x224>
 80060c6:	2300      	movs	r3, #0
 80060c8:	44d0      	add	r8, sl
 80060ca:	f8cd a038 	str.w	sl, [sp, #56]	; 0x38
 80060ce:	9307      	str	r3, [sp, #28]
 80060d0:	9b06      	ldr	r3, [sp, #24]
 80060d2:	2b09      	cmp	r3, #9
 80060d4:	f200 8090 	bhi.w	80061f8 <_dtoa_r+0x2d8>
 80060d8:	2b05      	cmp	r3, #5
 80060da:	bfc4      	itt	gt
 80060dc:	3b04      	subgt	r3, #4
 80060de:	9306      	strgt	r3, [sp, #24]
 80060e0:	9b06      	ldr	r3, [sp, #24]
 80060e2:	f1a3 0302 	sub.w	r3, r3, #2
 80060e6:	bfcc      	ite	gt
 80060e8:	2500      	movgt	r5, #0
 80060ea:	2501      	movle	r5, #1
 80060ec:	2b03      	cmp	r3, #3
 80060ee:	f200 808f 	bhi.w	8006210 <_dtoa_r+0x2f0>
 80060f2:	e8df f003 	tbb	[pc, r3]
 80060f6:	7f7d      	.short	0x7f7d
 80060f8:	7131      	.short	0x7131
 80060fa:	e9dd 5314 	ldrd	r5, r3, [sp, #80]	; 0x50
 80060fe:	441d      	add	r5, r3
 8006100:	f205 4032 	addw	r0, r5, #1074	; 0x432
 8006104:	2820      	cmp	r0, #32
 8006106:	dd13      	ble.n	8006130 <_dtoa_r+0x210>
 8006108:	f1c0 0040 	rsb	r0, r0, #64	; 0x40
 800610c:	9b00      	ldr	r3, [sp, #0]
 800610e:	fa08 f800 	lsl.w	r8, r8, r0
 8006112:	f205 4012 	addw	r0, r5, #1042	; 0x412
 8006116:	fa23 f000 	lsr.w	r0, r3, r0
 800611a:	ea48 0000 	orr.w	r0, r8, r0
 800611e:	f7fa f9f1 	bl	8000504 <__aeabi_ui2d>
 8006122:	2301      	movs	r3, #1
 8006124:	4682      	mov	sl, r0
 8006126:	f1a1 7bf8 	sub.w	fp, r1, #32505856	; 0x1f00000
 800612a:	3d01      	subs	r5, #1
 800612c:	9313      	str	r3, [sp, #76]	; 0x4c
 800612e:	e772      	b.n	8006016 <_dtoa_r+0xf6>
 8006130:	9b00      	ldr	r3, [sp, #0]
 8006132:	f1c0 0020 	rsb	r0, r0, #32
 8006136:	fa03 f000 	lsl.w	r0, r3, r0
 800613a:	e7f0      	b.n	800611e <_dtoa_r+0x1fe>
 800613c:	2301      	movs	r3, #1
 800613e:	e7b1      	b.n	80060a4 <_dtoa_r+0x184>
 8006140:	900f      	str	r0, [sp, #60]	; 0x3c
 8006142:	e7b0      	b.n	80060a6 <_dtoa_r+0x186>
 8006144:	9b05      	ldr	r3, [sp, #20]
 8006146:	eba3 030a 	sub.w	r3, r3, sl
 800614a:	9305      	str	r3, [sp, #20]
 800614c:	f1ca 0300 	rsb	r3, sl, #0
 8006150:	9307      	str	r3, [sp, #28]
 8006152:	2300      	movs	r3, #0
 8006154:	930e      	str	r3, [sp, #56]	; 0x38
 8006156:	e7bb      	b.n	80060d0 <_dtoa_r+0x1b0>
 8006158:	2301      	movs	r3, #1
 800615a:	930a      	str	r3, [sp, #40]	; 0x28
 800615c:	9b0b      	ldr	r3, [sp, #44]	; 0x2c
 800615e:	2b00      	cmp	r3, #0
 8006160:	dd59      	ble.n	8006216 <_dtoa_r+0x2f6>
 8006162:	9302      	str	r3, [sp, #8]
 8006164:	4699      	mov	r9, r3
 8006166:	6a66      	ldr	r6, [r4, #36]	; 0x24
 8006168:	2200      	movs	r2, #0
 800616a:	6072      	str	r2, [r6, #4]
 800616c:	2204      	movs	r2, #4
 800616e:	f102 0014 	add.w	r0, r2, #20
 8006172:	4298      	cmp	r0, r3
 8006174:	6871      	ldr	r1, [r6, #4]
 8006176:	d953      	bls.n	8006220 <_dtoa_r+0x300>
 8006178:	4620      	mov	r0, r4
 800617a:	f000 fe88 	bl	8006e8e <_Balloc>
 800617e:	6a63      	ldr	r3, [r4, #36]	; 0x24
 8006180:	6030      	str	r0, [r6, #0]
 8006182:	f1b9 0f0e 	cmp.w	r9, #14
 8006186:	f8d3 b000 	ldr.w	fp, [r3]
 800618a:	f200 80e6 	bhi.w	800635a <_dtoa_r+0x43a>
 800618e:	2d00      	cmp	r5, #0
 8006190:	f000 80e3 	beq.w	800635a <_dtoa_r+0x43a>
 8006194:	ed9d 7b00 	vldr	d7, [sp]
 8006198:	f1ba 0f00 	cmp.w	sl, #0
 800619c:	ed8d 7b10 	vstr	d7, [sp, #64]	; 0x40
 80061a0:	dd74      	ble.n	800628c <_dtoa_r+0x36c>
 80061a2:	4a2a      	ldr	r2, [pc, #168]	; (800624c <_dtoa_r+0x32c>)
 80061a4:	f00a 030f 	and.w	r3, sl, #15
 80061a8:	eb02 03c3 	add.w	r3, r2, r3, lsl #3
 80061ac:	ed93 7b00 	vldr	d7, [r3]
 80061b0:	ea4f 162a 	mov.w	r6, sl, asr #4
 80061b4:	06f0      	lsls	r0, r6, #27
 80061b6:	ed8d 7b08 	vstr	d7, [sp, #32]
 80061ba:	d565      	bpl.n	8006288 <_dtoa_r+0x368>
 80061bc:	4b24      	ldr	r3, [pc, #144]	; (8006250 <_dtoa_r+0x330>)
 80061be:	e9dd 0110 	ldrd	r0, r1, [sp, #64]	; 0x40
 80061c2:	e9d3 2308 	ldrd	r2, r3, [r3, #32]
 80061c6:	f7fa fb41 	bl	800084c <__aeabi_ddiv>
 80061ca:	e9cd 0100 	strd	r0, r1, [sp]
 80061ce:	f006 060f 	and.w	r6, r6, #15
 80061d2:	2503      	movs	r5, #3
 80061d4:	4f1e      	ldr	r7, [pc, #120]	; (8006250 <_dtoa_r+0x330>)
 80061d6:	e04c      	b.n	8006272 <_dtoa_r+0x352>
 80061d8:	2301      	movs	r3, #1
 80061da:	930a      	str	r3, [sp, #40]	; 0x28
 80061dc:	9b0b      	ldr	r3, [sp, #44]	; 0x2c
 80061de:	4453      	add	r3, sl
 80061e0:	f103 0901 	add.w	r9, r3, #1
 80061e4:	9302      	str	r3, [sp, #8]
 80061e6:	464b      	mov	r3, r9
 80061e8:	2b01      	cmp	r3, #1
 80061ea:	bfb8      	it	lt
 80061ec:	2301      	movlt	r3, #1
 80061ee:	e7ba      	b.n	8006166 <_dtoa_r+0x246>
 80061f0:	2300      	movs	r3, #0
 80061f2:	e7b2      	b.n	800615a <_dtoa_r+0x23a>
 80061f4:	2300      	movs	r3, #0
 80061f6:	e7f0      	b.n	80061da <_dtoa_r+0x2ba>
 80061f8:	2501      	movs	r5, #1
 80061fa:	2300      	movs	r3, #0
 80061fc:	9306      	str	r3, [sp, #24]
 80061fe:	950a      	str	r5, [sp, #40]	; 0x28
 8006200:	f04f 33ff 	mov.w	r3, #4294967295
 8006204:	9302      	str	r3, [sp, #8]
 8006206:	4699      	mov	r9, r3
 8006208:	2200      	movs	r2, #0
 800620a:	2312      	movs	r3, #18
 800620c:	920b      	str	r2, [sp, #44]	; 0x2c
 800620e:	e7aa      	b.n	8006166 <_dtoa_r+0x246>
 8006210:	2301      	movs	r3, #1
 8006212:	930a      	str	r3, [sp, #40]	; 0x28
 8006214:	e7f4      	b.n	8006200 <_dtoa_r+0x2e0>
 8006216:	2301      	movs	r3, #1
 8006218:	9302      	str	r3, [sp, #8]
 800621a:	4699      	mov	r9, r3
 800621c:	461a      	mov	r2, r3
 800621e:	e7f5      	b.n	800620c <_dtoa_r+0x2ec>
 8006220:	3101      	adds	r1, #1
 8006222:	6071      	str	r1, [r6, #4]
 8006224:	0052      	lsls	r2, r2, #1
 8006226:	e7a2      	b.n	800616e <_dtoa_r+0x24e>
 8006228:	636f4361 	.word	0x636f4361
 800622c:	3fd287a7 	.word	0x3fd287a7
 8006230:	8b60c8b3 	.word	0x8b60c8b3
 8006234:	3fc68a28 	.word	0x3fc68a28
 8006238:	509f79fb 	.word	0x509f79fb
 800623c:	3fd34413 	.word	0x3fd34413
 8006240:	7ff00000 	.word	0x7ff00000
 8006244:	08007c2d 	.word	0x08007c2d
 8006248:	3ff80000 	.word	0x3ff80000
 800624c:	08007ce8 	.word	0x08007ce8
 8006250:	08007cc0 	.word	0x08007cc0
 8006254:	08007c59 	.word	0x08007c59
 8006258:	07f1      	lsls	r1, r6, #31
 800625a:	d508      	bpl.n	800626e <_dtoa_r+0x34e>
 800625c:	e9dd 0108 	ldrd	r0, r1, [sp, #32]
 8006260:	e9d7 2300 	ldrd	r2, r3, [r7]
 8006264:	f7fa f9c8 	bl	80005f8 <__aeabi_dmul>
 8006268:	e9cd 0108 	strd	r0, r1, [sp, #32]
 800626c:	3501      	adds	r5, #1
 800626e:	1076      	asrs	r6, r6, #1
 8006270:	3708      	adds	r7, #8
 8006272:	2e00      	cmp	r6, #0
 8006274:	d1f0      	bne.n	8006258 <_dtoa_r+0x338>
 8006276:	e9dd 2308 	ldrd	r2, r3, [sp, #32]
 800627a:	e9dd 0100 	ldrd	r0, r1, [sp]
 800627e:	f7fa fae5 	bl	800084c <__aeabi_ddiv>
 8006282:	e9cd 0100 	strd	r0, r1, [sp]
 8006286:	e01a      	b.n	80062be <_dtoa_r+0x39e>
 8006288:	2502      	movs	r5, #2
 800628a:	e7a3      	b.n	80061d4 <_dtoa_r+0x2b4>
 800628c:	f000 80a0 	beq.w	80063d0 <_dtoa_r+0x4b0>
 8006290:	f1ca 0600 	rsb	r6, sl, #0
 8006294:	4b9f      	ldr	r3, [pc, #636]	; (8006514 <_dtoa_r+0x5f4>)
 8006296:	4fa0      	ldr	r7, [pc, #640]	; (8006518 <_dtoa_r+0x5f8>)
 8006298:	f006 020f 	and.w	r2, r6, #15
 800629c:	eb03 03c2 	add.w	r3, r3, r2, lsl #3
 80062a0:	e9d3 2300 	ldrd	r2, r3, [r3]
 80062a4:	e9dd 0110 	ldrd	r0, r1, [sp, #64]	; 0x40
 80062a8:	f7fa f9a6 	bl	80005f8 <__aeabi_dmul>
 80062ac:	e9cd 0100 	strd	r0, r1, [sp]
 80062b0:	1136      	asrs	r6, r6, #4
 80062b2:	2300      	movs	r3, #0
 80062b4:	2502      	movs	r5, #2
 80062b6:	2e00      	cmp	r6, #0
 80062b8:	d17f      	bne.n	80063ba <_dtoa_r+0x49a>
 80062ba:	2b00      	cmp	r3, #0
 80062bc:	d1e1      	bne.n	8006282 <_dtoa_r+0x362>
 80062be:	9b0f      	ldr	r3, [sp, #60]	; 0x3c
 80062c0:	2b00      	cmp	r3, #0
 80062c2:	f000 8087 	beq.w	80063d4 <_dtoa_r+0x4b4>
 80062c6:	e9dd 6700 	ldrd	r6, r7, [sp]
 80062ca:	2200      	movs	r2, #0
 80062cc:	4b93      	ldr	r3, [pc, #588]	; (800651c <_dtoa_r+0x5fc>)
 80062ce:	4630      	mov	r0, r6
 80062d0:	4639      	mov	r1, r7
 80062d2:	f7fa fc03 	bl	8000adc <__aeabi_dcmplt>
 80062d6:	2800      	cmp	r0, #0
 80062d8:	d07c      	beq.n	80063d4 <_dtoa_r+0x4b4>
 80062da:	f1b9 0f00 	cmp.w	r9, #0
 80062de:	d079      	beq.n	80063d4 <_dtoa_r+0x4b4>
 80062e0:	9b02      	ldr	r3, [sp, #8]
 80062e2:	2b00      	cmp	r3, #0
 80062e4:	dd35      	ble.n	8006352 <_dtoa_r+0x432>
 80062e6:	f10a 33ff 	add.w	r3, sl, #4294967295
 80062ea:	9308      	str	r3, [sp, #32]
 80062ec:	4639      	mov	r1, r7
 80062ee:	2200      	movs	r2, #0
 80062f0:	4b8b      	ldr	r3, [pc, #556]	; (8006520 <_dtoa_r+0x600>)
 80062f2:	4630      	mov	r0, r6
 80062f4:	f7fa f980 	bl	80005f8 <__aeabi_dmul>
 80062f8:	e9cd 0100 	strd	r0, r1, [sp]
 80062fc:	9f02      	ldr	r7, [sp, #8]
 80062fe:	3501      	adds	r5, #1
 8006300:	4628      	mov	r0, r5
 8006302:	f7fa f90f 	bl	8000524 <__aeabi_i2d>
 8006306:	e9dd 2300 	ldrd	r2, r3, [sp]
 800630a:	f7fa f975 	bl	80005f8 <__aeabi_dmul>
 800630e:	2200      	movs	r2, #0
 8006310:	4b84      	ldr	r3, [pc, #528]	; (8006524 <_dtoa_r+0x604>)
 8006312:	f7f9 ffbb 	bl	800028c <__adddf3>
 8006316:	4605      	mov	r5, r0
 8006318:	f1a1 7650 	sub.w	r6, r1, #54525952	; 0x3400000
 800631c:	2f00      	cmp	r7, #0
 800631e:	d15d      	bne.n	80063dc <_dtoa_r+0x4bc>
 8006320:	2200      	movs	r2, #0
 8006322:	4b81      	ldr	r3, [pc, #516]	; (8006528 <_dtoa_r+0x608>)
 8006324:	e9dd 0100 	ldrd	r0, r1, [sp]
 8006328:	f7f9 ffae 	bl	8000288 <__aeabi_dsub>
 800632c:	462a      	mov	r2, r5
 800632e:	4633      	mov	r3, r6
 8006330:	e9cd 0100 	strd	r0, r1, [sp]
 8006334:	f7fa fbf0 	bl	8000b18 <__aeabi_dcmpgt>
 8006338:	2800      	cmp	r0, #0
 800633a:	f040 8288 	bne.w	800684e <_dtoa_r+0x92e>
 800633e:	462a      	mov	r2, r5
 8006340:	f106 4300 	add.w	r3, r6, #2147483648	; 0x80000000
 8006344:	e9dd 0100 	ldrd	r0, r1, [sp]
 8006348:	f7fa fbc8 	bl	8000adc <__aeabi_dcmplt>
 800634c:	2800      	cmp	r0, #0
 800634e:	f040 827c 	bne.w	800684a <_dtoa_r+0x92a>
 8006352:	e9dd 2310 	ldrd	r2, r3, [sp, #64]	; 0x40
 8006356:	e9cd 2300 	strd	r2, r3, [sp]
 800635a:	9b15      	ldr	r3, [sp, #84]	; 0x54
 800635c:	2b00      	cmp	r3, #0
 800635e:	f2c0 8150 	blt.w	8006602 <_dtoa_r+0x6e2>
 8006362:	f1ba 0f0e 	cmp.w	sl, #14
 8006366:	f300 814c 	bgt.w	8006602 <_dtoa_r+0x6e2>
 800636a:	4b6a      	ldr	r3, [pc, #424]	; (8006514 <_dtoa_r+0x5f4>)
 800636c:	eb03 03ca 	add.w	r3, r3, sl, lsl #3
 8006370:	ed93 7b00 	vldr	d7, [r3]
 8006374:	9b0b      	ldr	r3, [sp, #44]	; 0x2c
 8006376:	2b00      	cmp	r3, #0
 8006378:	ed8d 7b02 	vstr	d7, [sp, #8]
 800637c:	f280 80d8 	bge.w	8006530 <_dtoa_r+0x610>
 8006380:	f1b9 0f00 	cmp.w	r9, #0
 8006384:	f300 80d4 	bgt.w	8006530 <_dtoa_r+0x610>
 8006388:	f040 825e 	bne.w	8006848 <_dtoa_r+0x928>
 800638c:	2200      	movs	r2, #0
 800638e:	4b66      	ldr	r3, [pc, #408]	; (8006528 <_dtoa_r+0x608>)
 8006390:	ec51 0b17 	vmov	r0, r1, d7
 8006394:	f7fa f930 	bl	80005f8 <__aeabi_dmul>
 8006398:	e9dd 2300 	ldrd	r2, r3, [sp]
 800639c:	f7fa fbb2 	bl	8000b04 <__aeabi_dcmpge>
 80063a0:	464f      	mov	r7, r9
 80063a2:	464e      	mov	r6, r9
 80063a4:	2800      	cmp	r0, #0
 80063a6:	f040 8234 	bne.w	8006812 <_dtoa_r+0x8f2>
 80063aa:	2331      	movs	r3, #49	; 0x31
 80063ac:	f10b 0501 	add.w	r5, fp, #1
 80063b0:	f88b 3000 	strb.w	r3, [fp]
 80063b4:	f10a 0a01 	add.w	sl, sl, #1
 80063b8:	e22f      	b.n	800681a <_dtoa_r+0x8fa>
 80063ba:	07f2      	lsls	r2, r6, #31
 80063bc:	d505      	bpl.n	80063ca <_dtoa_r+0x4aa>
 80063be:	e9d7 2300 	ldrd	r2, r3, [r7]
 80063c2:	f7fa f919 	bl	80005f8 <__aeabi_dmul>
 80063c6:	3501      	adds	r5, #1
 80063c8:	2301      	movs	r3, #1
 80063ca:	1076      	asrs	r6, r6, #1
 80063cc:	3708      	adds	r7, #8
 80063ce:	e772      	b.n	80062b6 <_dtoa_r+0x396>
 80063d0:	2502      	movs	r5, #2
 80063d2:	e774      	b.n	80062be <_dtoa_r+0x39e>
 80063d4:	f8cd a020 	str.w	sl, [sp, #32]
 80063d8:	464f      	mov	r7, r9
 80063da:	e791      	b.n	8006300 <_dtoa_r+0x3e0>
 80063dc:	4b4d      	ldr	r3, [pc, #308]	; (8006514 <_dtoa_r+0x5f4>)
 80063de:	eb03 03c7 	add.w	r3, r3, r7, lsl #3
 80063e2:	e953 0102 	ldrd	r0, r1, [r3, #-8]
 80063e6:	9b0a      	ldr	r3, [sp, #40]	; 0x28
 80063e8:	2b00      	cmp	r3, #0
 80063ea:	d047      	beq.n	800647c <_dtoa_r+0x55c>
 80063ec:	4602      	mov	r2, r0
 80063ee:	460b      	mov	r3, r1
 80063f0:	2000      	movs	r0, #0
 80063f2:	494e      	ldr	r1, [pc, #312]	; (800652c <_dtoa_r+0x60c>)
 80063f4:	f7fa fa2a 	bl	800084c <__aeabi_ddiv>
 80063f8:	462a      	mov	r2, r5
 80063fa:	4633      	mov	r3, r6
 80063fc:	f7f9 ff44 	bl	8000288 <__aeabi_dsub>
 8006400:	e9cd 010c 	strd	r0, r1, [sp, #48]	; 0x30
 8006404:	465d      	mov	r5, fp
 8006406:	e9dd 0100 	ldrd	r0, r1, [sp]
 800640a:	f7fa fba5 	bl	8000b58 <__aeabi_d2iz>
 800640e:	4606      	mov	r6, r0
 8006410:	f7fa f888 	bl	8000524 <__aeabi_i2d>
 8006414:	4602      	mov	r2, r0
 8006416:	460b      	mov	r3, r1
 8006418:	e9dd 0100 	ldrd	r0, r1, [sp]
 800641c:	f7f9 ff34 	bl	8000288 <__aeabi_dsub>
 8006420:	3630      	adds	r6, #48	; 0x30
 8006422:	f805 6b01 	strb.w	r6, [r5], #1
 8006426:	e9dd 230c 	ldrd	r2, r3, [sp, #48]	; 0x30
 800642a:	e9cd 0100 	strd	r0, r1, [sp]
 800642e:	f7fa fb55 	bl	8000adc <__aeabi_dcmplt>
 8006432:	2800      	cmp	r0, #0
 8006434:	d163      	bne.n	80064fe <_dtoa_r+0x5de>
 8006436:	e9dd 2300 	ldrd	r2, r3, [sp]
 800643a:	2000      	movs	r0, #0
 800643c:	4937      	ldr	r1, [pc, #220]	; (800651c <_dtoa_r+0x5fc>)
 800643e:	f7f9 ff23 	bl	8000288 <__aeabi_dsub>
 8006442:	e9dd 230c 	ldrd	r2, r3, [sp, #48]	; 0x30
 8006446:	f7fa fb49 	bl	8000adc <__aeabi_dcmplt>
 800644a:	2800      	cmp	r0, #0
 800644c:	f040 80b7 	bne.w	80065be <_dtoa_r+0x69e>
 8006450:	eba5 030b 	sub.w	r3, r5, fp
 8006454:	429f      	cmp	r7, r3
 8006456:	f77f af7c 	ble.w	8006352 <_dtoa_r+0x432>
 800645a:	2200      	movs	r2, #0
 800645c:	4b30      	ldr	r3, [pc, #192]	; (8006520 <_dtoa_r+0x600>)
 800645e:	e9dd 010c 	ldrd	r0, r1, [sp, #48]	; 0x30
 8006462:	f7fa f8c9 	bl	80005f8 <__aeabi_dmul>
 8006466:	2200      	movs	r2, #0
 8006468:	e9cd 010c 	strd	r0, r1, [sp, #48]	; 0x30
 800646c:	4b2c      	ldr	r3, [pc, #176]	; (8006520 <_dtoa_r+0x600>)
 800646e:	e9dd 0100 	ldrd	r0, r1, [sp]
 8006472:	f7fa f8c1 	bl	80005f8 <__aeabi_dmul>
 8006476:	e9cd 0100 	strd	r0, r1, [sp]
 800647a:	e7c4      	b.n	8006406 <_dtoa_r+0x4e6>
 800647c:	462a      	mov	r2, r5
 800647e:	4633      	mov	r3, r6
 8006480:	f7fa f8ba 	bl	80005f8 <__aeabi_dmul>
 8006484:	e9cd 010c 	strd	r0, r1, [sp, #48]	; 0x30
 8006488:	eb0b 0507 	add.w	r5, fp, r7
 800648c:	465e      	mov	r6, fp
 800648e:	e9dd 0100 	ldrd	r0, r1, [sp]
 8006492:	f7fa fb61 	bl	8000b58 <__aeabi_d2iz>
 8006496:	4607      	mov	r7, r0
 8006498:	f7fa f844 	bl	8000524 <__aeabi_i2d>
 800649c:	3730      	adds	r7, #48	; 0x30
 800649e:	4602      	mov	r2, r0
 80064a0:	460b      	mov	r3, r1
 80064a2:	e9dd 0100 	ldrd	r0, r1, [sp]
 80064a6:	f7f9 feef 	bl	8000288 <__aeabi_dsub>
 80064aa:	f806 7b01 	strb.w	r7, [r6], #1
 80064ae:	42ae      	cmp	r6, r5
 80064b0:	e9cd 0100 	strd	r0, r1, [sp]
 80064b4:	f04f 0200 	mov.w	r2, #0
 80064b8:	d126      	bne.n	8006508 <_dtoa_r+0x5e8>
 80064ba:	4b1c      	ldr	r3, [pc, #112]	; (800652c <_dtoa_r+0x60c>)
 80064bc:	e9dd 010c 	ldrd	r0, r1, [sp, #48]	; 0x30
 80064c0:	f7f9 fee4 	bl	800028c <__adddf3>
 80064c4:	4602      	mov	r2, r0
 80064c6:	460b      	mov	r3, r1
 80064c8:	e9dd 0100 	ldrd	r0, r1, [sp]
 80064cc:	f7fa fb24 	bl	8000b18 <__aeabi_dcmpgt>
 80064d0:	2800      	cmp	r0, #0
 80064d2:	d174      	bne.n	80065be <_dtoa_r+0x69e>
 80064d4:	e9dd 230c 	ldrd	r2, r3, [sp, #48]	; 0x30
 80064d8:	2000      	movs	r0, #0
 80064da:	4914      	ldr	r1, [pc, #80]	; (800652c <_dtoa_r+0x60c>)
 80064dc:	f7f9 fed4 	bl	8000288 <__aeabi_dsub>
 80064e0:	4602      	mov	r2, r0
 80064e2:	460b      	mov	r3, r1
 80064e4:	e9dd 0100 	ldrd	r0, r1, [sp]
 80064e8:	f7fa faf8 	bl	8000adc <__aeabi_dcmplt>
 80064ec:	2800      	cmp	r0, #0
 80064ee:	f43f af30 	beq.w	8006352 <_dtoa_r+0x432>
 80064f2:	f815 3c01 	ldrb.w	r3, [r5, #-1]
 80064f6:	2b30      	cmp	r3, #48	; 0x30
 80064f8:	f105 32ff 	add.w	r2, r5, #4294967295
 80064fc:	d002      	beq.n	8006504 <_dtoa_r+0x5e4>
 80064fe:	f8dd a020 	ldr.w	sl, [sp, #32]
 8006502:	e04a      	b.n	800659a <_dtoa_r+0x67a>
 8006504:	4615      	mov	r5, r2
 8006506:	e7f4      	b.n	80064f2 <_dtoa_r+0x5d2>
 8006508:	4b05      	ldr	r3, [pc, #20]	; (8006520 <_dtoa_r+0x600>)
 800650a:	f7fa f875 	bl	80005f8 <__aeabi_dmul>
 800650e:	e9cd 0100 	strd	r0, r1, [sp]
 8006512:	e7bc      	b.n	800648e <_dtoa_r+0x56e>
 8006514:	08007ce8 	.word	0x08007ce8
 8006518:	08007cc0 	.word	0x08007cc0
 800651c:	3ff00000 	.word	0x3ff00000
 8006520:	40240000 	.word	0x40240000
 8006524:	401c0000 	.word	0x401c0000
 8006528:	40140000 	.word	0x40140000
 800652c:	3fe00000 	.word	0x3fe00000
 8006530:	e9dd 6700 	ldrd	r6, r7, [sp]
 8006534:	465d      	mov	r5, fp
 8006536:	e9dd 2302 	ldrd	r2, r3, [sp, #8]
 800653a:	4630      	mov	r0, r6
 800653c:	4639      	mov	r1, r7
 800653e:	f7fa f985 	bl	800084c <__aeabi_ddiv>
 8006542:	f7fa fb09 	bl	8000b58 <__aeabi_d2iz>
 8006546:	4680      	mov	r8, r0
 8006548:	f7f9 ffec 	bl	8000524 <__aeabi_i2d>
 800654c:	e9dd 2302 	ldrd	r2, r3, [sp, #8]
 8006550:	f7fa f852 	bl	80005f8 <__aeabi_dmul>
 8006554:	4602      	mov	r2, r0
 8006556:	460b      	mov	r3, r1
 8006558:	4630      	mov	r0, r6
 800655a:	4639      	mov	r1, r7
 800655c:	f108 0630 	add.w	r6, r8, #48	; 0x30
 8006560:	f7f9 fe92 	bl	8000288 <__aeabi_dsub>
 8006564:	f805 6b01 	strb.w	r6, [r5], #1
 8006568:	eba5 060b 	sub.w	r6, r5, fp
 800656c:	45b1      	cmp	r9, r6
 800656e:	4602      	mov	r2, r0
 8006570:	460b      	mov	r3, r1
 8006572:	d139      	bne.n	80065e8 <_dtoa_r+0x6c8>
 8006574:	f7f9 fe8a 	bl	800028c <__adddf3>
 8006578:	e9dd 2302 	ldrd	r2, r3, [sp, #8]
 800657c:	4606      	mov	r6, r0
 800657e:	460f      	mov	r7, r1
 8006580:	f7fa faca 	bl	8000b18 <__aeabi_dcmpgt>
 8006584:	b9c8      	cbnz	r0, 80065ba <_dtoa_r+0x69a>
 8006586:	e9dd 2302 	ldrd	r2, r3, [sp, #8]
 800658a:	4630      	mov	r0, r6
 800658c:	4639      	mov	r1, r7
 800658e:	f7fa fa9b 	bl	8000ac8 <__aeabi_dcmpeq>
 8006592:	b110      	cbz	r0, 800659a <_dtoa_r+0x67a>
 8006594:	f018 0f01 	tst.w	r8, #1
 8006598:	d10f      	bne.n	80065ba <_dtoa_r+0x69a>
 800659a:	9904      	ldr	r1, [sp, #16]
 800659c:	4620      	mov	r0, r4
 800659e:	f000 fcaa 	bl	8006ef6 <_Bfree>
 80065a2:	2300      	movs	r3, #0
 80065a4:	9a12      	ldr	r2, [sp, #72]	; 0x48
 80065a6:	702b      	strb	r3, [r5, #0]
 80065a8:	f10a 0301 	add.w	r3, sl, #1
 80065ac:	6013      	str	r3, [r2, #0]
 80065ae:	9b21      	ldr	r3, [sp, #132]	; 0x84
 80065b0:	2b00      	cmp	r3, #0
 80065b2:	f000 8241 	beq.w	8006a38 <_dtoa_r+0xb18>
 80065b6:	601d      	str	r5, [r3, #0]
 80065b8:	e23e      	b.n	8006a38 <_dtoa_r+0xb18>
 80065ba:	f8cd a020 	str.w	sl, [sp, #32]
 80065be:	f815 2c01 	ldrb.w	r2, [r5, #-1]
 80065c2:	2a39      	cmp	r2, #57	; 0x39
 80065c4:	f105 33ff 	add.w	r3, r5, #4294967295
 80065c8:	d108      	bne.n	80065dc <_dtoa_r+0x6bc>
 80065ca:	459b      	cmp	fp, r3
 80065cc:	d10a      	bne.n	80065e4 <_dtoa_r+0x6c4>
 80065ce:	9b08      	ldr	r3, [sp, #32]
 80065d0:	3301      	adds	r3, #1
 80065d2:	9308      	str	r3, [sp, #32]
 80065d4:	2330      	movs	r3, #48	; 0x30
 80065d6:	f88b 3000 	strb.w	r3, [fp]
 80065da:	465b      	mov	r3, fp
 80065dc:	781a      	ldrb	r2, [r3, #0]
 80065de:	3201      	adds	r2, #1
 80065e0:	701a      	strb	r2, [r3, #0]
 80065e2:	e78c      	b.n	80064fe <_dtoa_r+0x5de>
 80065e4:	461d      	mov	r5, r3
 80065e6:	e7ea      	b.n	80065be <_dtoa_r+0x69e>
 80065e8:	2200      	movs	r2, #0
 80065ea:	4b9b      	ldr	r3, [pc, #620]	; (8006858 <_dtoa_r+0x938>)
 80065ec:	f7fa f804 	bl	80005f8 <__aeabi_dmul>
 80065f0:	2200      	movs	r2, #0
 80065f2:	2300      	movs	r3, #0
 80065f4:	4606      	mov	r6, r0
 80065f6:	460f      	mov	r7, r1
 80065f8:	f7fa fa66 	bl	8000ac8 <__aeabi_dcmpeq>
 80065fc:	2800      	cmp	r0, #0
 80065fe:	d09a      	beq.n	8006536 <_dtoa_r+0x616>
 8006600:	e7cb      	b.n	800659a <_dtoa_r+0x67a>
 8006602:	9a0a      	ldr	r2, [sp, #40]	; 0x28
 8006604:	2a00      	cmp	r2, #0
 8006606:	f000 808b 	beq.w	8006720 <_dtoa_r+0x800>
 800660a:	9a06      	ldr	r2, [sp, #24]
 800660c:	2a01      	cmp	r2, #1
 800660e:	dc6e      	bgt.n	80066ee <_dtoa_r+0x7ce>
 8006610:	9a13      	ldr	r2, [sp, #76]	; 0x4c
 8006612:	2a00      	cmp	r2, #0
 8006614:	d067      	beq.n	80066e6 <_dtoa_r+0x7c6>
 8006616:	f203 4333 	addw	r3, r3, #1075	; 0x433
 800661a:	9f07      	ldr	r7, [sp, #28]
 800661c:	9d05      	ldr	r5, [sp, #20]
 800661e:	9a05      	ldr	r2, [sp, #20]
 8006620:	2101      	movs	r1, #1
 8006622:	441a      	add	r2, r3
 8006624:	4620      	mov	r0, r4
 8006626:	9205      	str	r2, [sp, #20]
 8006628:	4498      	add	r8, r3
 800662a:	f000 fd04 	bl	8007036 <__i2b>
 800662e:	4606      	mov	r6, r0
 8006630:	2d00      	cmp	r5, #0
 8006632:	dd0c      	ble.n	800664e <_dtoa_r+0x72e>
 8006634:	f1b8 0f00 	cmp.w	r8, #0
 8006638:	dd09      	ble.n	800664e <_dtoa_r+0x72e>
 800663a:	4545      	cmp	r5, r8
 800663c:	9a05      	ldr	r2, [sp, #20]
 800663e:	462b      	mov	r3, r5
 8006640:	bfa8      	it	ge
 8006642:	4643      	movge	r3, r8
 8006644:	1ad2      	subs	r2, r2, r3
 8006646:	9205      	str	r2, [sp, #20]
 8006648:	1aed      	subs	r5, r5, r3
 800664a:	eba8 0803 	sub.w	r8, r8, r3
 800664e:	9b07      	ldr	r3, [sp, #28]
 8006650:	b1eb      	cbz	r3, 800668e <_dtoa_r+0x76e>
 8006652:	9b0a      	ldr	r3, [sp, #40]	; 0x28
 8006654:	2b00      	cmp	r3, #0
 8006656:	d067      	beq.n	8006728 <_dtoa_r+0x808>
 8006658:	b18f      	cbz	r7, 800667e <_dtoa_r+0x75e>
 800665a:	4631      	mov	r1, r6
 800665c:	463a      	mov	r2, r7
 800665e:	4620      	mov	r0, r4
 8006660:	f000 fd88 	bl	8007174 <__pow5mult>
 8006664:	9a04      	ldr	r2, [sp, #16]
 8006666:	4601      	mov	r1, r0
 8006668:	4606      	mov	r6, r0
 800666a:	4620      	mov	r0, r4
 800666c:	f000 fcec 	bl	8007048 <__multiply>
 8006670:	9904      	ldr	r1, [sp, #16]
 8006672:	9008      	str	r0, [sp, #32]
 8006674:	4620      	mov	r0, r4
 8006676:	f000 fc3e 	bl	8006ef6 <_Bfree>
 800667a:	9b08      	ldr	r3, [sp, #32]
 800667c:	9304      	str	r3, [sp, #16]
 800667e:	9b07      	ldr	r3, [sp, #28]
 8006680:	1bda      	subs	r2, r3, r7
 8006682:	d004      	beq.n	800668e <_dtoa_r+0x76e>
 8006684:	9904      	ldr	r1, [sp, #16]
 8006686:	4620      	mov	r0, r4
 8006688:	f000 fd74 	bl	8007174 <__pow5mult>
 800668c:	9004      	str	r0, [sp, #16]
 800668e:	2101      	movs	r1, #1
 8006690:	4620      	mov	r0, r4
 8006692:	f000 fcd0 	bl	8007036 <__i2b>
 8006696:	9b0e      	ldr	r3, [sp, #56]	; 0x38
 8006698:	4607      	mov	r7, r0
 800669a:	2b00      	cmp	r3, #0
 800669c:	f000 81d0 	beq.w	8006a40 <_dtoa_r+0xb20>
 80066a0:	461a      	mov	r2, r3
 80066a2:	4601      	mov	r1, r0
 80066a4:	4620      	mov	r0, r4
 80066a6:	f000 fd65 	bl	8007174 <__pow5mult>
 80066aa:	9b06      	ldr	r3, [sp, #24]
 80066ac:	2b01      	cmp	r3, #1
 80066ae:	4607      	mov	r7, r0
 80066b0:	dc40      	bgt.n	8006734 <_dtoa_r+0x814>
 80066b2:	9b00      	ldr	r3, [sp, #0]
 80066b4:	2b00      	cmp	r3, #0
 80066b6:	d139      	bne.n	800672c <_dtoa_r+0x80c>
 80066b8:	9b01      	ldr	r3, [sp, #4]
 80066ba:	f3c3 0313 	ubfx	r3, r3, #0, #20
 80066be:	2b00      	cmp	r3, #0
 80066c0:	d136      	bne.n	8006730 <_dtoa_r+0x810>
 80066c2:	9b01      	ldr	r3, [sp, #4]
 80066c4:	f023 4300 	bic.w	r3, r3, #2147483648	; 0x80000000
 80066c8:	0d1b      	lsrs	r3, r3, #20
 80066ca:	051b      	lsls	r3, r3, #20
 80066cc:	b12b      	cbz	r3, 80066da <_dtoa_r+0x7ba>
 80066ce:	9b05      	ldr	r3, [sp, #20]
 80066d0:	3301      	adds	r3, #1
 80066d2:	9305      	str	r3, [sp, #20]
 80066d4:	f108 0801 	add.w	r8, r8, #1
 80066d8:	2301      	movs	r3, #1
 80066da:	9307      	str	r3, [sp, #28]
 80066dc:	9b0e      	ldr	r3, [sp, #56]	; 0x38
 80066de:	2b00      	cmp	r3, #0
 80066e0:	d12a      	bne.n	8006738 <_dtoa_r+0x818>
 80066e2:	2001      	movs	r0, #1
 80066e4:	e030      	b.n	8006748 <_dtoa_r+0x828>
 80066e6:	9b14      	ldr	r3, [sp, #80]	; 0x50
 80066e8:	f1c3 0336 	rsb	r3, r3, #54	; 0x36
 80066ec:	e795      	b.n	800661a <_dtoa_r+0x6fa>
 80066ee:	9b07      	ldr	r3, [sp, #28]
 80066f0:	f109 37ff 	add.w	r7, r9, #4294967295
 80066f4:	42bb      	cmp	r3, r7
 80066f6:	bfbf      	itttt	lt
 80066f8:	9b07      	ldrlt	r3, [sp, #28]
 80066fa:	9707      	strlt	r7, [sp, #28]
 80066fc:	1afa      	sublt	r2, r7, r3
 80066fe:	9b0e      	ldrlt	r3, [sp, #56]	; 0x38
 8006700:	bfbb      	ittet	lt
 8006702:	189b      	addlt	r3, r3, r2
 8006704:	930e      	strlt	r3, [sp, #56]	; 0x38
 8006706:	1bdf      	subge	r7, r3, r7
 8006708:	2700      	movlt	r7, #0
 800670a:	f1b9 0f00 	cmp.w	r9, #0
 800670e:	bfb5      	itete	lt
 8006710:	9b05      	ldrlt	r3, [sp, #20]
 8006712:	9d05      	ldrge	r5, [sp, #20]
 8006714:	eba3 0509 	sublt.w	r5, r3, r9
 8006718:	464b      	movge	r3, r9
 800671a:	bfb8      	it	lt
 800671c:	2300      	movlt	r3, #0
 800671e:	e77e      	b.n	800661e <_dtoa_r+0x6fe>
 8006720:	9f07      	ldr	r7, [sp, #28]
 8006722:	9d05      	ldr	r5, [sp, #20]
 8006724:	9e0a      	ldr	r6, [sp, #40]	; 0x28
 8006726:	e783      	b.n	8006630 <_dtoa_r+0x710>
 8006728:	9a07      	ldr	r2, [sp, #28]
 800672a:	e7ab      	b.n	8006684 <_dtoa_r+0x764>
 800672c:	2300      	movs	r3, #0
 800672e:	e7d4      	b.n	80066da <_dtoa_r+0x7ba>
 8006730:	9b00      	ldr	r3, [sp, #0]
 8006732:	e7d2      	b.n	80066da <_dtoa_r+0x7ba>
 8006734:	2300      	movs	r3, #0
 8006736:	9307      	str	r3, [sp, #28]
 8006738:	693b      	ldr	r3, [r7, #16]
 800673a:	eb07 0383 	add.w	r3, r7, r3, lsl #2
 800673e:	6918      	ldr	r0, [r3, #16]
 8006740:	f000 fc2b 	bl	8006f9a <__hi0bits>
 8006744:	f1c0 0020 	rsb	r0, r0, #32
 8006748:	4440      	add	r0, r8
 800674a:	f010 001f 	ands.w	r0, r0, #31
 800674e:	d047      	beq.n	80067e0 <_dtoa_r+0x8c0>
 8006750:	f1c0 0320 	rsb	r3, r0, #32
 8006754:	2b04      	cmp	r3, #4
 8006756:	dd3b      	ble.n	80067d0 <_dtoa_r+0x8b0>
 8006758:	9b05      	ldr	r3, [sp, #20]
 800675a:	f1c0 001c 	rsb	r0, r0, #28
 800675e:	4403      	add	r3, r0
 8006760:	9305      	str	r3, [sp, #20]
 8006762:	4405      	add	r5, r0
 8006764:	4480      	add	r8, r0
 8006766:	9b05      	ldr	r3, [sp, #20]
 8006768:	2b00      	cmp	r3, #0
 800676a:	dd05      	ble.n	8006778 <_dtoa_r+0x858>
 800676c:	461a      	mov	r2, r3
 800676e:	9904      	ldr	r1, [sp, #16]
 8006770:	4620      	mov	r0, r4
 8006772:	f000 fd4d 	bl	8007210 <__lshift>
 8006776:	9004      	str	r0, [sp, #16]
 8006778:	f1b8 0f00 	cmp.w	r8, #0
 800677c:	dd05      	ble.n	800678a <_dtoa_r+0x86a>
 800677e:	4639      	mov	r1, r7
 8006780:	4642      	mov	r2, r8
 8006782:	4620      	mov	r0, r4
 8006784:	f000 fd44 	bl	8007210 <__lshift>
 8006788:	4607      	mov	r7, r0
 800678a:	9b0f      	ldr	r3, [sp, #60]	; 0x3c
 800678c:	b353      	cbz	r3, 80067e4 <_dtoa_r+0x8c4>
 800678e:	4639      	mov	r1, r7
 8006790:	9804      	ldr	r0, [sp, #16]
 8006792:	f000 fd91 	bl	80072b8 <__mcmp>
 8006796:	2800      	cmp	r0, #0
 8006798:	da24      	bge.n	80067e4 <_dtoa_r+0x8c4>
 800679a:	2300      	movs	r3, #0
 800679c:	220a      	movs	r2, #10
 800679e:	9904      	ldr	r1, [sp, #16]
 80067a0:	4620      	mov	r0, r4
 80067a2:	f000 fbbf 	bl	8006f24 <__multadd>
 80067a6:	9b0a      	ldr	r3, [sp, #40]	; 0x28
 80067a8:	9004      	str	r0, [sp, #16]
 80067aa:	f10a 3aff 	add.w	sl, sl, #4294967295
 80067ae:	2b00      	cmp	r3, #0
 80067b0:	f000 814d 	beq.w	8006a4e <_dtoa_r+0xb2e>
 80067b4:	2300      	movs	r3, #0
 80067b6:	4631      	mov	r1, r6
 80067b8:	220a      	movs	r2, #10
 80067ba:	4620      	mov	r0, r4
 80067bc:	f000 fbb2 	bl	8006f24 <__multadd>
 80067c0:	9b02      	ldr	r3, [sp, #8]
 80067c2:	2b00      	cmp	r3, #0
 80067c4:	4606      	mov	r6, r0
 80067c6:	dc4f      	bgt.n	8006868 <_dtoa_r+0x948>
 80067c8:	9b06      	ldr	r3, [sp, #24]
 80067ca:	2b02      	cmp	r3, #2
 80067cc:	dd4c      	ble.n	8006868 <_dtoa_r+0x948>
 80067ce:	e011      	b.n	80067f4 <_dtoa_r+0x8d4>
 80067d0:	d0c9      	beq.n	8006766 <_dtoa_r+0x846>
 80067d2:	9a05      	ldr	r2, [sp, #20]
 80067d4:	331c      	adds	r3, #28
 80067d6:	441a      	add	r2, r3
 80067d8:	9205      	str	r2, [sp, #20]
 80067da:	441d      	add	r5, r3
 80067dc:	4498      	add	r8, r3
 80067de:	e7c2      	b.n	8006766 <_dtoa_r+0x846>
 80067e0:	4603      	mov	r3, r0
 80067e2:	e7f6      	b.n	80067d2 <_dtoa_r+0x8b2>
 80067e4:	f1b9 0f00 	cmp.w	r9, #0
 80067e8:	dc38      	bgt.n	800685c <_dtoa_r+0x93c>
 80067ea:	9b06      	ldr	r3, [sp, #24]
 80067ec:	2b02      	cmp	r3, #2
 80067ee:	dd35      	ble.n	800685c <_dtoa_r+0x93c>
 80067f0:	f8cd 9008 	str.w	r9, [sp, #8]
 80067f4:	9b02      	ldr	r3, [sp, #8]
 80067f6:	b963      	cbnz	r3, 8006812 <_dtoa_r+0x8f2>
 80067f8:	4639      	mov	r1, r7
 80067fa:	2205      	movs	r2, #5
 80067fc:	4620      	mov	r0, r4
 80067fe:	f000 fb91 	bl	8006f24 <__multadd>
 8006802:	4601      	mov	r1, r0
 8006804:	4607      	mov	r7, r0
 8006806:	9804      	ldr	r0, [sp, #16]
 8006808:	f000 fd56 	bl	80072b8 <__mcmp>
 800680c:	2800      	cmp	r0, #0
 800680e:	f73f adcc 	bgt.w	80063aa <_dtoa_r+0x48a>
 8006812:	9b0b      	ldr	r3, [sp, #44]	; 0x2c
 8006814:	465d      	mov	r5, fp
 8006816:	ea6f 0a03 	mvn.w	sl, r3
 800681a:	f04f 0900 	mov.w	r9, #0
 800681e:	4639      	mov	r1, r7
 8006820:	4620      	mov	r0, r4
 8006822:	f000 fb68 	bl	8006ef6 <_Bfree>
 8006826:	2e00      	cmp	r6, #0
 8006828:	f43f aeb7 	beq.w	800659a <_dtoa_r+0x67a>
 800682c:	f1b9 0f00 	cmp.w	r9, #0
 8006830:	d005      	beq.n	800683e <_dtoa_r+0x91e>
 8006832:	45b1      	cmp	r9, r6
 8006834:	d003      	beq.n	800683e <_dtoa_r+0x91e>
 8006836:	4649      	mov	r1, r9
 8006838:	4620      	mov	r0, r4
 800683a:	f000 fb5c 	bl	8006ef6 <_Bfree>
 800683e:	4631      	mov	r1, r6
 8006840:	4620      	mov	r0, r4
 8006842:	f000 fb58 	bl	8006ef6 <_Bfree>
 8006846:	e6a8      	b.n	800659a <_dtoa_r+0x67a>
 8006848:	2700      	movs	r7, #0
 800684a:	463e      	mov	r6, r7
 800684c:	e7e1      	b.n	8006812 <_dtoa_r+0x8f2>
 800684e:	f8dd a020 	ldr.w	sl, [sp, #32]
 8006852:	463e      	mov	r6, r7
 8006854:	e5a9      	b.n	80063aa <_dtoa_r+0x48a>
 8006856:	bf00      	nop
 8006858:	40240000 	.word	0x40240000
 800685c:	9b0a      	ldr	r3, [sp, #40]	; 0x28
 800685e:	f8cd 9008 	str.w	r9, [sp, #8]
 8006862:	2b00      	cmp	r3, #0
 8006864:	f000 80fa 	beq.w	8006a5c <_dtoa_r+0xb3c>
 8006868:	2d00      	cmp	r5, #0
 800686a:	dd05      	ble.n	8006878 <_dtoa_r+0x958>
 800686c:	4631      	mov	r1, r6
 800686e:	462a      	mov	r2, r5
 8006870:	4620      	mov	r0, r4
 8006872:	f000 fccd 	bl	8007210 <__lshift>
 8006876:	4606      	mov	r6, r0
 8006878:	9b07      	ldr	r3, [sp, #28]
 800687a:	2b00      	cmp	r3, #0
 800687c:	d04c      	beq.n	8006918 <_dtoa_r+0x9f8>
 800687e:	6871      	ldr	r1, [r6, #4]
 8006880:	4620      	mov	r0, r4
 8006882:	f000 fb04 	bl	8006e8e <_Balloc>
 8006886:	6932      	ldr	r2, [r6, #16]
 8006888:	3202      	adds	r2, #2
 800688a:	4605      	mov	r5, r0
 800688c:	0092      	lsls	r2, r2, #2
 800688e:	f106 010c 	add.w	r1, r6, #12
 8006892:	300c      	adds	r0, #12
 8006894:	f000 faf0 	bl	8006e78 <memcpy>
 8006898:	2201      	movs	r2, #1
 800689a:	4629      	mov	r1, r5
 800689c:	4620      	mov	r0, r4
 800689e:	f000 fcb7 	bl	8007210 <__lshift>
 80068a2:	9b00      	ldr	r3, [sp, #0]
 80068a4:	f8cd b014 	str.w	fp, [sp, #20]
 80068a8:	f003 0301 	and.w	r3, r3, #1
 80068ac:	46b1      	mov	r9, r6
 80068ae:	9307      	str	r3, [sp, #28]
 80068b0:	4606      	mov	r6, r0
 80068b2:	4639      	mov	r1, r7
 80068b4:	9804      	ldr	r0, [sp, #16]
 80068b6:	f7ff faa5 	bl	8005e04 <quorem>
 80068ba:	4649      	mov	r1, r9
 80068bc:	4605      	mov	r5, r0
 80068be:	f100 0830 	add.w	r8, r0, #48	; 0x30
 80068c2:	9804      	ldr	r0, [sp, #16]
 80068c4:	f000 fcf8 	bl	80072b8 <__mcmp>
 80068c8:	4632      	mov	r2, r6
 80068ca:	9000      	str	r0, [sp, #0]
 80068cc:	4639      	mov	r1, r7
 80068ce:	4620      	mov	r0, r4
 80068d0:	f000 fd0c 	bl	80072ec <__mdiff>
 80068d4:	68c3      	ldr	r3, [r0, #12]
 80068d6:	4602      	mov	r2, r0
 80068d8:	bb03      	cbnz	r3, 800691c <_dtoa_r+0x9fc>
 80068da:	4601      	mov	r1, r0
 80068dc:	9008      	str	r0, [sp, #32]
 80068de:	9804      	ldr	r0, [sp, #16]
 80068e0:	f000 fcea 	bl	80072b8 <__mcmp>
 80068e4:	9a08      	ldr	r2, [sp, #32]
 80068e6:	4603      	mov	r3, r0
 80068e8:	4611      	mov	r1, r2
 80068ea:	4620      	mov	r0, r4
 80068ec:	9308      	str	r3, [sp, #32]
 80068ee:	f000 fb02 	bl	8006ef6 <_Bfree>
 80068f2:	9b08      	ldr	r3, [sp, #32]
 80068f4:	b9a3      	cbnz	r3, 8006920 <_dtoa_r+0xa00>
 80068f6:	9a06      	ldr	r2, [sp, #24]
 80068f8:	b992      	cbnz	r2, 8006920 <_dtoa_r+0xa00>
 80068fa:	9a07      	ldr	r2, [sp, #28]
 80068fc:	b982      	cbnz	r2, 8006920 <_dtoa_r+0xa00>
 80068fe:	f1b8 0f39 	cmp.w	r8, #57	; 0x39
 8006902:	d029      	beq.n	8006958 <_dtoa_r+0xa38>
 8006904:	9b00      	ldr	r3, [sp, #0]
 8006906:	2b00      	cmp	r3, #0
 8006908:	dd01      	ble.n	800690e <_dtoa_r+0x9ee>
 800690a:	f105 0831 	add.w	r8, r5, #49	; 0x31
 800690e:	9b05      	ldr	r3, [sp, #20]
 8006910:	1c5d      	adds	r5, r3, #1
 8006912:	f883 8000 	strb.w	r8, [r3]
 8006916:	e782      	b.n	800681e <_dtoa_r+0x8fe>
 8006918:	4630      	mov	r0, r6
 800691a:	e7c2      	b.n	80068a2 <_dtoa_r+0x982>
 800691c:	2301      	movs	r3, #1
 800691e:	e7e3      	b.n	80068e8 <_dtoa_r+0x9c8>
 8006920:	9a00      	ldr	r2, [sp, #0]
 8006922:	2a00      	cmp	r2, #0
 8006924:	db04      	blt.n	8006930 <_dtoa_r+0xa10>
 8006926:	d125      	bne.n	8006974 <_dtoa_r+0xa54>
 8006928:	9a06      	ldr	r2, [sp, #24]
 800692a:	bb1a      	cbnz	r2, 8006974 <_dtoa_r+0xa54>
 800692c:	9a07      	ldr	r2, [sp, #28]
 800692e:	bb0a      	cbnz	r2, 8006974 <_dtoa_r+0xa54>
 8006930:	2b00      	cmp	r3, #0
 8006932:	ddec      	ble.n	800690e <_dtoa_r+0x9ee>
 8006934:	2201      	movs	r2, #1
 8006936:	9904      	ldr	r1, [sp, #16]
 8006938:	4620      	mov	r0, r4
 800693a:	f000 fc69 	bl	8007210 <__lshift>
 800693e:	4639      	mov	r1, r7
 8006940:	9004      	str	r0, [sp, #16]
 8006942:	f000 fcb9 	bl	80072b8 <__mcmp>
 8006946:	2800      	cmp	r0, #0
 8006948:	dc03      	bgt.n	8006952 <_dtoa_r+0xa32>
 800694a:	d1e0      	bne.n	800690e <_dtoa_r+0x9ee>
 800694c:	f018 0f01 	tst.w	r8, #1
 8006950:	d0dd      	beq.n	800690e <_dtoa_r+0x9ee>
 8006952:	f1b8 0f39 	cmp.w	r8, #57	; 0x39
 8006956:	d1d8      	bne.n	800690a <_dtoa_r+0x9ea>
 8006958:	9b05      	ldr	r3, [sp, #20]
 800695a:	9a05      	ldr	r2, [sp, #20]
 800695c:	1c5d      	adds	r5, r3, #1
 800695e:	2339      	movs	r3, #57	; 0x39
 8006960:	7013      	strb	r3, [r2, #0]
 8006962:	f815 3c01 	ldrb.w	r3, [r5, #-1]
 8006966:	2b39      	cmp	r3, #57	; 0x39
 8006968:	f105 32ff 	add.w	r2, r5, #4294967295
 800696c:	d04f      	beq.n	8006a0e <_dtoa_r+0xaee>
 800696e:	3301      	adds	r3, #1
 8006970:	7013      	strb	r3, [r2, #0]
 8006972:	e754      	b.n	800681e <_dtoa_r+0x8fe>
 8006974:	9a05      	ldr	r2, [sp, #20]
 8006976:	2b00      	cmp	r3, #0
 8006978:	f102 0501 	add.w	r5, r2, #1
 800697c:	dd06      	ble.n	800698c <_dtoa_r+0xa6c>
 800697e:	f1b8 0f39 	cmp.w	r8, #57	; 0x39
 8006982:	d0e9      	beq.n	8006958 <_dtoa_r+0xa38>
 8006984:	f108 0801 	add.w	r8, r8, #1
 8006988:	9b05      	ldr	r3, [sp, #20]
 800698a:	e7c2      	b.n	8006912 <_dtoa_r+0x9f2>
 800698c:	9a02      	ldr	r2, [sp, #8]
 800698e:	f805 8c01 	strb.w	r8, [r5, #-1]
 8006992:	eba5 030b 	sub.w	r3, r5, fp
 8006996:	4293      	cmp	r3, r2
 8006998:	d021      	beq.n	80069de <_dtoa_r+0xabe>
 800699a:	2300      	movs	r3, #0
 800699c:	220a      	movs	r2, #10
 800699e:	9904      	ldr	r1, [sp, #16]
 80069a0:	4620      	mov	r0, r4
 80069a2:	f000 fabf 	bl	8006f24 <__multadd>
 80069a6:	45b1      	cmp	r9, r6
 80069a8:	9004      	str	r0, [sp, #16]
 80069aa:	f04f 0300 	mov.w	r3, #0
 80069ae:	f04f 020a 	mov.w	r2, #10
 80069b2:	4649      	mov	r1, r9
 80069b4:	4620      	mov	r0, r4
 80069b6:	d105      	bne.n	80069c4 <_dtoa_r+0xaa4>
 80069b8:	f000 fab4 	bl	8006f24 <__multadd>
 80069bc:	4681      	mov	r9, r0
 80069be:	4606      	mov	r6, r0
 80069c0:	9505      	str	r5, [sp, #20]
 80069c2:	e776      	b.n	80068b2 <_dtoa_r+0x992>
 80069c4:	f000 faae 	bl	8006f24 <__multadd>
 80069c8:	4631      	mov	r1, r6
 80069ca:	4681      	mov	r9, r0
 80069cc:	2300      	movs	r3, #0
 80069ce:	220a      	movs	r2, #10
 80069d0:	4620      	mov	r0, r4
 80069d2:	f000 faa7 	bl	8006f24 <__multadd>
 80069d6:	4606      	mov	r6, r0
 80069d8:	e7f2      	b.n	80069c0 <_dtoa_r+0xaa0>
 80069da:	f04f 0900 	mov.w	r9, #0
 80069de:	2201      	movs	r2, #1
 80069e0:	9904      	ldr	r1, [sp, #16]
 80069e2:	4620      	mov	r0, r4
 80069e4:	f000 fc14 	bl	8007210 <__lshift>
 80069e8:	4639      	mov	r1, r7
 80069ea:	9004      	str	r0, [sp, #16]
 80069ec:	f000 fc64 	bl	80072b8 <__mcmp>
 80069f0:	2800      	cmp	r0, #0
 80069f2:	dcb6      	bgt.n	8006962 <_dtoa_r+0xa42>
 80069f4:	d102      	bne.n	80069fc <_dtoa_r+0xadc>
 80069f6:	f018 0f01 	tst.w	r8, #1
 80069fa:	d1b2      	bne.n	8006962 <_dtoa_r+0xa42>
 80069fc:	f815 3c01 	ldrb.w	r3, [r5, #-1]
 8006a00:	2b30      	cmp	r3, #48	; 0x30
 8006a02:	f105 32ff 	add.w	r2, r5, #4294967295
 8006a06:	f47f af0a 	bne.w	800681e <_dtoa_r+0x8fe>
 8006a0a:	4615      	mov	r5, r2
 8006a0c:	e7f6      	b.n	80069fc <_dtoa_r+0xadc>
 8006a0e:	4593      	cmp	fp, r2
 8006a10:	d105      	bne.n	8006a1e <_dtoa_r+0xafe>
 8006a12:	2331      	movs	r3, #49	; 0x31
 8006a14:	f10a 0a01 	add.w	sl, sl, #1
 8006a18:	f88b 3000 	strb.w	r3, [fp]
 8006a1c:	e6ff      	b.n	800681e <_dtoa_r+0x8fe>
 8006a1e:	4615      	mov	r5, r2
 8006a20:	e79f      	b.n	8006962 <_dtoa_r+0xa42>
 8006a22:	f8df b064 	ldr.w	fp, [pc, #100]	; 8006a88 <_dtoa_r+0xb68>
 8006a26:	e007      	b.n	8006a38 <_dtoa_r+0xb18>
 8006a28:	9b21      	ldr	r3, [sp, #132]	; 0x84
 8006a2a:	f8df b060 	ldr.w	fp, [pc, #96]	; 8006a8c <_dtoa_r+0xb6c>
 8006a2e:	b11b      	cbz	r3, 8006a38 <_dtoa_r+0xb18>
 8006a30:	f10b 0308 	add.w	r3, fp, #8
 8006a34:	9a21      	ldr	r2, [sp, #132]	; 0x84
 8006a36:	6013      	str	r3, [r2, #0]
 8006a38:	4658      	mov	r0, fp
 8006a3a:	b017      	add	sp, #92	; 0x5c
 8006a3c:	e8bd 8ff0 	ldmia.w	sp!, {r4, r5, r6, r7, r8, r9, sl, fp, pc}
 8006a40:	9b06      	ldr	r3, [sp, #24]
 8006a42:	2b01      	cmp	r3, #1
 8006a44:	f77f ae35 	ble.w	80066b2 <_dtoa_r+0x792>
 8006a48:	9b0e      	ldr	r3, [sp, #56]	; 0x38
 8006a4a:	9307      	str	r3, [sp, #28]
 8006a4c:	e649      	b.n	80066e2 <_dtoa_r+0x7c2>
 8006a4e:	9b02      	ldr	r3, [sp, #8]
 8006a50:	2b00      	cmp	r3, #0
 8006a52:	dc03      	bgt.n	8006a5c <_dtoa_r+0xb3c>
 8006a54:	9b06      	ldr	r3, [sp, #24]
 8006a56:	2b02      	cmp	r3, #2
 8006a58:	f73f aecc 	bgt.w	80067f4 <_dtoa_r+0x8d4>
 8006a5c:	465d      	mov	r5, fp
 8006a5e:	4639      	mov	r1, r7
 8006a60:	9804      	ldr	r0, [sp, #16]
 8006a62:	f7ff f9cf 	bl	8005e04 <quorem>
 8006a66:	f100 0830 	add.w	r8, r0, #48	; 0x30
 8006a6a:	f805 8b01 	strb.w	r8, [r5], #1
 8006a6e:	9a02      	ldr	r2, [sp, #8]
 8006a70:	eba5 030b 	sub.w	r3, r5, fp
 8006a74:	429a      	cmp	r2, r3
 8006a76:	ddb0      	ble.n	80069da <_dtoa_r+0xaba>
 8006a78:	2300      	movs	r3, #0
 8006a7a:	220a      	movs	r2, #10
 8006a7c:	9904      	ldr	r1, [sp, #16]
 8006a7e:	4620      	mov	r0, r4
 8006a80:	f000 fa50 	bl	8006f24 <__multadd>
 8006a84:	9004      	str	r0, [sp, #16]
 8006a86:	e7ea      	b.n	8006a5e <_dtoa_r+0xb3e>
 8006a88:	08007c2c 	.word	0x08007c2c
 8006a8c:	08007c50 	.word	0x08007c50

08006a90 <__sflush_r>:
 8006a90:	898a      	ldrh	r2, [r1, #12]
 8006a92:	e92d 41f0 	stmdb	sp!, {r4, r5, r6, r7, r8, lr}
 8006a96:	4605      	mov	r5, r0
 8006a98:	0710      	lsls	r0, r2, #28
 8006a9a:	460c      	mov	r4, r1
 8006a9c:	d458      	bmi.n	8006b50 <__sflush_r+0xc0>
 8006a9e:	684b      	ldr	r3, [r1, #4]
 8006aa0:	2b00      	cmp	r3, #0
 8006aa2:	dc05      	bgt.n	8006ab0 <__sflush_r+0x20>
 8006aa4:	6c0b      	ldr	r3, [r1, #64]	; 0x40
 8006aa6:	2b00      	cmp	r3, #0
 8006aa8:	dc02      	bgt.n	8006ab0 <__sflush_r+0x20>
 8006aaa:	2000      	movs	r0, #0
 8006aac:	e8bd 81f0 	ldmia.w	sp!, {r4, r5, r6, r7, r8, pc}
 8006ab0:	6ae6      	ldr	r6, [r4, #44]	; 0x2c
 8006ab2:	2e00      	cmp	r6, #0
 8006ab4:	d0f9      	beq.n	8006aaa <__sflush_r+0x1a>
 8006ab6:	2300      	movs	r3, #0
 8006ab8:	f412 5280 	ands.w	r2, r2, #4096	; 0x1000
 8006abc:	682f      	ldr	r7, [r5, #0]
 8006abe:	6a21      	ldr	r1, [r4, #32]
 8006ac0:	602b      	str	r3, [r5, #0]
 8006ac2:	d032      	beq.n	8006b2a <__sflush_r+0x9a>
 8006ac4:	6d60      	ldr	r0, [r4, #84]	; 0x54
 8006ac6:	89a3      	ldrh	r3, [r4, #12]
 8006ac8:	075a      	lsls	r2, r3, #29
 8006aca:	d505      	bpl.n	8006ad8 <__sflush_r+0x48>
 8006acc:	6863      	ldr	r3, [r4, #4]
 8006ace:	1ac0      	subs	r0, r0, r3
 8006ad0:	6b63      	ldr	r3, [r4, #52]	; 0x34
 8006ad2:	b10b      	cbz	r3, 8006ad8 <__sflush_r+0x48>
 8006ad4:	6c23      	ldr	r3, [r4, #64]	; 0x40
 8006ad6:	1ac0      	subs	r0, r0, r3
 8006ad8:	2300      	movs	r3, #0
 8006ada:	4602      	mov	r2, r0
 8006adc:	6ae6      	ldr	r6, [r4, #44]	; 0x2c
 8006ade:	6a21      	ldr	r1, [r4, #32]
 8006ae0:	4628      	mov	r0, r5
 8006ae2:	47b0      	blx	r6
 8006ae4:	1c43      	adds	r3, r0, #1
 8006ae6:	89a3      	ldrh	r3, [r4, #12]
 8006ae8:	d106      	bne.n	8006af8 <__sflush_r+0x68>
 8006aea:	6829      	ldr	r1, [r5, #0]
 8006aec:	291d      	cmp	r1, #29
 8006aee:	d848      	bhi.n	8006b82 <__sflush_r+0xf2>
 8006af0:	4a29      	ldr	r2, [pc, #164]	; (8006b98 <__sflush_r+0x108>)
 8006af2:	40ca      	lsrs	r2, r1
 8006af4:	07d6      	lsls	r6, r2, #31
 8006af6:	d544      	bpl.n	8006b82 <__sflush_r+0xf2>
 8006af8:	2200      	movs	r2, #0
 8006afa:	6062      	str	r2, [r4, #4]
 8006afc:	04d9      	lsls	r1, r3, #19
 8006afe:	6922      	ldr	r2, [r4, #16]
 8006b00:	6022      	str	r2, [r4, #0]
 8006b02:	d504      	bpl.n	8006b0e <__sflush_r+0x7e>
 8006b04:	1c42      	adds	r2, r0, #1
 8006b06:	d101      	bne.n	8006b0c <__sflush_r+0x7c>
 8006b08:	682b      	ldr	r3, [r5, #0]
 8006b0a:	b903      	cbnz	r3, 8006b0e <__sflush_r+0x7e>
 8006b0c:	6560      	str	r0, [r4, #84]	; 0x54
 8006b0e:	6b61      	ldr	r1, [r4, #52]	; 0x34
 8006b10:	602f      	str	r7, [r5, #0]
 8006b12:	2900      	cmp	r1, #0
 8006b14:	d0c9      	beq.n	8006aaa <__sflush_r+0x1a>
 8006b16:	f104 0344 	add.w	r3, r4, #68	; 0x44
 8006b1a:	4299      	cmp	r1, r3
 8006b1c:	d002      	beq.n	8006b24 <__sflush_r+0x94>
 8006b1e:	4628      	mov	r0, r5
 8006b20:	f000 fc9e 	bl	8007460 <_free_r>
 8006b24:	2000      	movs	r0, #0
 8006b26:	6360      	str	r0, [r4, #52]	; 0x34
 8006b28:	e7c0      	b.n	8006aac <__sflush_r+0x1c>
 8006b2a:	2301      	movs	r3, #1
 8006b2c:	4628      	mov	r0, r5
 8006b2e:	47b0      	blx	r6
 8006b30:	1c41      	adds	r1, r0, #1
 8006b32:	d1c8      	bne.n	8006ac6 <__sflush_r+0x36>
 8006b34:	682b      	ldr	r3, [r5, #0]
 8006b36:	2b00      	cmp	r3, #0
 8006b38:	d0c5      	beq.n	8006ac6 <__sflush_r+0x36>
 8006b3a:	2b1d      	cmp	r3, #29
 8006b3c:	d001      	beq.n	8006b42 <__sflush_r+0xb2>
 8006b3e:	2b16      	cmp	r3, #22
 8006b40:	d101      	bne.n	8006b46 <__sflush_r+0xb6>
 8006b42:	602f      	str	r7, [r5, #0]
 8006b44:	e7b1      	b.n	8006aaa <__sflush_r+0x1a>
 8006b46:	89a3      	ldrh	r3, [r4, #12]
 8006b48:	f043 0340 	orr.w	r3, r3, #64	; 0x40
 8006b4c:	81a3      	strh	r3, [r4, #12]
 8006b4e:	e7ad      	b.n	8006aac <__sflush_r+0x1c>
 8006b50:	690f      	ldr	r7, [r1, #16]
 8006b52:	2f00      	cmp	r7, #0
 8006b54:	d0a9      	beq.n	8006aaa <__sflush_r+0x1a>
 8006b56:	0793      	lsls	r3, r2, #30
 8006b58:	680e      	ldr	r6, [r1, #0]
 8006b5a:	bf08      	it	eq
 8006b5c:	694b      	ldreq	r3, [r1, #20]
 8006b5e:	600f      	str	r7, [r1, #0]
 8006b60:	bf18      	it	ne
 8006b62:	2300      	movne	r3, #0
 8006b64:	eba6 0807 	sub.w	r8, r6, r7
 8006b68:	608b      	str	r3, [r1, #8]
 8006b6a:	f1b8 0f00 	cmp.w	r8, #0
 8006b6e:	dd9c      	ble.n	8006aaa <__sflush_r+0x1a>
 8006b70:	4643      	mov	r3, r8
 8006b72:	463a      	mov	r2, r7
 8006b74:	6a21      	ldr	r1, [r4, #32]
 8006b76:	6aa6      	ldr	r6, [r4, #40]	; 0x28
 8006b78:	4628      	mov	r0, r5
 8006b7a:	47b0      	blx	r6
 8006b7c:	2800      	cmp	r0, #0
 8006b7e:	dc06      	bgt.n	8006b8e <__sflush_r+0xfe>
 8006b80:	89a3      	ldrh	r3, [r4, #12]
 8006b82:	f043 0340 	orr.w	r3, r3, #64	; 0x40
 8006b86:	81a3      	strh	r3, [r4, #12]
 8006b88:	f04f 30ff 	mov.w	r0, #4294967295
 8006b8c:	e78e      	b.n	8006aac <__sflush_r+0x1c>
 8006b8e:	4407      	add	r7, r0
 8006b90:	eba8 0800 	sub.w	r8, r8, r0
 8006b94:	e7e9      	b.n	8006b6a <__sflush_r+0xda>
 8006b96:	bf00      	nop
 8006b98:	20400001 	.word	0x20400001

08006b9c <_fflush_r>:
 8006b9c:	b538      	push	{r3, r4, r5, lr}
 8006b9e:	690b      	ldr	r3, [r1, #16]
 8006ba0:	4605      	mov	r5, r0
 8006ba2:	460c      	mov	r4, r1
 8006ba4:	b1db      	cbz	r3, 8006bde <_fflush_r+0x42>
 8006ba6:	b118      	cbz	r0, 8006bb0 <_fflush_r+0x14>
 8006ba8:	6983      	ldr	r3, [r0, #24]
 8006baa:	b90b      	cbnz	r3, 8006bb0 <_fflush_r+0x14>
 8006bac:	f000 f860 	bl	8006c70 <__sinit>
 8006bb0:	4b0c      	ldr	r3, [pc, #48]	; (8006be4 <_fflush_r+0x48>)
 8006bb2:	429c      	cmp	r4, r3
 8006bb4:	d109      	bne.n	8006bca <_fflush_r+0x2e>
 8006bb6:	686c      	ldr	r4, [r5, #4]
 8006bb8:	f9b4 300c 	ldrsh.w	r3, [r4, #12]
 8006bbc:	b17b      	cbz	r3, 8006bde <_fflush_r+0x42>
 8006bbe:	4621      	mov	r1, r4
 8006bc0:	4628      	mov	r0, r5
 8006bc2:	e8bd 4038 	ldmia.w	sp!, {r3, r4, r5, lr}
 8006bc6:	f7ff bf63 	b.w	8006a90 <__sflush_r>
 8006bca:	4b07      	ldr	r3, [pc, #28]	; (8006be8 <_fflush_r+0x4c>)
 8006bcc:	429c      	cmp	r4, r3
 8006bce:	d101      	bne.n	8006bd4 <_fflush_r+0x38>
 8006bd0:	68ac      	ldr	r4, [r5, #8]
 8006bd2:	e7f1      	b.n	8006bb8 <_fflush_r+0x1c>
 8006bd4:	4b05      	ldr	r3, [pc, #20]	; (8006bec <_fflush_r+0x50>)
 8006bd6:	429c      	cmp	r4, r3
 8006bd8:	bf08      	it	eq
 8006bda:	68ec      	ldreq	r4, [r5, #12]
 8006bdc:	e7ec      	b.n	8006bb8 <_fflush_r+0x1c>
 8006bde:	2000      	movs	r0, #0
 8006be0:	bd38      	pop	{r3, r4, r5, pc}
 8006be2:	bf00      	nop
 8006be4:	08007c80 	.word	0x08007c80
 8006be8:	08007ca0 	.word	0x08007ca0
 8006bec:	08007c60 	.word	0x08007c60

08006bf0 <std>:
 8006bf0:	2300      	movs	r3, #0
 8006bf2:	b510      	push	{r4, lr}
 8006bf4:	4604      	mov	r4, r0
 8006bf6:	e9c0 3300 	strd	r3, r3, [r0]
 8006bfa:	6083      	str	r3, [r0, #8]
 8006bfc:	8181      	strh	r1, [r0, #12]
 8006bfe:	6643      	str	r3, [r0, #100]	; 0x64
 8006c00:	81c2      	strh	r2, [r0, #14]
 8006c02:	e9c0 3304 	strd	r3, r3, [r0, #16]
 8006c06:	6183      	str	r3, [r0, #24]
 8006c08:	4619      	mov	r1, r3
 8006c0a:	2208      	movs	r2, #8
 8006c0c:	305c      	adds	r0, #92	; 0x5c
 8006c0e:	f7fe fb59 	bl	80052c4 <memset>
 8006c12:	4b05      	ldr	r3, [pc, #20]	; (8006c28 <std+0x38>)
 8006c14:	6263      	str	r3, [r4, #36]	; 0x24
 8006c16:	4b05      	ldr	r3, [pc, #20]	; (8006c2c <std+0x3c>)
 8006c18:	62a3      	str	r3, [r4, #40]	; 0x28
 8006c1a:	4b05      	ldr	r3, [pc, #20]	; (8006c30 <std+0x40>)
 8006c1c:	62e3      	str	r3, [r4, #44]	; 0x2c
 8006c1e:	4b05      	ldr	r3, [pc, #20]	; (8006c34 <std+0x44>)
 8006c20:	6224      	str	r4, [r4, #32]
 8006c22:	6323      	str	r3, [r4, #48]	; 0x30
 8006c24:	bd10      	pop	{r4, pc}
 8006c26:	bf00      	nop
 8006c28:	08007851 	.word	0x08007851
 8006c2c:	08007873 	.word	0x08007873
 8006c30:	080078ab 	.word	0x080078ab
 8006c34:	080078cf 	.word	0x080078cf

08006c38 <_cleanup_r>:
 8006c38:	4901      	ldr	r1, [pc, #4]	; (8006c40 <_cleanup_r+0x8>)
 8006c3a:	f000 b885 	b.w	8006d48 <_fwalk_reent>
 8006c3e:	bf00      	nop
 8006c40:	08006b9d 	.word	0x08006b9d

08006c44 <__sfmoreglue>:
 8006c44:	b570      	push	{r4, r5, r6, lr}
 8006c46:	1e4a      	subs	r2, r1, #1
 8006c48:	2568      	movs	r5, #104	; 0x68
 8006c4a:	4355      	muls	r5, r2
 8006c4c:	460e      	mov	r6, r1
 8006c4e:	f105 0174 	add.w	r1, r5, #116	; 0x74
 8006c52:	f000 fc53 	bl	80074fc <_malloc_r>
 8006c56:	4604      	mov	r4, r0
 8006c58:	b140      	cbz	r0, 8006c6c <__sfmoreglue+0x28>
 8006c5a:	2100      	movs	r1, #0
 8006c5c:	e9c0 1600 	strd	r1, r6, [r0]
 8006c60:	300c      	adds	r0, #12
 8006c62:	60a0      	str	r0, [r4, #8]
 8006c64:	f105 0268 	add.w	r2, r5, #104	; 0x68
 8006c68:	f7fe fb2c 	bl	80052c4 <memset>
 8006c6c:	4620      	mov	r0, r4
 8006c6e:	bd70      	pop	{r4, r5, r6, pc}

08006c70 <__sinit>:
 8006c70:	6983      	ldr	r3, [r0, #24]
 8006c72:	b510      	push	{r4, lr}
 8006c74:	4604      	mov	r4, r0
 8006c76:	bb33      	cbnz	r3, 8006cc6 <__sinit+0x56>
 8006c78:	e9c0 3312 	strd	r3, r3, [r0, #72]	; 0x48
 8006c7c:	6503      	str	r3, [r0, #80]	; 0x50
 8006c7e:	4b12      	ldr	r3, [pc, #72]	; (8006cc8 <__sinit+0x58>)
 8006c80:	4a12      	ldr	r2, [pc, #72]	; (8006ccc <__sinit+0x5c>)
 8006c82:	681b      	ldr	r3, [r3, #0]
 8006c84:	6282      	str	r2, [r0, #40]	; 0x28
 8006c86:	4298      	cmp	r0, r3
 8006c88:	bf04      	itt	eq
 8006c8a:	2301      	moveq	r3, #1
 8006c8c:	6183      	streq	r3, [r0, #24]
 8006c8e:	f000 f81f 	bl	8006cd0 <__sfp>
 8006c92:	6060      	str	r0, [r4, #4]
 8006c94:	4620      	mov	r0, r4
 8006c96:	f000 f81b 	bl	8006cd0 <__sfp>
 8006c9a:	60a0      	str	r0, [r4, #8]
 8006c9c:	4620      	mov	r0, r4
 8006c9e:	f000 f817 	bl	8006cd0 <__sfp>
 8006ca2:	2200      	movs	r2, #0
 8006ca4:	60e0      	str	r0, [r4, #12]
 8006ca6:	2104      	movs	r1, #4
 8006ca8:	6860      	ldr	r0, [r4, #4]
 8006caa:	f7ff ffa1 	bl	8006bf0 <std>
 8006cae:	2201      	movs	r2, #1
 8006cb0:	2109      	movs	r1, #9
 8006cb2:	68a0      	ldr	r0, [r4, #8]
 8006cb4:	f7ff ff9c 	bl	8006bf0 <std>
 8006cb8:	2202      	movs	r2, #2
 8006cba:	2112      	movs	r1, #18
 8006cbc:	68e0      	ldr	r0, [r4, #12]
 8006cbe:	f7ff ff97 	bl	8006bf0 <std>
 8006cc2:	2301      	movs	r3, #1
 8006cc4:	61a3      	str	r3, [r4, #24]
 8006cc6:	bd10      	pop	{r4, pc}
 8006cc8:	08007c18 	.word	0x08007c18
 8006ccc:	08006c39 	.word	0x08006c39

08006cd0 <__sfp>:
 8006cd0:	b5f8      	push	{r3, r4, r5, r6, r7, lr}
 8006cd2:	4b1b      	ldr	r3, [pc, #108]	; (8006d40 <__sfp+0x70>)
 8006cd4:	681e      	ldr	r6, [r3, #0]
 8006cd6:	69b3      	ldr	r3, [r6, #24]
 8006cd8:	4607      	mov	r7, r0
 8006cda:	b913      	cbnz	r3, 8006ce2 <__sfp+0x12>
 8006cdc:	4630      	mov	r0, r6
 8006cde:	f7ff ffc7 	bl	8006c70 <__sinit>
 8006ce2:	3648      	adds	r6, #72	; 0x48
 8006ce4:	e9d6 3401 	ldrd	r3, r4, [r6, #4]
 8006ce8:	3b01      	subs	r3, #1
 8006cea:	d503      	bpl.n	8006cf4 <__sfp+0x24>
 8006cec:	6833      	ldr	r3, [r6, #0]
 8006cee:	b133      	cbz	r3, 8006cfe <__sfp+0x2e>
 8006cf0:	6836      	ldr	r6, [r6, #0]
 8006cf2:	e7f7      	b.n	8006ce4 <__sfp+0x14>
 8006cf4:	f9b4 500c 	ldrsh.w	r5, [r4, #12]
 8006cf8:	b16d      	cbz	r5, 8006d16 <__sfp+0x46>
 8006cfa:	3468      	adds	r4, #104	; 0x68
 8006cfc:	e7f4      	b.n	8006ce8 <__sfp+0x18>
 8006cfe:	2104      	movs	r1, #4
 8006d00:	4638      	mov	r0, r7
 8006d02:	f7ff ff9f 	bl	8006c44 <__sfmoreglue>
 8006d06:	6030      	str	r0, [r6, #0]
 8006d08:	2800      	cmp	r0, #0
 8006d0a:	d1f1      	bne.n	8006cf0 <__sfp+0x20>
 8006d0c:	230c      	movs	r3, #12
 8006d0e:	603b      	str	r3, [r7, #0]
 8006d10:	4604      	mov	r4, r0
 8006d12:	4620      	mov	r0, r4
 8006d14:	bdf8      	pop	{r3, r4, r5, r6, r7, pc}
 8006d16:	4b0b      	ldr	r3, [pc, #44]	; (8006d44 <__sfp+0x74>)
 8006d18:	6665      	str	r5, [r4, #100]	; 0x64
 8006d1a:	e9c4 5500 	strd	r5, r5, [r4]
 8006d1e:	60a5      	str	r5, [r4, #8]
 8006d20:	e9c4 3503 	strd	r3, r5, [r4, #12]
 8006d24:	e9c4 5505 	strd	r5, r5, [r4, #20]
 8006d28:	2208      	movs	r2, #8
 8006d2a:	4629      	mov	r1, r5
 8006d2c:	f104 005c 	add.w	r0, r4, #92	; 0x5c
 8006d30:	f7fe fac8 	bl	80052c4 <memset>
 8006d34:	e9c4 550d 	strd	r5, r5, [r4, #52]	; 0x34
 8006d38:	e9c4 5512 	strd	r5, r5, [r4, #72]	; 0x48
 8006d3c:	e7e9      	b.n	8006d12 <__sfp+0x42>
 8006d3e:	bf00      	nop
 8006d40:	08007c18 	.word	0x08007c18
 8006d44:	ffff0001 	.word	0xffff0001

08006d48 <_fwalk_reent>:
 8006d48:	e92d 43f8 	stmdb	sp!, {r3, r4, r5, r6, r7, r8, r9, lr}
 8006d4c:	4680      	mov	r8, r0
 8006d4e:	4689      	mov	r9, r1
 8006d50:	f100 0448 	add.w	r4, r0, #72	; 0x48
 8006d54:	2600      	movs	r6, #0
 8006d56:	b914      	cbnz	r4, 8006d5e <_fwalk_reent+0x16>
 8006d58:	4630      	mov	r0, r6
 8006d5a:	e8bd 83f8 	ldmia.w	sp!, {r3, r4, r5, r6, r7, r8, r9, pc}
 8006d5e:	e9d4 7501 	ldrd	r7, r5, [r4, #4]
 8006d62:	3f01      	subs	r7, #1
 8006d64:	d501      	bpl.n	8006d6a <_fwalk_reent+0x22>
 8006d66:	6824      	ldr	r4, [r4, #0]
 8006d68:	e7f5      	b.n	8006d56 <_fwalk_reent+0xe>
 8006d6a:	89ab      	ldrh	r3, [r5, #12]
 8006d6c:	2b01      	cmp	r3, #1
 8006d6e:	d907      	bls.n	8006d80 <_fwalk_reent+0x38>
 8006d70:	f9b5 300e 	ldrsh.w	r3, [r5, #14]
 8006d74:	3301      	adds	r3, #1
 8006d76:	d003      	beq.n	8006d80 <_fwalk_reent+0x38>
 8006d78:	4629      	mov	r1, r5
 8006d7a:	4640      	mov	r0, r8
 8006d7c:	47c8      	blx	r9
 8006d7e:	4306      	orrs	r6, r0
 8006d80:	3568      	adds	r5, #104	; 0x68
 8006d82:	e7ee      	b.n	8006d62 <_fwalk_reent+0x1a>

08006d84 <_localeconv_r>:
 8006d84:	4b04      	ldr	r3, [pc, #16]	; (8006d98 <_localeconv_r+0x14>)
 8006d86:	681b      	ldr	r3, [r3, #0]
 8006d88:	6a18      	ldr	r0, [r3, #32]
 8006d8a:	4b04      	ldr	r3, [pc, #16]	; (8006d9c <_localeconv_r+0x18>)
 8006d8c:	2800      	cmp	r0, #0
 8006d8e:	bf08      	it	eq
 8006d90:	4618      	moveq	r0, r3
 8006d92:	30f0      	adds	r0, #240	; 0xf0
 8006d94:	4770      	bx	lr
 8006d96:	bf00      	nop
 8006d98:	2000000c 	.word	0x2000000c
 8006d9c:	20000070 	.word	0x20000070

08006da0 <__swhatbuf_r>:
 8006da0:	b570      	push	{r4, r5, r6, lr}
 8006da2:	460e      	mov	r6, r1
 8006da4:	f9b1 100e 	ldrsh.w	r1, [r1, #14]
 8006da8:	2900      	cmp	r1, #0
 8006daa:	b096      	sub	sp, #88	; 0x58
 8006dac:	4614      	mov	r4, r2
 8006dae:	461d      	mov	r5, r3
 8006db0:	da07      	bge.n	8006dc2 <__swhatbuf_r+0x22>
 8006db2:	2300      	movs	r3, #0
 8006db4:	602b      	str	r3, [r5, #0]
 8006db6:	89b3      	ldrh	r3, [r6, #12]
 8006db8:	061a      	lsls	r2, r3, #24
 8006dba:	d410      	bmi.n	8006dde <__swhatbuf_r+0x3e>
 8006dbc:	f44f 6380 	mov.w	r3, #1024	; 0x400
 8006dc0:	e00e      	b.n	8006de0 <__swhatbuf_r+0x40>
 8006dc2:	466a      	mov	r2, sp
 8006dc4:	f000 fdaa 	bl	800791c <_fstat_r>
 8006dc8:	2800      	cmp	r0, #0
 8006dca:	dbf2      	blt.n	8006db2 <__swhatbuf_r+0x12>
 8006dcc:	9a01      	ldr	r2, [sp, #4]
 8006dce:	f402 4270 	and.w	r2, r2, #61440	; 0xf000
 8006dd2:	f5a2 5300 	sub.w	r3, r2, #8192	; 0x2000
 8006dd6:	425a      	negs	r2, r3
 8006dd8:	415a      	adcs	r2, r3
 8006dda:	602a      	str	r2, [r5, #0]
 8006ddc:	e7ee      	b.n	8006dbc <__swhatbuf_r+0x1c>
 8006dde:	2340      	movs	r3, #64	; 0x40
 8006de0:	2000      	movs	r0, #0
 8006de2:	6023      	str	r3, [r4, #0]
 8006de4:	b016      	add	sp, #88	; 0x58
 8006de6:	bd70      	pop	{r4, r5, r6, pc}

08006de8 <__smakebuf_r>:
 8006de8:	898b      	ldrh	r3, [r1, #12]
 8006dea:	b573      	push	{r0, r1, r4, r5, r6, lr}
 8006dec:	079d      	lsls	r5, r3, #30
 8006dee:	4606      	mov	r6, r0
 8006df0:	460c      	mov	r4, r1
 8006df2:	d507      	bpl.n	8006e04 <__smakebuf_r+0x1c>
 8006df4:	f104 0347 	add.w	r3, r4, #71	; 0x47
 8006df8:	6023      	str	r3, [r4, #0]
 8006dfa:	6123      	str	r3, [r4, #16]
 8006dfc:	2301      	movs	r3, #1
 8006dfe:	6163      	str	r3, [r4, #20]
 8006e00:	b002      	add	sp, #8
 8006e02:	bd70      	pop	{r4, r5, r6, pc}
 8006e04:	ab01      	add	r3, sp, #4
 8006e06:	466a      	mov	r2, sp
 8006e08:	f7ff ffca 	bl	8006da0 <__swhatbuf_r>
 8006e0c:	9900      	ldr	r1, [sp, #0]
 8006e0e:	4605      	mov	r5, r0
 8006e10:	4630      	mov	r0, r6
 8006e12:	f000 fb73 	bl	80074fc <_malloc_r>
 8006e16:	b948      	cbnz	r0, 8006e2c <__smakebuf_r+0x44>
 8006e18:	f9b4 300c 	ldrsh.w	r3, [r4, #12]
 8006e1c:	059a      	lsls	r2, r3, #22
 8006e1e:	d4ef      	bmi.n	8006e00 <__smakebuf_r+0x18>
 8006e20:	f023 0303 	bic.w	r3, r3, #3
 8006e24:	f043 0302 	orr.w	r3, r3, #2
 8006e28:	81a3      	strh	r3, [r4, #12]
 8006e2a:	e7e3      	b.n	8006df4 <__smakebuf_r+0xc>
 8006e2c:	4b0d      	ldr	r3, [pc, #52]	; (8006e64 <__smakebuf_r+0x7c>)
 8006e2e:	62b3      	str	r3, [r6, #40]	; 0x28
 8006e30:	89a3      	ldrh	r3, [r4, #12]
 8006e32:	6020      	str	r0, [r4, #0]
 8006e34:	f043 0380 	orr.w	r3, r3, #128	; 0x80
 8006e38:	81a3      	strh	r3, [r4, #12]
 8006e3a:	9b00      	ldr	r3, [sp, #0]
 8006e3c:	6163      	str	r3, [r4, #20]
 8006e3e:	9b01      	ldr	r3, [sp, #4]
 8006e40:	6120      	str	r0, [r4, #16]
 8006e42:	b15b      	cbz	r3, 8006e5c <__smakebuf_r+0x74>
 8006e44:	f9b4 100e 	ldrsh.w	r1, [r4, #14]
 8006e48:	4630      	mov	r0, r6
 8006e4a:	f000 fd79 	bl	8007940 <_isatty_r>
 8006e4e:	b128      	cbz	r0, 8006e5c <__smakebuf_r+0x74>
 8006e50:	89a3      	ldrh	r3, [r4, #12]
 8006e52:	f023 0303 	bic.w	r3, r3, #3
 8006e56:	f043 0301 	orr.w	r3, r3, #1
 8006e5a:	81a3      	strh	r3, [r4, #12]
 8006e5c:	89a3      	ldrh	r3, [r4, #12]
 8006e5e:	431d      	orrs	r5, r3
 8006e60:	81a5      	strh	r5, [r4, #12]
 8006e62:	e7cd      	b.n	8006e00 <__smakebuf_r+0x18>
 8006e64:	08006c39 	.word	0x08006c39

08006e68 <malloc>:
 8006e68:	4b02      	ldr	r3, [pc, #8]	; (8006e74 <malloc+0xc>)
 8006e6a:	4601      	mov	r1, r0
 8006e6c:	6818      	ldr	r0, [r3, #0]
 8006e6e:	f000 bb45 	b.w	80074fc <_malloc_r>
 8006e72:	bf00      	nop
 8006e74:	2000000c 	.word	0x2000000c

08006e78 <memcpy>:
 8006e78:	b510      	push	{r4, lr}
 8006e7a:	1e43      	subs	r3, r0, #1
 8006e7c:	440a      	add	r2, r1
 8006e7e:	4291      	cmp	r1, r2
 8006e80:	d100      	bne.n	8006e84 <memcpy+0xc>
 8006e82:	bd10      	pop	{r4, pc}
 8006e84:	f811 4b01 	ldrb.w	r4, [r1], #1
 8006e88:	f803 4f01 	strb.w	r4, [r3, #1]!
 8006e8c:	e7f7      	b.n	8006e7e <memcpy+0x6>

08006e8e <_Balloc>:
 8006e8e:	b570      	push	{r4, r5, r6, lr}
 8006e90:	6a45      	ldr	r5, [r0, #36]	; 0x24
 8006e92:	4604      	mov	r4, r0
 8006e94:	460e      	mov	r6, r1
 8006e96:	b93d      	cbnz	r5, 8006ea8 <_Balloc+0x1a>
 8006e98:	2010      	movs	r0, #16
 8006e9a:	f7ff ffe5 	bl	8006e68 <malloc>
 8006e9e:	6260      	str	r0, [r4, #36]	; 0x24
 8006ea0:	e9c0 5501 	strd	r5, r5, [r0, #4]
 8006ea4:	6005      	str	r5, [r0, #0]
 8006ea6:	60c5      	str	r5, [r0, #12]
 8006ea8:	6a65      	ldr	r5, [r4, #36]	; 0x24
 8006eaa:	68eb      	ldr	r3, [r5, #12]
 8006eac:	b183      	cbz	r3, 8006ed0 <_Balloc+0x42>
 8006eae:	6a63      	ldr	r3, [r4, #36]	; 0x24
 8006eb0:	68db      	ldr	r3, [r3, #12]
 8006eb2:	f853 0026 	ldr.w	r0, [r3, r6, lsl #2]
 8006eb6:	b9b8      	cbnz	r0, 8006ee8 <_Balloc+0x5a>
 8006eb8:	2101      	movs	r1, #1
 8006eba:	fa01 f506 	lsl.w	r5, r1, r6
 8006ebe:	1d6a      	adds	r2, r5, #5
 8006ec0:	0092      	lsls	r2, r2, #2
 8006ec2:	4620      	mov	r0, r4
 8006ec4:	f000 fabe 	bl	8007444 <_calloc_r>
 8006ec8:	b160      	cbz	r0, 8006ee4 <_Balloc+0x56>
 8006eca:	e9c0 6501 	strd	r6, r5, [r0, #4]
 8006ece:	e00e      	b.n	8006eee <_Balloc+0x60>
 8006ed0:	2221      	movs	r2, #33	; 0x21
 8006ed2:	2104      	movs	r1, #4
 8006ed4:	4620      	mov	r0, r4
 8006ed6:	f000 fab5 	bl	8007444 <_calloc_r>
 8006eda:	6a63      	ldr	r3, [r4, #36]	; 0x24
 8006edc:	60e8      	str	r0, [r5, #12]
 8006ede:	68db      	ldr	r3, [r3, #12]
 8006ee0:	2b00      	cmp	r3, #0
 8006ee2:	d1e4      	bne.n	8006eae <_Balloc+0x20>
 8006ee4:	2000      	movs	r0, #0
 8006ee6:	bd70      	pop	{r4, r5, r6, pc}
 8006ee8:	6802      	ldr	r2, [r0, #0]
 8006eea:	f843 2026 	str.w	r2, [r3, r6, lsl #2]
 8006eee:	2300      	movs	r3, #0
 8006ef0:	e9c0 3303 	strd	r3, r3, [r0, #12]
 8006ef4:	e7f7      	b.n	8006ee6 <_Balloc+0x58>

08006ef6 <_Bfree>:
 8006ef6:	b570      	push	{r4, r5, r6, lr}
 8006ef8:	6a44      	ldr	r4, [r0, #36]	; 0x24
 8006efa:	4606      	mov	r6, r0
 8006efc:	460d      	mov	r5, r1
 8006efe:	b93c      	cbnz	r4, 8006f10 <_Bfree+0x1a>
 8006f00:	2010      	movs	r0, #16
 8006f02:	f7ff ffb1 	bl	8006e68 <malloc>
 8006f06:	6270      	str	r0, [r6, #36]	; 0x24
 8006f08:	e9c0 4401 	strd	r4, r4, [r0, #4]
 8006f0c:	6004      	str	r4, [r0, #0]
 8006f0e:	60c4      	str	r4, [r0, #12]
 8006f10:	b13d      	cbz	r5, 8006f22 <_Bfree+0x2c>
 8006f12:	6a73      	ldr	r3, [r6, #36]	; 0x24
 8006f14:	686a      	ldr	r2, [r5, #4]
 8006f16:	68db      	ldr	r3, [r3, #12]
 8006f18:	f853 1022 	ldr.w	r1, [r3, r2, lsl #2]
 8006f1c:	6029      	str	r1, [r5, #0]
 8006f1e:	f843 5022 	str.w	r5, [r3, r2, lsl #2]
 8006f22:	bd70      	pop	{r4, r5, r6, pc}

08006f24 <__multadd>:
 8006f24:	e92d 41f0 	stmdb	sp!, {r4, r5, r6, r7, r8, lr}
 8006f28:	690d      	ldr	r5, [r1, #16]
 8006f2a:	461f      	mov	r7, r3
 8006f2c:	4606      	mov	r6, r0
 8006f2e:	460c      	mov	r4, r1
 8006f30:	f101 0c14 	add.w	ip, r1, #20
 8006f34:	2300      	movs	r3, #0
 8006f36:	f8dc 0000 	ldr.w	r0, [ip]
 8006f3a:	b281      	uxth	r1, r0
 8006f3c:	fb02 7101 	mla	r1, r2, r1, r7
 8006f40:	0c0f      	lsrs	r7, r1, #16
 8006f42:	0c00      	lsrs	r0, r0, #16
 8006f44:	fb02 7000 	mla	r0, r2, r0, r7
 8006f48:	b289      	uxth	r1, r1
 8006f4a:	3301      	adds	r3, #1
 8006f4c:	eb01 4100 	add.w	r1, r1, r0, lsl #16
 8006f50:	429d      	cmp	r5, r3
 8006f52:	ea4f 4710 	mov.w	r7, r0, lsr #16
 8006f56:	f84c 1b04 	str.w	r1, [ip], #4
 8006f5a:	dcec      	bgt.n	8006f36 <__multadd+0x12>
 8006f5c:	b1d7      	cbz	r7, 8006f94 <__multadd+0x70>
 8006f5e:	68a3      	ldr	r3, [r4, #8]
 8006f60:	42ab      	cmp	r3, r5
 8006f62:	dc12      	bgt.n	8006f8a <__multadd+0x66>
 8006f64:	6861      	ldr	r1, [r4, #4]
 8006f66:	4630      	mov	r0, r6
 8006f68:	3101      	adds	r1, #1
 8006f6a:	f7ff ff90 	bl	8006e8e <_Balloc>
 8006f6e:	6922      	ldr	r2, [r4, #16]
 8006f70:	3202      	adds	r2, #2
 8006f72:	f104 010c 	add.w	r1, r4, #12
 8006f76:	4680      	mov	r8, r0
 8006f78:	0092      	lsls	r2, r2, #2
 8006f7a:	300c      	adds	r0, #12
 8006f7c:	f7ff ff7c 	bl	8006e78 <memcpy>
 8006f80:	4621      	mov	r1, r4
 8006f82:	4630      	mov	r0, r6
 8006f84:	f7ff ffb7 	bl	8006ef6 <_Bfree>
 8006f88:	4644      	mov	r4, r8
 8006f8a:	eb04 0385 	add.w	r3, r4, r5, lsl #2
 8006f8e:	3501      	adds	r5, #1
 8006f90:	615f      	str	r7, [r3, #20]
 8006f92:	6125      	str	r5, [r4, #16]
 8006f94:	4620      	mov	r0, r4
 8006f96:	e8bd 81f0 	ldmia.w	sp!, {r4, r5, r6, r7, r8, pc}

08006f9a <__hi0bits>:
 8006f9a:	0c02      	lsrs	r2, r0, #16
 8006f9c:	0412      	lsls	r2, r2, #16
 8006f9e:	4603      	mov	r3, r0
 8006fa0:	b9b2      	cbnz	r2, 8006fd0 <__hi0bits+0x36>
 8006fa2:	0403      	lsls	r3, r0, #16
 8006fa4:	2010      	movs	r0, #16
 8006fa6:	f013 4f7f 	tst.w	r3, #4278190080	; 0xff000000
 8006faa:	bf04      	itt	eq
 8006fac:	021b      	lsleq	r3, r3, #8
 8006fae:	3008      	addeq	r0, #8
 8006fb0:	f013 4f70 	tst.w	r3, #4026531840	; 0xf0000000
 8006fb4:	bf04      	itt	eq
 8006fb6:	011b      	lsleq	r3, r3, #4
 8006fb8:	3004      	addeq	r0, #4
 8006fba:	f013 4f40 	tst.w	r3, #3221225472	; 0xc0000000
 8006fbe:	bf04      	itt	eq
 8006fc0:	009b      	lsleq	r3, r3, #2
 8006fc2:	3002      	addeq	r0, #2
 8006fc4:	2b00      	cmp	r3, #0
 8006fc6:	db06      	blt.n	8006fd6 <__hi0bits+0x3c>
 8006fc8:	005b      	lsls	r3, r3, #1
 8006fca:	d503      	bpl.n	8006fd4 <__hi0bits+0x3a>
 8006fcc:	3001      	adds	r0, #1
 8006fce:	4770      	bx	lr
 8006fd0:	2000      	movs	r0, #0
 8006fd2:	e7e8      	b.n	8006fa6 <__hi0bits+0xc>
 8006fd4:	2020      	movs	r0, #32
 8006fd6:	4770      	bx	lr

08006fd8 <__lo0bits>:
 8006fd8:	6803      	ldr	r3, [r0, #0]
 8006fda:	f013 0207 	ands.w	r2, r3, #7
 8006fde:	4601      	mov	r1, r0
 8006fe0:	d00b      	beq.n	8006ffa <__lo0bits+0x22>
 8006fe2:	07da      	lsls	r2, r3, #31
 8006fe4:	d423      	bmi.n	800702e <__lo0bits+0x56>
 8006fe6:	0798      	lsls	r0, r3, #30
 8006fe8:	bf49      	itett	mi
 8006fea:	085b      	lsrmi	r3, r3, #1
 8006fec:	089b      	lsrpl	r3, r3, #2
 8006fee:	2001      	movmi	r0, #1
 8006ff0:	600b      	strmi	r3, [r1, #0]
 8006ff2:	bf5c      	itt	pl
 8006ff4:	600b      	strpl	r3, [r1, #0]
 8006ff6:	2002      	movpl	r0, #2
 8006ff8:	4770      	bx	lr
 8006ffa:	b298      	uxth	r0, r3
 8006ffc:	b9a8      	cbnz	r0, 800702a <__lo0bits+0x52>
 8006ffe:	0c1b      	lsrs	r3, r3, #16
 8007000:	2010      	movs	r0, #16
 8007002:	f013 0fff 	tst.w	r3, #255	; 0xff
 8007006:	bf04      	itt	eq
 8007008:	0a1b      	lsreq	r3, r3, #8
 800700a:	3008      	addeq	r0, #8
 800700c:	071a      	lsls	r2, r3, #28
 800700e:	bf04      	itt	eq
 8007010:	091b      	lsreq	r3, r3, #4
 8007012:	3004      	addeq	r0, #4
 8007014:	079a      	lsls	r2, r3, #30
 8007016:	bf04      	itt	eq
 8007018:	089b      	lsreq	r3, r3, #2
 800701a:	3002      	addeq	r0, #2
 800701c:	07da      	lsls	r2, r3, #31
 800701e:	d402      	bmi.n	8007026 <__lo0bits+0x4e>
 8007020:	085b      	lsrs	r3, r3, #1
 8007022:	d006      	beq.n	8007032 <__lo0bits+0x5a>
 8007024:	3001      	adds	r0, #1
 8007026:	600b      	str	r3, [r1, #0]
 8007028:	4770      	bx	lr
 800702a:	4610      	mov	r0, r2
 800702c:	e7e9      	b.n	8007002 <__lo0bits+0x2a>
 800702e:	2000      	movs	r0, #0
 8007030:	4770      	bx	lr
 8007032:	2020      	movs	r0, #32
 8007034:	4770      	bx	lr

08007036 <__i2b>:
 8007036:	b510      	push	{r4, lr}
 8007038:	460c      	mov	r4, r1
 800703a:	2101      	movs	r1, #1
 800703c:	f7ff ff27 	bl	8006e8e <_Balloc>
 8007040:	2201      	movs	r2, #1
 8007042:	6144      	str	r4, [r0, #20]
 8007044:	6102      	str	r2, [r0, #16]
 8007046:	bd10      	pop	{r4, pc}

08007048 <__multiply>:
 8007048:	e92d 4ff7 	stmdb	sp!, {r0, r1, r2, r4, r5, r6, r7, r8, r9, sl, fp, lr}
 800704c:	4614      	mov	r4, r2
 800704e:	690a      	ldr	r2, [r1, #16]
 8007050:	6923      	ldr	r3, [r4, #16]
 8007052:	429a      	cmp	r2, r3
 8007054:	bfb8      	it	lt
 8007056:	460b      	movlt	r3, r1
 8007058:	4688      	mov	r8, r1
 800705a:	bfbc      	itt	lt
 800705c:	46a0      	movlt	r8, r4
 800705e:	461c      	movlt	r4, r3
 8007060:	f8d8 7010 	ldr.w	r7, [r8, #16]
 8007064:	f8d4 9010 	ldr.w	r9, [r4, #16]
 8007068:	f8d8 3008 	ldr.w	r3, [r8, #8]
 800706c:	f8d8 1004 	ldr.w	r1, [r8, #4]
 8007070:	eb07 0609 	add.w	r6, r7, r9
 8007074:	42b3      	cmp	r3, r6
 8007076:	bfb8      	it	lt
 8007078:	3101      	addlt	r1, #1
 800707a:	f7ff ff08 	bl	8006e8e <_Balloc>
 800707e:	f100 0514 	add.w	r5, r0, #20
 8007082:	eb05 0e86 	add.w	lr, r5, r6, lsl #2
 8007086:	462b      	mov	r3, r5
 8007088:	2200      	movs	r2, #0
 800708a:	4573      	cmp	r3, lr
 800708c:	d316      	bcc.n	80070bc <__multiply+0x74>
 800708e:	f104 0214 	add.w	r2, r4, #20
 8007092:	f108 0114 	add.w	r1, r8, #20
 8007096:	eb02 0389 	add.w	r3, r2, r9, lsl #2
 800709a:	eb01 0787 	add.w	r7, r1, r7, lsl #2
 800709e:	9300      	str	r3, [sp, #0]
 80070a0:	9b00      	ldr	r3, [sp, #0]
 80070a2:	9201      	str	r2, [sp, #4]
 80070a4:	4293      	cmp	r3, r2
 80070a6:	d80c      	bhi.n	80070c2 <__multiply+0x7a>
 80070a8:	2e00      	cmp	r6, #0
 80070aa:	dd03      	ble.n	80070b4 <__multiply+0x6c>
 80070ac:	f85e 3d04 	ldr.w	r3, [lr, #-4]!
 80070b0:	2b00      	cmp	r3, #0
 80070b2:	d05d      	beq.n	8007170 <__multiply+0x128>
 80070b4:	6106      	str	r6, [r0, #16]
 80070b6:	b003      	add	sp, #12
 80070b8:	e8bd 8ff0 	ldmia.w	sp!, {r4, r5, r6, r7, r8, r9, sl, fp, pc}
 80070bc:	f843 2b04 	str.w	r2, [r3], #4
 80070c0:	e7e3      	b.n	800708a <__multiply+0x42>
 80070c2:	f8b2 b000 	ldrh.w	fp, [r2]
 80070c6:	f1bb 0f00 	cmp.w	fp, #0
 80070ca:	d023      	beq.n	8007114 <__multiply+0xcc>
 80070cc:	4689      	mov	r9, r1
 80070ce:	46ac      	mov	ip, r5
 80070d0:	f04f 0800 	mov.w	r8, #0
 80070d4:	f859 4b04 	ldr.w	r4, [r9], #4
 80070d8:	f8dc a000 	ldr.w	sl, [ip]
 80070dc:	b2a3      	uxth	r3, r4
 80070de:	fa1f fa8a 	uxth.w	sl, sl
 80070e2:	fb0b a303 	mla	r3, fp, r3, sl
 80070e6:	ea4f 4a14 	mov.w	sl, r4, lsr #16
 80070ea:	f8dc 4000 	ldr.w	r4, [ip]
 80070ee:	4443      	add	r3, r8
 80070f0:	ea4f 4814 	mov.w	r8, r4, lsr #16
 80070f4:	fb0b 840a 	mla	r4, fp, sl, r8
 80070f8:	eb04 4413 	add.w	r4, r4, r3, lsr #16
 80070fc:	46e2      	mov	sl, ip
 80070fe:	b29b      	uxth	r3, r3
 8007100:	ea43 4304 	orr.w	r3, r3, r4, lsl #16
 8007104:	454f      	cmp	r7, r9
 8007106:	ea4f 4814 	mov.w	r8, r4, lsr #16
 800710a:	f84a 3b04 	str.w	r3, [sl], #4
 800710e:	d82b      	bhi.n	8007168 <__multiply+0x120>
 8007110:	f8cc 8004 	str.w	r8, [ip, #4]
 8007114:	9b01      	ldr	r3, [sp, #4]
 8007116:	f8b3 a002 	ldrh.w	sl, [r3, #2]
 800711a:	3204      	adds	r2, #4
 800711c:	f1ba 0f00 	cmp.w	sl, #0
 8007120:	d020      	beq.n	8007164 <__multiply+0x11c>
 8007122:	682b      	ldr	r3, [r5, #0]
 8007124:	4689      	mov	r9, r1
 8007126:	46a8      	mov	r8, r5
 8007128:	f04f 0b00 	mov.w	fp, #0
 800712c:	f8b9 c000 	ldrh.w	ip, [r9]
 8007130:	f8b8 4002 	ldrh.w	r4, [r8, #2]
 8007134:	fb0a 440c 	mla	r4, sl, ip, r4
 8007138:	445c      	add	r4, fp
 800713a:	46c4      	mov	ip, r8
 800713c:	b29b      	uxth	r3, r3
 800713e:	ea43 4304 	orr.w	r3, r3, r4, lsl #16
 8007142:	f84c 3b04 	str.w	r3, [ip], #4
 8007146:	f859 3b04 	ldr.w	r3, [r9], #4
 800714a:	f8b8 b004 	ldrh.w	fp, [r8, #4]
 800714e:	0c1b      	lsrs	r3, r3, #16
 8007150:	fb0a b303 	mla	r3, sl, r3, fp
 8007154:	eb03 4314 	add.w	r3, r3, r4, lsr #16
 8007158:	454f      	cmp	r7, r9
 800715a:	ea4f 4b13 	mov.w	fp, r3, lsr #16
 800715e:	d805      	bhi.n	800716c <__multiply+0x124>
 8007160:	f8c8 3004 	str.w	r3, [r8, #4]
 8007164:	3504      	adds	r5, #4
 8007166:	e79b      	b.n	80070a0 <__multiply+0x58>
 8007168:	46d4      	mov	ip, sl
 800716a:	e7b3      	b.n	80070d4 <__multiply+0x8c>
 800716c:	46e0      	mov	r8, ip
 800716e:	e7dd      	b.n	800712c <__multiply+0xe4>
 8007170:	3e01      	subs	r6, #1
 8007172:	e799      	b.n	80070a8 <__multiply+0x60>

08007174 <__pow5mult>:
 8007174:	e92d 43f8 	stmdb	sp!, {r3, r4, r5, r6, r7, r8, r9, lr}
 8007178:	4615      	mov	r5, r2
 800717a:	f012 0203 	ands.w	r2, r2, #3
 800717e:	4606      	mov	r6, r0
 8007180:	460f      	mov	r7, r1
 8007182:	d007      	beq.n	8007194 <__pow5mult+0x20>
 8007184:	3a01      	subs	r2, #1
 8007186:	4c21      	ldr	r4, [pc, #132]	; (800720c <__pow5mult+0x98>)
 8007188:	2300      	movs	r3, #0
 800718a:	f854 2022 	ldr.w	r2, [r4, r2, lsl #2]
 800718e:	f7ff fec9 	bl	8006f24 <__multadd>
 8007192:	4607      	mov	r7, r0
 8007194:	10ad      	asrs	r5, r5, #2
 8007196:	d035      	beq.n	8007204 <__pow5mult+0x90>
 8007198:	6a74      	ldr	r4, [r6, #36]	; 0x24
 800719a:	b93c      	cbnz	r4, 80071ac <__pow5mult+0x38>
 800719c:	2010      	movs	r0, #16
 800719e:	f7ff fe63 	bl	8006e68 <malloc>
 80071a2:	6270      	str	r0, [r6, #36]	; 0x24
 80071a4:	e9c0 4401 	strd	r4, r4, [r0, #4]
 80071a8:	6004      	str	r4, [r0, #0]
 80071aa:	60c4      	str	r4, [r0, #12]
 80071ac:	f8d6 8024 	ldr.w	r8, [r6, #36]	; 0x24
 80071b0:	f8d8 4008 	ldr.w	r4, [r8, #8]
 80071b4:	b94c      	cbnz	r4, 80071ca <__pow5mult+0x56>
 80071b6:	f240 2171 	movw	r1, #625	; 0x271
 80071ba:	4630      	mov	r0, r6
 80071bc:	f7ff ff3b 	bl	8007036 <__i2b>
 80071c0:	2300      	movs	r3, #0
 80071c2:	f8c8 0008 	str.w	r0, [r8, #8]
 80071c6:	4604      	mov	r4, r0
 80071c8:	6003      	str	r3, [r0, #0]
 80071ca:	f04f 0800 	mov.w	r8, #0
 80071ce:	07eb      	lsls	r3, r5, #31
 80071d0:	d50a      	bpl.n	80071e8 <__pow5mult+0x74>
 80071d2:	4639      	mov	r1, r7
 80071d4:	4622      	mov	r2, r4
 80071d6:	4630      	mov	r0, r6
 80071d8:	f7ff ff36 	bl	8007048 <__multiply>
 80071dc:	4639      	mov	r1, r7
 80071de:	4681      	mov	r9, r0
 80071e0:	4630      	mov	r0, r6
 80071e2:	f7ff fe88 	bl	8006ef6 <_Bfree>
 80071e6:	464f      	mov	r7, r9
 80071e8:	106d      	asrs	r5, r5, #1
 80071ea:	d00b      	beq.n	8007204 <__pow5mult+0x90>
 80071ec:	6820      	ldr	r0, [r4, #0]
 80071ee:	b938      	cbnz	r0, 8007200 <__pow5mult+0x8c>
 80071f0:	4622      	mov	r2, r4
 80071f2:	4621      	mov	r1, r4
 80071f4:	4630      	mov	r0, r6
 80071f6:	f7ff ff27 	bl	8007048 <__multiply>
 80071fa:	6020      	str	r0, [r4, #0]
 80071fc:	f8c0 8000 	str.w	r8, [r0]
 8007200:	4604      	mov	r4, r0
 8007202:	e7e4      	b.n	80071ce <__pow5mult+0x5a>
 8007204:	4638      	mov	r0, r7
 8007206:	e8bd 83f8 	ldmia.w	sp!, {r3, r4, r5, r6, r7, r8, r9, pc}
 800720a:	bf00      	nop
 800720c:	08007db0 	.word	0x08007db0

08007210 <__lshift>:
 8007210:	e92d 47f0 	stmdb	sp!, {r4, r5, r6, r7, r8, r9, sl, lr}
 8007214:	460c      	mov	r4, r1
 8007216:	ea4f 1a62 	mov.w	sl, r2, asr #5
 800721a:	6923      	ldr	r3, [r4, #16]
 800721c:	6849      	ldr	r1, [r1, #4]
 800721e:	eb0a 0903 	add.w	r9, sl, r3
 8007222:	68a3      	ldr	r3, [r4, #8]
 8007224:	4607      	mov	r7, r0
 8007226:	4616      	mov	r6, r2
 8007228:	f109 0501 	add.w	r5, r9, #1
 800722c:	42ab      	cmp	r3, r5
 800722e:	db32      	blt.n	8007296 <__lshift+0x86>
 8007230:	4638      	mov	r0, r7
 8007232:	f7ff fe2c 	bl	8006e8e <_Balloc>
 8007236:	2300      	movs	r3, #0
 8007238:	4680      	mov	r8, r0
 800723a:	f100 0114 	add.w	r1, r0, #20
 800723e:	461a      	mov	r2, r3
 8007240:	4553      	cmp	r3, sl
 8007242:	db2b      	blt.n	800729c <__lshift+0x8c>
 8007244:	6920      	ldr	r0, [r4, #16]
 8007246:	ea2a 7aea 	bic.w	sl, sl, sl, asr #31
 800724a:	f104 0314 	add.w	r3, r4, #20
 800724e:	f016 021f 	ands.w	r2, r6, #31
 8007252:	eb01 018a 	add.w	r1, r1, sl, lsl #2
 8007256:	eb03 0c80 	add.w	ip, r3, r0, lsl #2
 800725a:	d025      	beq.n	80072a8 <__lshift+0x98>
 800725c:	f1c2 0e20 	rsb	lr, r2, #32
 8007260:	2000      	movs	r0, #0
 8007262:	681e      	ldr	r6, [r3, #0]
 8007264:	468a      	mov	sl, r1
 8007266:	4096      	lsls	r6, r2
 8007268:	4330      	orrs	r0, r6
 800726a:	f84a 0b04 	str.w	r0, [sl], #4
 800726e:	f853 0b04 	ldr.w	r0, [r3], #4
 8007272:	459c      	cmp	ip, r3
 8007274:	fa20 f00e 	lsr.w	r0, r0, lr
 8007278:	d814      	bhi.n	80072a4 <__lshift+0x94>
 800727a:	6048      	str	r0, [r1, #4]
 800727c:	b108      	cbz	r0, 8007282 <__lshift+0x72>
 800727e:	f109 0502 	add.w	r5, r9, #2
 8007282:	3d01      	subs	r5, #1
 8007284:	4638      	mov	r0, r7
 8007286:	f8c8 5010 	str.w	r5, [r8, #16]
 800728a:	4621      	mov	r1, r4
 800728c:	f7ff fe33 	bl	8006ef6 <_Bfree>
 8007290:	4640      	mov	r0, r8
 8007292:	e8bd 87f0 	ldmia.w	sp!, {r4, r5, r6, r7, r8, r9, sl, pc}
 8007296:	3101      	adds	r1, #1
 8007298:	005b      	lsls	r3, r3, #1
 800729a:	e7c7      	b.n	800722c <__lshift+0x1c>
 800729c:	f841 2023 	str.w	r2, [r1, r3, lsl #2]
 80072a0:	3301      	adds	r3, #1
 80072a2:	e7cd      	b.n	8007240 <__lshift+0x30>
 80072a4:	4651      	mov	r1, sl
 80072a6:	e7dc      	b.n	8007262 <__lshift+0x52>
 80072a8:	3904      	subs	r1, #4
 80072aa:	f853 2b04 	ldr.w	r2, [r3], #4
 80072ae:	f841 2f04 	str.w	r2, [r1, #4]!
 80072b2:	459c      	cmp	ip, r3
 80072b4:	d8f9      	bhi.n	80072aa <__lshift+0x9a>
 80072b6:	e7e4      	b.n	8007282 <__lshift+0x72>

080072b8 <__mcmp>:
 80072b8:	6903      	ldr	r3, [r0, #16]
 80072ba:	690a      	ldr	r2, [r1, #16]
 80072bc:	1a9b      	subs	r3, r3, r2
 80072be:	b530      	push	{r4, r5, lr}
 80072c0:	d10c      	bne.n	80072dc <__mcmp+0x24>
 80072c2:	0092      	lsls	r2, r2, #2
 80072c4:	3014      	adds	r0, #20
 80072c6:	3114      	adds	r1, #20
 80072c8:	1884      	adds	r4, r0, r2
 80072ca:	4411      	add	r1, r2
 80072cc:	f854 5d04 	ldr.w	r5, [r4, #-4]!
 80072d0:	f851 2d04 	ldr.w	r2, [r1, #-4]!
 80072d4:	4295      	cmp	r5, r2
 80072d6:	d003      	beq.n	80072e0 <__mcmp+0x28>
 80072d8:	d305      	bcc.n	80072e6 <__mcmp+0x2e>
 80072da:	2301      	movs	r3, #1
 80072dc:	4618      	mov	r0, r3
 80072de:	bd30      	pop	{r4, r5, pc}
 80072e0:	42a0      	cmp	r0, r4
 80072e2:	d3f3      	bcc.n	80072cc <__mcmp+0x14>
 80072e4:	e7fa      	b.n	80072dc <__mcmp+0x24>
 80072e6:	f04f 33ff 	mov.w	r3, #4294967295
 80072ea:	e7f7      	b.n	80072dc <__mcmp+0x24>

080072ec <__mdiff>:
 80072ec:	e92d 47f0 	stmdb	sp!, {r4, r5, r6, r7, r8, r9, sl, lr}
 80072f0:	460d      	mov	r5, r1
 80072f2:	4607      	mov	r7, r0
 80072f4:	4611      	mov	r1, r2
 80072f6:	4628      	mov	r0, r5
 80072f8:	4614      	mov	r4, r2
 80072fa:	f7ff ffdd 	bl	80072b8 <__mcmp>
 80072fe:	1e06      	subs	r6, r0, #0
 8007300:	d108      	bne.n	8007314 <__mdiff+0x28>
 8007302:	4631      	mov	r1, r6
 8007304:	4638      	mov	r0, r7
 8007306:	f7ff fdc2 	bl	8006e8e <_Balloc>
 800730a:	2301      	movs	r3, #1
 800730c:	e9c0 3604 	strd	r3, r6, [r0, #16]
 8007310:	e8bd 87f0 	ldmia.w	sp!, {r4, r5, r6, r7, r8, r9, sl, pc}
 8007314:	bfa4      	itt	ge
 8007316:	4623      	movge	r3, r4
 8007318:	462c      	movge	r4, r5
 800731a:	4638      	mov	r0, r7
 800731c:	6861      	ldr	r1, [r4, #4]
 800731e:	bfa6      	itte	ge
 8007320:	461d      	movge	r5, r3
 8007322:	2600      	movge	r6, #0
 8007324:	2601      	movlt	r6, #1
 8007326:	f7ff fdb2 	bl	8006e8e <_Balloc>
 800732a:	692b      	ldr	r3, [r5, #16]
 800732c:	60c6      	str	r6, [r0, #12]
 800732e:	6926      	ldr	r6, [r4, #16]
 8007330:	f105 0914 	add.w	r9, r5, #20
 8007334:	f104 0214 	add.w	r2, r4, #20
 8007338:	eb02 0786 	add.w	r7, r2, r6, lsl #2
 800733c:	eb09 0883 	add.w	r8, r9, r3, lsl #2
 8007340:	f100 0514 	add.w	r5, r0, #20
 8007344:	f04f 0e00 	mov.w	lr, #0
 8007348:	f852 ab04 	ldr.w	sl, [r2], #4
 800734c:	f859 4b04 	ldr.w	r4, [r9], #4
 8007350:	fa1e f18a 	uxtah	r1, lr, sl
 8007354:	b2a3      	uxth	r3, r4
 8007356:	1ac9      	subs	r1, r1, r3
 8007358:	0c23      	lsrs	r3, r4, #16
 800735a:	ebc3 431a 	rsb	r3, r3, sl, lsr #16
 800735e:	eb03 4321 	add.w	r3, r3, r1, asr #16
 8007362:	b289      	uxth	r1, r1
 8007364:	ea4f 4e23 	mov.w	lr, r3, asr #16
 8007368:	45c8      	cmp	r8, r9
 800736a:	ea41 4303 	orr.w	r3, r1, r3, lsl #16
 800736e:	4694      	mov	ip, r2
 8007370:	f845 3b04 	str.w	r3, [r5], #4
 8007374:	d8e8      	bhi.n	8007348 <__mdiff+0x5c>
 8007376:	45bc      	cmp	ip, r7
 8007378:	d304      	bcc.n	8007384 <__mdiff+0x98>
 800737a:	f855 3d04 	ldr.w	r3, [r5, #-4]!
 800737e:	b183      	cbz	r3, 80073a2 <__mdiff+0xb6>
 8007380:	6106      	str	r6, [r0, #16]
 8007382:	e7c5      	b.n	8007310 <__mdiff+0x24>
 8007384:	f85c 1b04 	ldr.w	r1, [ip], #4
 8007388:	fa1e f381 	uxtah	r3, lr, r1
 800738c:	141a      	asrs	r2, r3, #16
 800738e:	eb02 4211 	add.w	r2, r2, r1, lsr #16
 8007392:	b29b      	uxth	r3, r3
 8007394:	ea43 4302 	orr.w	r3, r3, r2, lsl #16
 8007398:	ea4f 4e22 	mov.w	lr, r2, asr #16
 800739c:	f845 3b04 	str.w	r3, [r5], #4
 80073a0:	e7e9      	b.n	8007376 <__mdiff+0x8a>
 80073a2:	3e01      	subs	r6, #1
 80073a4:	e7e9      	b.n	800737a <__mdiff+0x8e>

080073a6 <__d2b>:
 80073a6:	e92d 43f7 	stmdb	sp!, {r0, r1, r2, r4, r5, r6, r7, r8, r9, lr}
 80073aa:	460e      	mov	r6, r1
 80073ac:	2101      	movs	r1, #1
 80073ae:	ec59 8b10 	vmov	r8, r9, d0
 80073b2:	4615      	mov	r5, r2
 80073b4:	f7ff fd6b 	bl	8006e8e <_Balloc>
 80073b8:	f3c9 540a 	ubfx	r4, r9, #20, #11
 80073bc:	4607      	mov	r7, r0
 80073be:	f3c9 0313 	ubfx	r3, r9, #0, #20
 80073c2:	bb34      	cbnz	r4, 8007412 <__d2b+0x6c>
 80073c4:	9301      	str	r3, [sp, #4]
 80073c6:	f1b8 0300 	subs.w	r3, r8, #0
 80073ca:	d027      	beq.n	800741c <__d2b+0x76>
 80073cc:	a802      	add	r0, sp, #8
 80073ce:	f840 3d08 	str.w	r3, [r0, #-8]!
 80073d2:	f7ff fe01 	bl	8006fd8 <__lo0bits>
 80073d6:	9900      	ldr	r1, [sp, #0]
 80073d8:	b1f0      	cbz	r0, 8007418 <__d2b+0x72>
 80073da:	9a01      	ldr	r2, [sp, #4]
 80073dc:	f1c0 0320 	rsb	r3, r0, #32
 80073e0:	fa02 f303 	lsl.w	r3, r2, r3
 80073e4:	430b      	orrs	r3, r1
 80073e6:	40c2      	lsrs	r2, r0
 80073e8:	617b      	str	r3, [r7, #20]
 80073ea:	9201      	str	r2, [sp, #4]
 80073ec:	9b01      	ldr	r3, [sp, #4]
 80073ee:	61bb      	str	r3, [r7, #24]
 80073f0:	2b00      	cmp	r3, #0
 80073f2:	bf14      	ite	ne
 80073f4:	2102      	movne	r1, #2
 80073f6:	2101      	moveq	r1, #1
 80073f8:	6139      	str	r1, [r7, #16]
 80073fa:	b1c4      	cbz	r4, 800742e <__d2b+0x88>
 80073fc:	f2a4 4433 	subw	r4, r4, #1075	; 0x433
 8007400:	4404      	add	r4, r0
 8007402:	6034      	str	r4, [r6, #0]
 8007404:	f1c0 0035 	rsb	r0, r0, #53	; 0x35
 8007408:	6028      	str	r0, [r5, #0]
 800740a:	4638      	mov	r0, r7
 800740c:	b003      	add	sp, #12
 800740e:	e8bd 83f0 	ldmia.w	sp!, {r4, r5, r6, r7, r8, r9, pc}
 8007412:	f443 1380 	orr.w	r3, r3, #1048576	; 0x100000
 8007416:	e7d5      	b.n	80073c4 <__d2b+0x1e>
 8007418:	6179      	str	r1, [r7, #20]
 800741a:	e7e7      	b.n	80073ec <__d2b+0x46>
 800741c:	a801      	add	r0, sp, #4
 800741e:	f7ff fddb 	bl	8006fd8 <__lo0bits>
 8007422:	9b01      	ldr	r3, [sp, #4]
 8007424:	617b      	str	r3, [r7, #20]
 8007426:	2101      	movs	r1, #1
 8007428:	6139      	str	r1, [r7, #16]
 800742a:	3020      	adds	r0, #32
 800742c:	e7e5      	b.n	80073fa <__d2b+0x54>
 800742e:	eb07 0381 	add.w	r3, r7, r1, lsl #2
 8007432:	f2a0 4032 	subw	r0, r0, #1074	; 0x432
 8007436:	6030      	str	r0, [r6, #0]
 8007438:	6918      	ldr	r0, [r3, #16]
 800743a:	f7ff fdae 	bl	8006f9a <__hi0bits>
 800743e:	ebc0 1041 	rsb	r0, r0, r1, lsl #5
 8007442:	e7e1      	b.n	8007408 <__d2b+0x62>

08007444 <_calloc_r>:
 8007444:	b538      	push	{r3, r4, r5, lr}
 8007446:	fb02 f401 	mul.w	r4, r2, r1
 800744a:	4621      	mov	r1, r4
 800744c:	f000 f856 	bl	80074fc <_malloc_r>
 8007450:	4605      	mov	r5, r0
 8007452:	b118      	cbz	r0, 800745c <_calloc_r+0x18>
 8007454:	4622      	mov	r2, r4
 8007456:	2100      	movs	r1, #0
 8007458:	f7fd ff34 	bl	80052c4 <memset>
 800745c:	4628      	mov	r0, r5
 800745e:	bd38      	pop	{r3, r4, r5, pc}

08007460 <_free_r>:
 8007460:	b538      	push	{r3, r4, r5, lr}
 8007462:	4605      	mov	r5, r0
 8007464:	2900      	cmp	r1, #0
 8007466:	d045      	beq.n	80074f4 <_free_r+0x94>
 8007468:	f851 3c04 	ldr.w	r3, [r1, #-4]
 800746c:	1f0c      	subs	r4, r1, #4
 800746e:	2b00      	cmp	r3, #0
 8007470:	bfb8      	it	lt
 8007472:	18e4      	addlt	r4, r4, r3
 8007474:	f000 fa98 	bl	80079a8 <__malloc_lock>
 8007478:	4a1f      	ldr	r2, [pc, #124]	; (80074f8 <_free_r+0x98>)
 800747a:	6813      	ldr	r3, [r2, #0]
 800747c:	4610      	mov	r0, r2
 800747e:	b933      	cbnz	r3, 800748e <_free_r+0x2e>
 8007480:	6063      	str	r3, [r4, #4]
 8007482:	6014      	str	r4, [r2, #0]
 8007484:	4628      	mov	r0, r5
 8007486:	e8bd 4038 	ldmia.w	sp!, {r3, r4, r5, lr}
 800748a:	f000 ba8e 	b.w	80079aa <__malloc_unlock>
 800748e:	42a3      	cmp	r3, r4
 8007490:	d90c      	bls.n	80074ac <_free_r+0x4c>
 8007492:	6821      	ldr	r1, [r4, #0]
 8007494:	1862      	adds	r2, r4, r1
 8007496:	4293      	cmp	r3, r2
 8007498:	bf04      	itt	eq
 800749a:	681a      	ldreq	r2, [r3, #0]
 800749c:	685b      	ldreq	r3, [r3, #4]
 800749e:	6063      	str	r3, [r4, #4]
 80074a0:	bf04      	itt	eq
 80074a2:	1852      	addeq	r2, r2, r1
 80074a4:	6022      	streq	r2, [r4, #0]
 80074a6:	6004      	str	r4, [r0, #0]
 80074a8:	e7ec      	b.n	8007484 <_free_r+0x24>
 80074aa:	4613      	mov	r3, r2
 80074ac:	685a      	ldr	r2, [r3, #4]
 80074ae:	b10a      	cbz	r2, 80074b4 <_free_r+0x54>
 80074b0:	42a2      	cmp	r2, r4
 80074b2:	d9fa      	bls.n	80074aa <_free_r+0x4a>
 80074b4:	6819      	ldr	r1, [r3, #0]
 80074b6:	1858      	adds	r0, r3, r1
 80074b8:	42a0      	cmp	r0, r4
 80074ba:	d10b      	bne.n	80074d4 <_free_r+0x74>
 80074bc:	6820      	ldr	r0, [r4, #0]
 80074be:	4401      	add	r1, r0
 80074c0:	1858      	adds	r0, r3, r1
 80074c2:	4282      	cmp	r2, r0
 80074c4:	6019      	str	r1, [r3, #0]
 80074c6:	d1dd      	bne.n	8007484 <_free_r+0x24>
 80074c8:	6810      	ldr	r0, [r2, #0]
 80074ca:	6852      	ldr	r2, [r2, #4]
 80074cc:	605a      	str	r2, [r3, #4]
 80074ce:	4401      	add	r1, r0
 80074d0:	6019      	str	r1, [r3, #0]
 80074d2:	e7d7      	b.n	8007484 <_free_r+0x24>
 80074d4:	d902      	bls.n	80074dc <_free_r+0x7c>
 80074d6:	230c      	movs	r3, #12
 80074d8:	602b      	str	r3, [r5, #0]
 80074da:	e7d3      	b.n	8007484 <_free_r+0x24>
 80074dc:	6820      	ldr	r0, [r4, #0]
 80074de:	1821      	adds	r1, r4, r0
 80074e0:	428a      	cmp	r2, r1
 80074e2:	bf04      	itt	eq
 80074e4:	6811      	ldreq	r1, [r2, #0]
 80074e6:	6852      	ldreq	r2, [r2, #4]
 80074e8:	6062      	str	r2, [r4, #4]
 80074ea:	bf04      	itt	eq
 80074ec:	1809      	addeq	r1, r1, r0
 80074ee:	6021      	streq	r1, [r4, #0]
 80074f0:	605c      	str	r4, [r3, #4]
 80074f2:	e7c7      	b.n	8007484 <_free_r+0x24>
 80074f4:	bd38      	pop	{r3, r4, r5, pc}
 80074f6:	bf00      	nop
 80074f8:	2000020c 	.word	0x2000020c

080074fc <_malloc_r>:
 80074fc:	b570      	push	{r4, r5, r6, lr}
 80074fe:	1ccd      	adds	r5, r1, #3
 8007500:	f025 0503 	bic.w	r5, r5, #3
 8007504:	3508      	adds	r5, #8
 8007506:	2d0c      	cmp	r5, #12
 8007508:	bf38      	it	cc
 800750a:	250c      	movcc	r5, #12
 800750c:	2d00      	cmp	r5, #0
 800750e:	4606      	mov	r6, r0
 8007510:	db01      	blt.n	8007516 <_malloc_r+0x1a>
 8007512:	42a9      	cmp	r1, r5
 8007514:	d903      	bls.n	800751e <_malloc_r+0x22>
 8007516:	230c      	movs	r3, #12
 8007518:	6033      	str	r3, [r6, #0]
 800751a:	2000      	movs	r0, #0
 800751c:	bd70      	pop	{r4, r5, r6, pc}
 800751e:	f000 fa43 	bl	80079a8 <__malloc_lock>
 8007522:	4a21      	ldr	r2, [pc, #132]	; (80075a8 <_malloc_r+0xac>)
 8007524:	6814      	ldr	r4, [r2, #0]
 8007526:	4621      	mov	r1, r4
 8007528:	b991      	cbnz	r1, 8007550 <_malloc_r+0x54>
 800752a:	4c20      	ldr	r4, [pc, #128]	; (80075ac <_malloc_r+0xb0>)
 800752c:	6823      	ldr	r3, [r4, #0]
 800752e:	b91b      	cbnz	r3, 8007538 <_malloc_r+0x3c>
 8007530:	4630      	mov	r0, r6
 8007532:	f000 f97d 	bl	8007830 <_sbrk_r>
 8007536:	6020      	str	r0, [r4, #0]
 8007538:	4629      	mov	r1, r5
 800753a:	4630      	mov	r0, r6
 800753c:	f000 f978 	bl	8007830 <_sbrk_r>
 8007540:	1c43      	adds	r3, r0, #1
 8007542:	d124      	bne.n	800758e <_malloc_r+0x92>
 8007544:	230c      	movs	r3, #12
 8007546:	6033      	str	r3, [r6, #0]
 8007548:	4630      	mov	r0, r6
 800754a:	f000 fa2e 	bl	80079aa <__malloc_unlock>
 800754e:	e7e4      	b.n	800751a <_malloc_r+0x1e>
 8007550:	680b      	ldr	r3, [r1, #0]
 8007552:	1b5b      	subs	r3, r3, r5
 8007554:	d418      	bmi.n	8007588 <_malloc_r+0x8c>
 8007556:	2b0b      	cmp	r3, #11
 8007558:	d90f      	bls.n	800757a <_malloc_r+0x7e>
 800755a:	600b      	str	r3, [r1, #0]
 800755c:	50cd      	str	r5, [r1, r3]
 800755e:	18cc      	adds	r4, r1, r3
 8007560:	4630      	mov	r0, r6
 8007562:	f000 fa22 	bl	80079aa <__malloc_unlock>
 8007566:	f104 000b 	add.w	r0, r4, #11
 800756a:	1d23      	adds	r3, r4, #4
 800756c:	f020 0007 	bic.w	r0, r0, #7
 8007570:	1ac3      	subs	r3, r0, r3
 8007572:	d0d3      	beq.n	800751c <_malloc_r+0x20>
 8007574:	425a      	negs	r2, r3
 8007576:	50e2      	str	r2, [r4, r3]
 8007578:	e7d0      	b.n	800751c <_malloc_r+0x20>
 800757a:	428c      	cmp	r4, r1
 800757c:	684b      	ldr	r3, [r1, #4]
 800757e:	bf16      	itet	ne
 8007580:	6063      	strne	r3, [r4, #4]
 8007582:	6013      	streq	r3, [r2, #0]
 8007584:	460c      	movne	r4, r1
 8007586:	e7eb      	b.n	8007560 <_malloc_r+0x64>
 8007588:	460c      	mov	r4, r1
 800758a:	6849      	ldr	r1, [r1, #4]
 800758c:	e7cc      	b.n	8007528 <_malloc_r+0x2c>
 800758e:	1cc4      	adds	r4, r0, #3
 8007590:	f024 0403 	bic.w	r4, r4, #3
 8007594:	42a0      	cmp	r0, r4
 8007596:	d005      	beq.n	80075a4 <_malloc_r+0xa8>
 8007598:	1a21      	subs	r1, r4, r0
 800759a:	4630      	mov	r0, r6
 800759c:	f000 f948 	bl	8007830 <_sbrk_r>
 80075a0:	3001      	adds	r0, #1
 80075a2:	d0cf      	beq.n	8007544 <_malloc_r+0x48>
 80075a4:	6025      	str	r5, [r4, #0]
 80075a6:	e7db      	b.n	8007560 <_malloc_r+0x64>
 80075a8:	2000020c 	.word	0x2000020c
 80075ac:	20000210 	.word	0x20000210

080075b0 <__sfputc_r>:
 80075b0:	6893      	ldr	r3, [r2, #8]
 80075b2:	3b01      	subs	r3, #1
 80075b4:	2b00      	cmp	r3, #0
 80075b6:	b410      	push	{r4}
 80075b8:	6093      	str	r3, [r2, #8]
 80075ba:	da08      	bge.n	80075ce <__sfputc_r+0x1e>
 80075bc:	6994      	ldr	r4, [r2, #24]
 80075be:	42a3      	cmp	r3, r4
 80075c0:	db01      	blt.n	80075c6 <__sfputc_r+0x16>
 80075c2:	290a      	cmp	r1, #10
 80075c4:	d103      	bne.n	80075ce <__sfputc_r+0x1e>
 80075c6:	f85d 4b04 	ldr.w	r4, [sp], #4
 80075ca:	f7fe bb5b 	b.w	8005c84 <__swbuf_r>
 80075ce:	6813      	ldr	r3, [r2, #0]
 80075d0:	1c58      	adds	r0, r3, #1
 80075d2:	6010      	str	r0, [r2, #0]
 80075d4:	7019      	strb	r1, [r3, #0]
 80075d6:	4608      	mov	r0, r1
 80075d8:	f85d 4b04 	ldr.w	r4, [sp], #4
 80075dc:	4770      	bx	lr

080075de <__sfputs_r>:
 80075de:	b5f8      	push	{r3, r4, r5, r6, r7, lr}
 80075e0:	4606      	mov	r6, r0
 80075e2:	460f      	mov	r7, r1
 80075e4:	4614      	mov	r4, r2
 80075e6:	18d5      	adds	r5, r2, r3
 80075e8:	42ac      	cmp	r4, r5
 80075ea:	d101      	bne.n	80075f0 <__sfputs_r+0x12>
 80075ec:	2000      	movs	r0, #0
 80075ee:	e007      	b.n	8007600 <__sfputs_r+0x22>
 80075f0:	463a      	mov	r2, r7
 80075f2:	f814 1b01 	ldrb.w	r1, [r4], #1
 80075f6:	4630      	mov	r0, r6
 80075f8:	f7ff ffda 	bl	80075b0 <__sfputc_r>
 80075fc:	1c43      	adds	r3, r0, #1
 80075fe:	d1f3      	bne.n	80075e8 <__sfputs_r+0xa>
 8007600:	bdf8      	pop	{r3, r4, r5, r6, r7, pc}
	...

08007604 <_vfiprintf_r>:
 8007604:	e92d 4ff0 	stmdb	sp!, {r4, r5, r6, r7, r8, r9, sl, fp, lr}
 8007608:	460c      	mov	r4, r1
 800760a:	b09d      	sub	sp, #116	; 0x74
 800760c:	4617      	mov	r7, r2
 800760e:	461d      	mov	r5, r3
 8007610:	4606      	mov	r6, r0
 8007612:	b118      	cbz	r0, 800761c <_vfiprintf_r+0x18>
 8007614:	6983      	ldr	r3, [r0, #24]
 8007616:	b90b      	cbnz	r3, 800761c <_vfiprintf_r+0x18>
 8007618:	f7ff fb2a 	bl	8006c70 <__sinit>
 800761c:	4b7c      	ldr	r3, [pc, #496]	; (8007810 <_vfiprintf_r+0x20c>)
 800761e:	429c      	cmp	r4, r3
 8007620:	d158      	bne.n	80076d4 <_vfiprintf_r+0xd0>
 8007622:	6874      	ldr	r4, [r6, #4]
 8007624:	89a3      	ldrh	r3, [r4, #12]
 8007626:	0718      	lsls	r0, r3, #28
 8007628:	d55e      	bpl.n	80076e8 <_vfiprintf_r+0xe4>
 800762a:	6923      	ldr	r3, [r4, #16]
 800762c:	2b00      	cmp	r3, #0
 800762e:	d05b      	beq.n	80076e8 <_vfiprintf_r+0xe4>
 8007630:	2300      	movs	r3, #0
 8007632:	9309      	str	r3, [sp, #36]	; 0x24
 8007634:	2320      	movs	r3, #32
 8007636:	f88d 3029 	strb.w	r3, [sp, #41]	; 0x29
 800763a:	2330      	movs	r3, #48	; 0x30
 800763c:	f88d 302a 	strb.w	r3, [sp, #42]	; 0x2a
 8007640:	9503      	str	r5, [sp, #12]
 8007642:	f04f 0b01 	mov.w	fp, #1
 8007646:	46b8      	mov	r8, r7
 8007648:	4645      	mov	r5, r8
 800764a:	f815 3b01 	ldrb.w	r3, [r5], #1
 800764e:	b10b      	cbz	r3, 8007654 <_vfiprintf_r+0x50>
 8007650:	2b25      	cmp	r3, #37	; 0x25
 8007652:	d154      	bne.n	80076fe <_vfiprintf_r+0xfa>
 8007654:	ebb8 0a07 	subs.w	sl, r8, r7
 8007658:	d00b      	beq.n	8007672 <_vfiprintf_r+0x6e>
 800765a:	4653      	mov	r3, sl
 800765c:	463a      	mov	r2, r7
 800765e:	4621      	mov	r1, r4
 8007660:	4630      	mov	r0, r6
 8007662:	f7ff ffbc 	bl	80075de <__sfputs_r>
 8007666:	3001      	adds	r0, #1
 8007668:	f000 80c2 	beq.w	80077f0 <_vfiprintf_r+0x1ec>
 800766c:	9b09      	ldr	r3, [sp, #36]	; 0x24
 800766e:	4453      	add	r3, sl
 8007670:	9309      	str	r3, [sp, #36]	; 0x24
 8007672:	f898 3000 	ldrb.w	r3, [r8]
 8007676:	2b00      	cmp	r3, #0
 8007678:	f000 80ba 	beq.w	80077f0 <_vfiprintf_r+0x1ec>
 800767c:	2300      	movs	r3, #0
 800767e:	f04f 32ff 	mov.w	r2, #4294967295
 8007682:	e9cd 2305 	strd	r2, r3, [sp, #20]
 8007686:	9304      	str	r3, [sp, #16]
 8007688:	9307      	str	r3, [sp, #28]
 800768a:	f88d 3053 	strb.w	r3, [sp, #83]	; 0x53
 800768e:	931a      	str	r3, [sp, #104]	; 0x68
 8007690:	46a8      	mov	r8, r5
 8007692:	2205      	movs	r2, #5
 8007694:	f818 1b01 	ldrb.w	r1, [r8], #1
 8007698:	485e      	ldr	r0, [pc, #376]	; (8007814 <_vfiprintf_r+0x210>)
 800769a:	f7f8 fda1 	bl	80001e0 <memchr>
 800769e:	9b04      	ldr	r3, [sp, #16]
 80076a0:	bb78      	cbnz	r0, 8007702 <_vfiprintf_r+0xfe>
 80076a2:	06d9      	lsls	r1, r3, #27
 80076a4:	bf44      	itt	mi
 80076a6:	2220      	movmi	r2, #32
 80076a8:	f88d 2053 	strbmi.w	r2, [sp, #83]	; 0x53
 80076ac:	071a      	lsls	r2, r3, #28
 80076ae:	bf44      	itt	mi
 80076b0:	222b      	movmi	r2, #43	; 0x2b
 80076b2:	f88d 2053 	strbmi.w	r2, [sp, #83]	; 0x53
 80076b6:	782a      	ldrb	r2, [r5, #0]
 80076b8:	2a2a      	cmp	r2, #42	; 0x2a
 80076ba:	d02a      	beq.n	8007712 <_vfiprintf_r+0x10e>
 80076bc:	9a07      	ldr	r2, [sp, #28]
 80076be:	46a8      	mov	r8, r5
 80076c0:	2000      	movs	r0, #0
 80076c2:	250a      	movs	r5, #10
 80076c4:	4641      	mov	r1, r8
 80076c6:	f811 3b01 	ldrb.w	r3, [r1], #1
 80076ca:	3b30      	subs	r3, #48	; 0x30
 80076cc:	2b09      	cmp	r3, #9
 80076ce:	d969      	bls.n	80077a4 <_vfiprintf_r+0x1a0>
 80076d0:	b360      	cbz	r0, 800772c <_vfiprintf_r+0x128>
 80076d2:	e024      	b.n	800771e <_vfiprintf_r+0x11a>
 80076d4:	4b50      	ldr	r3, [pc, #320]	; (8007818 <_vfiprintf_r+0x214>)
 80076d6:	429c      	cmp	r4, r3
 80076d8:	d101      	bne.n	80076de <_vfiprintf_r+0xda>
 80076da:	68b4      	ldr	r4, [r6, #8]
 80076dc:	e7a2      	b.n	8007624 <_vfiprintf_r+0x20>
 80076de:	4b4f      	ldr	r3, [pc, #316]	; (800781c <_vfiprintf_r+0x218>)
 80076e0:	429c      	cmp	r4, r3
 80076e2:	bf08      	it	eq
 80076e4:	68f4      	ldreq	r4, [r6, #12]
 80076e6:	e79d      	b.n	8007624 <_vfiprintf_r+0x20>
 80076e8:	4621      	mov	r1, r4
 80076ea:	4630      	mov	r0, r6
 80076ec:	f7fe fb1c 	bl	8005d28 <__swsetup_r>
 80076f0:	2800      	cmp	r0, #0
 80076f2:	d09d      	beq.n	8007630 <_vfiprintf_r+0x2c>
 80076f4:	f04f 30ff 	mov.w	r0, #4294967295
 80076f8:	b01d      	add	sp, #116	; 0x74
 80076fa:	e8bd 8ff0 	ldmia.w	sp!, {r4, r5, r6, r7, r8, r9, sl, fp, pc}
 80076fe:	46a8      	mov	r8, r5
 8007700:	e7a2      	b.n	8007648 <_vfiprintf_r+0x44>
 8007702:	4a44      	ldr	r2, [pc, #272]	; (8007814 <_vfiprintf_r+0x210>)
 8007704:	1a80      	subs	r0, r0, r2
 8007706:	fa0b f000 	lsl.w	r0, fp, r0
 800770a:	4318      	orrs	r0, r3
 800770c:	9004      	str	r0, [sp, #16]
 800770e:	4645      	mov	r5, r8
 8007710:	e7be      	b.n	8007690 <_vfiprintf_r+0x8c>
 8007712:	9a03      	ldr	r2, [sp, #12]
 8007714:	1d11      	adds	r1, r2, #4
 8007716:	6812      	ldr	r2, [r2, #0]
 8007718:	9103      	str	r1, [sp, #12]
 800771a:	2a00      	cmp	r2, #0
 800771c:	db01      	blt.n	8007722 <_vfiprintf_r+0x11e>
 800771e:	9207      	str	r2, [sp, #28]
 8007720:	e004      	b.n	800772c <_vfiprintf_r+0x128>
 8007722:	4252      	negs	r2, r2
 8007724:	f043 0302 	orr.w	r3, r3, #2
 8007728:	9207      	str	r2, [sp, #28]
 800772a:	9304      	str	r3, [sp, #16]
 800772c:	f898 3000 	ldrb.w	r3, [r8]
 8007730:	2b2e      	cmp	r3, #46	; 0x2e
 8007732:	d10e      	bne.n	8007752 <_vfiprintf_r+0x14e>
 8007734:	f898 3001 	ldrb.w	r3, [r8, #1]
 8007738:	2b2a      	cmp	r3, #42	; 0x2a
 800773a:	d138      	bne.n	80077ae <_vfiprintf_r+0x1aa>
 800773c:	9b03      	ldr	r3, [sp, #12]
 800773e:	1d1a      	adds	r2, r3, #4
 8007740:	681b      	ldr	r3, [r3, #0]
 8007742:	9203      	str	r2, [sp, #12]
 8007744:	2b00      	cmp	r3, #0
 8007746:	bfb8      	it	lt
 8007748:	f04f 33ff 	movlt.w	r3, #4294967295
 800774c:	f108 0802 	add.w	r8, r8, #2
 8007750:	9305      	str	r3, [sp, #20]
 8007752:	4d33      	ldr	r5, [pc, #204]	; (8007820 <_vfiprintf_r+0x21c>)
 8007754:	f898 1000 	ldrb.w	r1, [r8]
 8007758:	2203      	movs	r2, #3
 800775a:	4628      	mov	r0, r5
 800775c:	f7f8 fd40 	bl	80001e0 <memchr>
 8007760:	b140      	cbz	r0, 8007774 <_vfiprintf_r+0x170>
 8007762:	2340      	movs	r3, #64	; 0x40
 8007764:	1b40      	subs	r0, r0, r5
 8007766:	fa03 f000 	lsl.w	r0, r3, r0
 800776a:	9b04      	ldr	r3, [sp, #16]
 800776c:	4303      	orrs	r3, r0
 800776e:	f108 0801 	add.w	r8, r8, #1
 8007772:	9304      	str	r3, [sp, #16]
 8007774:	f898 1000 	ldrb.w	r1, [r8]
 8007778:	482a      	ldr	r0, [pc, #168]	; (8007824 <_vfiprintf_r+0x220>)
 800777a:	f88d 1028 	strb.w	r1, [sp, #40]	; 0x28
 800777e:	2206      	movs	r2, #6
 8007780:	f108 0701 	add.w	r7, r8, #1
 8007784:	f7f8 fd2c 	bl	80001e0 <memchr>
 8007788:	2800      	cmp	r0, #0
 800778a:	d037      	beq.n	80077fc <_vfiprintf_r+0x1f8>
 800778c:	4b26      	ldr	r3, [pc, #152]	; (8007828 <_vfiprintf_r+0x224>)
 800778e:	bb1b      	cbnz	r3, 80077d8 <_vfiprintf_r+0x1d4>
 8007790:	9b03      	ldr	r3, [sp, #12]
 8007792:	3307      	adds	r3, #7
 8007794:	f023 0307 	bic.w	r3, r3, #7
 8007798:	3308      	adds	r3, #8
 800779a:	9303      	str	r3, [sp, #12]
 800779c:	9b09      	ldr	r3, [sp, #36]	; 0x24
 800779e:	444b      	add	r3, r9
 80077a0:	9309      	str	r3, [sp, #36]	; 0x24
 80077a2:	e750      	b.n	8007646 <_vfiprintf_r+0x42>
 80077a4:	fb05 3202 	mla	r2, r5, r2, r3
 80077a8:	2001      	movs	r0, #1
 80077aa:	4688      	mov	r8, r1
 80077ac:	e78a      	b.n	80076c4 <_vfiprintf_r+0xc0>
 80077ae:	2300      	movs	r3, #0
 80077b0:	f108 0801 	add.w	r8, r8, #1
 80077b4:	9305      	str	r3, [sp, #20]
 80077b6:	4619      	mov	r1, r3
 80077b8:	250a      	movs	r5, #10
 80077ba:	4640      	mov	r0, r8
 80077bc:	f810 2b01 	ldrb.w	r2, [r0], #1
 80077c0:	3a30      	subs	r2, #48	; 0x30
 80077c2:	2a09      	cmp	r2, #9
 80077c4:	d903      	bls.n	80077ce <_vfiprintf_r+0x1ca>
 80077c6:	2b00      	cmp	r3, #0
 80077c8:	d0c3      	beq.n	8007752 <_vfiprintf_r+0x14e>
 80077ca:	9105      	str	r1, [sp, #20]
 80077cc:	e7c1      	b.n	8007752 <_vfiprintf_r+0x14e>
 80077ce:	fb05 2101 	mla	r1, r5, r1, r2
 80077d2:	2301      	movs	r3, #1
 80077d4:	4680      	mov	r8, r0
 80077d6:	e7f0      	b.n	80077ba <_vfiprintf_r+0x1b6>
 80077d8:	ab03      	add	r3, sp, #12
 80077da:	9300      	str	r3, [sp, #0]
 80077dc:	4622      	mov	r2, r4
 80077de:	4b13      	ldr	r3, [pc, #76]	; (800782c <_vfiprintf_r+0x228>)
 80077e0:	a904      	add	r1, sp, #16
 80077e2:	4630      	mov	r0, r6
 80077e4:	f7fd fe0a 	bl	80053fc <_printf_float>
 80077e8:	f1b0 3fff 	cmp.w	r0, #4294967295
 80077ec:	4681      	mov	r9, r0
 80077ee:	d1d5      	bne.n	800779c <_vfiprintf_r+0x198>
 80077f0:	89a3      	ldrh	r3, [r4, #12]
 80077f2:	065b      	lsls	r3, r3, #25
 80077f4:	f53f af7e 	bmi.w	80076f4 <_vfiprintf_r+0xf0>
 80077f8:	9809      	ldr	r0, [sp, #36]	; 0x24
 80077fa:	e77d      	b.n	80076f8 <_vfiprintf_r+0xf4>
 80077fc:	ab03      	add	r3, sp, #12
 80077fe:	9300      	str	r3, [sp, #0]
 8007800:	4622      	mov	r2, r4
 8007802:	4b0a      	ldr	r3, [pc, #40]	; (800782c <_vfiprintf_r+0x228>)
 8007804:	a904      	add	r1, sp, #16
 8007806:	4630      	mov	r0, r6
 8007808:	f7fe f8ae 	bl	8005968 <_printf_i>
 800780c:	e7ec      	b.n	80077e8 <_vfiprintf_r+0x1e4>
 800780e:	bf00      	nop
 8007810:	08007c80 	.word	0x08007c80
 8007814:	08007dbc 	.word	0x08007dbc
 8007818:	08007ca0 	.word	0x08007ca0
 800781c:	08007c60 	.word	0x08007c60
 8007820:	08007dc2 	.word	0x08007dc2
 8007824:	08007dc6 	.word	0x08007dc6
 8007828:	080053fd 	.word	0x080053fd
 800782c:	080075df 	.word	0x080075df

08007830 <_sbrk_r>:
 8007830:	b538      	push	{r3, r4, r5, lr}
 8007832:	4c06      	ldr	r4, [pc, #24]	; (800784c <_sbrk_r+0x1c>)
 8007834:	2300      	movs	r3, #0
 8007836:	4605      	mov	r5, r0
 8007838:	4608      	mov	r0, r1
 800783a:	6023      	str	r3, [r4, #0]
 800783c:	f7fb fade 	bl	8002dfc <_sbrk>
 8007840:	1c43      	adds	r3, r0, #1
 8007842:	d102      	bne.n	800784a <_sbrk_r+0x1a>
 8007844:	6823      	ldr	r3, [r4, #0]
 8007846:	b103      	cbz	r3, 800784a <_sbrk_r+0x1a>
 8007848:	602b      	str	r3, [r5, #0]
 800784a:	bd38      	pop	{r3, r4, r5, pc}
 800784c:	2000035c 	.word	0x2000035c

08007850 <__sread>:
 8007850:	b510      	push	{r4, lr}
 8007852:	460c      	mov	r4, r1
 8007854:	f9b1 100e 	ldrsh.w	r1, [r1, #14]
 8007858:	f000 f8a8 	bl	80079ac <_read_r>
 800785c:	2800      	cmp	r0, #0
 800785e:	bfab      	itete	ge
 8007860:	6d63      	ldrge	r3, [r4, #84]	; 0x54
 8007862:	89a3      	ldrhlt	r3, [r4, #12]
 8007864:	181b      	addge	r3, r3, r0
 8007866:	f423 5380 	biclt.w	r3, r3, #4096	; 0x1000
 800786a:	bfac      	ite	ge
 800786c:	6563      	strge	r3, [r4, #84]	; 0x54
 800786e:	81a3      	strhlt	r3, [r4, #12]
 8007870:	bd10      	pop	{r4, pc}

08007872 <__swrite>:
 8007872:	e92d 41f0 	stmdb	sp!, {r4, r5, r6, r7, r8, lr}
 8007876:	461f      	mov	r7, r3
 8007878:	898b      	ldrh	r3, [r1, #12]
 800787a:	05db      	lsls	r3, r3, #23
 800787c:	4605      	mov	r5, r0
 800787e:	460c      	mov	r4, r1
 8007880:	4616      	mov	r6, r2
 8007882:	d505      	bpl.n	8007890 <__swrite+0x1e>
 8007884:	2302      	movs	r3, #2
 8007886:	2200      	movs	r2, #0
 8007888:	f9b1 100e 	ldrsh.w	r1, [r1, #14]
 800788c:	f000 f868 	bl	8007960 <_lseek_r>
 8007890:	89a3      	ldrh	r3, [r4, #12]
 8007892:	f9b4 100e 	ldrsh.w	r1, [r4, #14]
 8007896:	f423 5380 	bic.w	r3, r3, #4096	; 0x1000
 800789a:	81a3      	strh	r3, [r4, #12]
 800789c:	4632      	mov	r2, r6
 800789e:	463b      	mov	r3, r7
 80078a0:	4628      	mov	r0, r5
 80078a2:	e8bd 41f0 	ldmia.w	sp!, {r4, r5, r6, r7, r8, lr}
 80078a6:	f000 b817 	b.w	80078d8 <_write_r>

080078aa <__sseek>:
 80078aa:	b510      	push	{r4, lr}
 80078ac:	460c      	mov	r4, r1
 80078ae:	f9b1 100e 	ldrsh.w	r1, [r1, #14]
 80078b2:	f000 f855 	bl	8007960 <_lseek_r>
 80078b6:	1c43      	adds	r3, r0, #1
 80078b8:	89a3      	ldrh	r3, [r4, #12]
 80078ba:	bf15      	itete	ne
 80078bc:	6560      	strne	r0, [r4, #84]	; 0x54
 80078be:	f423 5380 	biceq.w	r3, r3, #4096	; 0x1000
 80078c2:	f443 5380 	orrne.w	r3, r3, #4096	; 0x1000
 80078c6:	81a3      	strheq	r3, [r4, #12]
 80078c8:	bf18      	it	ne
 80078ca:	81a3      	strhne	r3, [r4, #12]
 80078cc:	bd10      	pop	{r4, pc}

080078ce <__sclose>:
 80078ce:	f9b1 100e 	ldrsh.w	r1, [r1, #14]
 80078d2:	f000 b813 	b.w	80078fc <_close_r>
	...

080078d8 <_write_r>:
 80078d8:	b538      	push	{r3, r4, r5, lr}
 80078da:	4c07      	ldr	r4, [pc, #28]	; (80078f8 <_write_r+0x20>)
 80078dc:	4605      	mov	r5, r0
 80078de:	4608      	mov	r0, r1
 80078e0:	4611      	mov	r1, r2
 80078e2:	2200      	movs	r2, #0
 80078e4:	6022      	str	r2, [r4, #0]
 80078e6:	461a      	mov	r2, r3
 80078e8:	f7fa fe12 	bl	8002510 <_write>
 80078ec:	1c43      	adds	r3, r0, #1
 80078ee:	d102      	bne.n	80078f6 <_write_r+0x1e>
 80078f0:	6823      	ldr	r3, [r4, #0]
 80078f2:	b103      	cbz	r3, 80078f6 <_write_r+0x1e>
 80078f4:	602b      	str	r3, [r5, #0]
 80078f6:	bd38      	pop	{r3, r4, r5, pc}
 80078f8:	2000035c 	.word	0x2000035c

080078fc <_close_r>:
 80078fc:	b538      	push	{r3, r4, r5, lr}
 80078fe:	4c06      	ldr	r4, [pc, #24]	; (8007918 <_close_r+0x1c>)
 8007900:	2300      	movs	r3, #0
 8007902:	4605      	mov	r5, r0
 8007904:	4608      	mov	r0, r1
 8007906:	6023      	str	r3, [r4, #0]
 8007908:	f7fb fa43 	bl	8002d92 <_close>
 800790c:	1c43      	adds	r3, r0, #1
 800790e:	d102      	bne.n	8007916 <_close_r+0x1a>
 8007910:	6823      	ldr	r3, [r4, #0]
 8007912:	b103      	cbz	r3, 8007916 <_close_r+0x1a>
 8007914:	602b      	str	r3, [r5, #0]
 8007916:	bd38      	pop	{r3, r4, r5, pc}
 8007918:	2000035c 	.word	0x2000035c

0800791c <_fstat_r>:
 800791c:	b538      	push	{r3, r4, r5, lr}
 800791e:	4c07      	ldr	r4, [pc, #28]	; (800793c <_fstat_r+0x20>)
 8007920:	2300      	movs	r3, #0
 8007922:	4605      	mov	r5, r0
 8007924:	4608      	mov	r0, r1
 8007926:	4611      	mov	r1, r2
 8007928:	6023      	str	r3, [r4, #0]
 800792a:	f7fb fa3e 	bl	8002daa <_fstat>
 800792e:	1c43      	adds	r3, r0, #1
 8007930:	d102      	bne.n	8007938 <_fstat_r+0x1c>
 8007932:	6823      	ldr	r3, [r4, #0]
 8007934:	b103      	cbz	r3, 8007938 <_fstat_r+0x1c>
 8007936:	602b      	str	r3, [r5, #0]
 8007938:	bd38      	pop	{r3, r4, r5, pc}
 800793a:	bf00      	nop
 800793c:	2000035c 	.word	0x2000035c

08007940 <_isatty_r>:
 8007940:	b538      	push	{r3, r4, r5, lr}
 8007942:	4c06      	ldr	r4, [pc, #24]	; (800795c <_isatty_r+0x1c>)
 8007944:	2300      	movs	r3, #0
 8007946:	4605      	mov	r5, r0
 8007948:	4608      	mov	r0, r1
 800794a:	6023      	str	r3, [r4, #0]
 800794c:	f7fb fa3d 	bl	8002dca <_isatty>
 8007950:	1c43      	adds	r3, r0, #1
 8007952:	d102      	bne.n	800795a <_isatty_r+0x1a>
 8007954:	6823      	ldr	r3, [r4, #0]
 8007956:	b103      	cbz	r3, 800795a <_isatty_r+0x1a>
 8007958:	602b      	str	r3, [r5, #0]
 800795a:	bd38      	pop	{r3, r4, r5, pc}
 800795c:	2000035c 	.word	0x2000035c

08007960 <_lseek_r>:
 8007960:	b538      	push	{r3, r4, r5, lr}
 8007962:	4c07      	ldr	r4, [pc, #28]	; (8007980 <_lseek_r+0x20>)
 8007964:	4605      	mov	r5, r0
 8007966:	4608      	mov	r0, r1
 8007968:	4611      	mov	r1, r2
 800796a:	2200      	movs	r2, #0
 800796c:	6022      	str	r2, [r4, #0]
 800796e:	461a      	mov	r2, r3
 8007970:	f7fb fa36 	bl	8002de0 <_lseek>
 8007974:	1c43      	adds	r3, r0, #1
 8007976:	d102      	bne.n	800797e <_lseek_r+0x1e>
 8007978:	6823      	ldr	r3, [r4, #0]
 800797a:	b103      	cbz	r3, 800797e <_lseek_r+0x1e>
 800797c:	602b      	str	r3, [r5, #0]
 800797e:	bd38      	pop	{r3, r4, r5, pc}
 8007980:	2000035c 	.word	0x2000035c

08007984 <__ascii_mbtowc>:
 8007984:	b082      	sub	sp, #8
 8007986:	b901      	cbnz	r1, 800798a <__ascii_mbtowc+0x6>
 8007988:	a901      	add	r1, sp, #4
 800798a:	b142      	cbz	r2, 800799e <__ascii_mbtowc+0x1a>
 800798c:	b14b      	cbz	r3, 80079a2 <__ascii_mbtowc+0x1e>
 800798e:	7813      	ldrb	r3, [r2, #0]
 8007990:	600b      	str	r3, [r1, #0]
 8007992:	7812      	ldrb	r2, [r2, #0]
 8007994:	1c10      	adds	r0, r2, #0
 8007996:	bf18      	it	ne
 8007998:	2001      	movne	r0, #1
 800799a:	b002      	add	sp, #8
 800799c:	4770      	bx	lr
 800799e:	4610      	mov	r0, r2
 80079a0:	e7fb      	b.n	800799a <__ascii_mbtowc+0x16>
 80079a2:	f06f 0001 	mvn.w	r0, #1
 80079a6:	e7f8      	b.n	800799a <__ascii_mbtowc+0x16>

080079a8 <__malloc_lock>:
 80079a8:	4770      	bx	lr

080079aa <__malloc_unlock>:
 80079aa:	4770      	bx	lr

080079ac <_read_r>:
 80079ac:	b538      	push	{r3, r4, r5, lr}
 80079ae:	4c07      	ldr	r4, [pc, #28]	; (80079cc <_read_r+0x20>)
 80079b0:	4605      	mov	r5, r0
 80079b2:	4608      	mov	r0, r1
 80079b4:	4611      	mov	r1, r2
 80079b6:	2200      	movs	r2, #0
 80079b8:	6022      	str	r2, [r4, #0]
 80079ba:	461a      	mov	r2, r3
 80079bc:	f7fb f9cc 	bl	8002d58 <_read>
 80079c0:	1c43      	adds	r3, r0, #1
 80079c2:	d102      	bne.n	80079ca <_read_r+0x1e>
 80079c4:	6823      	ldr	r3, [r4, #0]
 80079c6:	b103      	cbz	r3, 80079ca <_read_r+0x1e>
 80079c8:	602b      	str	r3, [r5, #0]
 80079ca:	bd38      	pop	{r3, r4, r5, pc}
 80079cc:	2000035c 	.word	0x2000035c

080079d0 <__ascii_wctomb>:
 80079d0:	b149      	cbz	r1, 80079e6 <__ascii_wctomb+0x16>
 80079d2:	2aff      	cmp	r2, #255	; 0xff
 80079d4:	bf85      	ittet	hi
 80079d6:	238a      	movhi	r3, #138	; 0x8a
 80079d8:	6003      	strhi	r3, [r0, #0]
 80079da:	700a      	strbls	r2, [r1, #0]
 80079dc:	f04f 30ff 	movhi.w	r0, #4294967295
 80079e0:	bf98      	it	ls
 80079e2:	2001      	movls	r0, #1
 80079e4:	4770      	bx	lr
 80079e6:	4608      	mov	r0, r1
 80079e8:	4770      	bx	lr
	...

080079ec <_init>:
 80079ec:	b5f8      	push	{r3, r4, r5, r6, r7, lr}
 80079ee:	bf00      	nop
 80079f0:	bcf8      	pop	{r3, r4, r5, r6, r7}
 80079f2:	bc08      	pop	{r3}
 80079f4:	469e      	mov	lr, r3
 80079f6:	4770      	bx	lr

080079f8 <_fini>:
 80079f8:	b5f8      	push	{r3, r4, r5, r6, r7, lr}
 80079fa:	bf00      	nop
 80079fc:	bcf8      	pop	{r3, r4, r5, r6, r7}
 80079fe:	bc08      	pop	{r3}
 8007a00:	469e      	mov	lr, r3
 8007a02:	4770      	bx	lr
